
 Start         Length     Name                   Class
 0001:00401000 0000E0628H .text                  CODE
 0002:004E26D0 000017AFCH .rdata                 DATA
 0003:004FA000 000019808H .data                  DATA
 0004:00000000 00000D290H .rsrc                  DATA


  Address         Publics by Value

 0001:00000000       sub_401000
 0001:00000002       nullsub_1
 0001:00000004       yCFnOnTimerEvent
 0001:0000003B       nullsub_2
 0001:0000003C       nullsub_3
 0001:0000003D       sub_40103D
 0001:00000076       j__krnl_MMessageLoop
 0001:0000007C       j__krnl_MLoadBeginWin
 0001:00000082       sub_401082
 0001:00000088       j__krnl_MCallKrnlLibCmd
 0001:00000090       _krnln_fnLen
 0001:000000B0       CFreqMem::`scalar deleting destructor'(uint)
 0001:000000CE       loc_4010CE
 0001:000000E0       sub_4010E0
 0001:000000F8       loc_4010F8
 0001:00000100       sub_401100
 0001:00000110       AfxTryCleanup(void)
 0001:00000120       CObject::operator delete(void *)
 0001:00000130       CWinUnitIDManger::GetCursorDataPtr(uchar *)
 0001:000002B0       sub_4012B0
 0001:000002C0       loc_4012C0
 0001:000002D0       CFile::SetFilePath(char const *)
 0001:00000310       CFreqMem::CFreqMem(void)
 0001:00000330       CFreqMem::Alloc(int)
 0001:00000400       CFreqMem::Realloc(int)
 0001:00000510       CFreqMem::Free(void)
 0001:00000530       CFreqMem::_Free(uchar *)
 0001:00000570       loc_401570
 0001:00000584       loc_401584
 0001:0000058E       loc_40158E
 0001:000005A0       unknown_libname_192
 0001:000005C5       loc_4015C5
 0001:000005E0       unknown_libname_193
 0001:00000607       loc_401607
 0001:00000620       CFreqMem::AddByte(uchar)
 0001:00000640       loc_401640
 0001:00000650       CFreqMem::XchgMem(CFreqMem &)
 0001:00000690       CFreqMem::Serialize(CArchive &)
 0001:00000740       CFreqMem::ReadFile(CString &,int)
 0001:00000890       CFreqMem::WriteFile(CString &,int,int)
 0001:000009A0       CFreqMem::Insert(int,uchar *,int)
 0001:00000A40       CFreqMem::Append(uchar *,int)
 0001:00000AA0       CFreqMem::Replace(int,int,uchar *,int)
 0001:00000BC0       CFreqMem::Remove(int,int)
 0001:00000C70       FindInt(int *,int,int)
 0001:00000C90       IsEmptyStr(char *)
 0001:00000CA0       loc_401CA0
 0001:00000CB0       MoveMem(uchar *,uchar *,ulong)
 0001:00000D03       locret_401D03
 0001:00000D10       ZeroMem(uchar *,ulong)
 0001:00000D60       tcsallbytes(char *)
 0001:00000D80       tcsbytes(char *)
 0001:00000DA0       FindByte(uchar *,int,uchar)
 0001:00000DF0       FindDWord(ulong *,int,ulong)
 0001:00000E40       CPropertyInfo::SaveData(int *)
 0001:00000F60       CPropertyInfo::LoadData(uchar *,int)
 0001:0000102D       loc_40202D
 0001:00001050       ProcessSysBackColor(ulong)
 0001:00001063       locret_402063
 0001:00001070       MyCreateFont(CFont &,tagLOGFONTA *)
 0001:0000108C       loc_40208C
 0001:000010D0       SerializeCString(CString &,CArchive &)
 0001:00001100       loc_402100
 0001:00001121       loc_402121
 0001:00001142       loc_402142
 0001:0000116B       loc_40216B
 0001:00001170       SetStr(CString &,char *)
 0001:00001183       loc_402183
 0001:00001190       FindDataSource(ulong,CProvider *)
 0001:000011C7       loc_4021C7
 0001:0000121C       loc_40221C
 0001:0000121F       loc_40221F
 0001:00001226       loc_402226
 0001:00001230       FindDataSource(ulong,char *,HWND__ * *)
 0001:00001243       loc_402243
 0001:00001281       loc_402281
 0001:000012B4       loc_4022B4
 0001:000012F2       loc_4022F2
 0001:000012FA       loc_4022FA
 0001:00001310       FindProvider(ulong,char *)
 0001:00001351       loc_402351
 0001:00001384       loc_402384
 0001:000013C0       loc_4023C0
 0001:000013D0       CArchive::operator>>(long &)
 0001:000013ED       loc_4023ED
 0001:00001410       CPropertyInfo::Serialize(CArchive &)
 0001:00001423       loc_402423
 0001:00001430       nullsub_20
 0001:00001440       CWnd::BeginModalState(void)
 0001:00001450       CWnd::EndModalState(void)
 0001:00001460       CSpin::OnDeltapos(tagNMHDR *,long *)
 0001:00001516       loc_402516
 0001:00001525       loc_402525
 0001:00001527       loc_402527
 0001:000015AE       loc_4025AE
 0001:00001607       loc_402607
 0001:00001626       loc_402626
 0001:00001645       loc_402645
 0001:00001670       CSpin::CtlColor(CDC *,uint)
 0001:00001689       loc_402689
 0001:00001690       sub_402690
 0001:000016A8       loc_4026A8
 0001:000016B0       sub_4026B0
 0001:000016C8       loc_4026C8
 0001:000016D0       unknown_libname_194
 0001:00001710       sub_402710
 0001:00001728       loc_402728
 0001:00001730       CUEdit::OnInit(uint,long)
 0001:0000174A       loc_40274A
 0001:0000176E       loc_40276E
 0001:00001772       loc_402772
 0001:00001777       loc_402777
 0001:0000177C       loc_40277C
 0001:00001783       loc_402783
 0001:00001790       CUEdit::OnEraseBkgnd(CDC *)
 0001:000017BB       loc_4027BB
 0001:000017D8       loc_4027D8
 0001:000017F0       CUEdit::OnMyNcPaint(uint,long)
 0001:0000189F       loc_40289F
 0001:000018E5       loc_4028E5
 0001:00001900       CUEdit::OnNcHitTest(CPoint)
 0001:0000194D       loc_40294D
 0001:00001960       CUEdit::OnNcCalcSize(int,tagNCCALCSIZE_PARAMS *)
 0001:00001A1E       loc_402A1E
 0001:00001A40       CUEdit::OnDestroy(void)
 0001:00001A60       CUEdit::OnGetDSWnd(uint,long)
 0001:00001A90       CUEdit::SetDataSourceUnit(void)
 0001:00001AD0       CUEdit::RefrushState(void)
 0001:00001B00       loc_402B00
 0001:00001B20       CUEdit::RefrushFromDataSource(void)
 0001:00001B84       loc_402B84
 0001:00001BF0       CUEdit::OnChange(void)
 0001:00001C33       loc_402C33
 0001:00001C40       CUEdit::OnWindowPosChanged(tagWINDOWPOS *)
 0001:00001C7E       loc_402C7E
 0001:00001C90       CUEdit::CtlColor(CDC *,uint)
 0001:00001CC8       loc_402CC8
 0001:00001CD0       CUEdit::OnChar(uint,uint,uint)
 0001:00001CF0       loc_402CF0
 0001:00001CFF       loc_402CFF
 0001:00001D09       loc_402D09
 0001:00001D16       loc_402D16
 0001:00001D25       loc_402D25
 0001:00001D2A       locret_402D2A
 0001:00001D30       CUEdit::GetConvertContext(CString &)
 0001:00001D57       loc_402D57
 0001:00001D7F       loc_402D7F
 0001:00001D9B       loc_402D9B
 0001:00001DAB       loc_402DAB
 0001:00001DD6       loc_402DD6
 0001:00001DEF       loc_402DEF
 0001:00001DFA       loc_402DFA
 0001:00001E0D       loc_402E0D
 0001:00001E25       loc_402E25
 0001:00001E3E       loc_402E3E
 0001:00001E4D       loc_402E4D
 0001:00001E65       loc_402E65
 0001:00001E74       loc_402E74
 0001:00001E83       loc_402E83
 0001:00001E96       loc_402E96
 0001:00001EB4       loc_402EB4
 0001:00001ED4       loc_402ED4
 0001:00001EEF       loc_402EEF
 0001:00001F2D       loc_402F2D
 0001:00001F32       loc_402F32
 0001:00001F52       loc_402F52
 0001:00001F7F       loc_402F7F
 0001:00001F8C       off_402F8C
 0001:00001FB0       CUEdit::OnKillfocus(void)
 0001:00002033       loc_403033
 0001:00002090       CUEdit::OnSetfocus(void)
 0001:000020E0       CUEdit::OnShowWindow(int,uint)
 0001:0000210E       locret_40310E
 0001:00002120       CUEdit::OnSize(uint,int,int)
 0001:00002140       CPaneFrameWnd::OnMoving(uint,tagRECT *)
 0001:00002160       CUEdit::OnEnable(int)
 0001:00002184       locret_403184
 0001:00002190       CUEdit::AdjustSpinPos(void)
 0001:000021E0       loc_4031E0
 0001:000021FB       loc_4031FB
 0001:00002240       loc_403240
 0001:00002250       CUTab::OnInit2(uint,long)
 0001:00002260       CUTab::OnPaint(void)
 0001:000022EB       loc_4032EB
 0001:00002312       loc_403312
 0001:00002333       loc_403333
 0001:00002350       CUTab::GetCurTab(void)
 0001:00002364       loc_403364
 0001:00002380       CUTab::OnClick(tagNMHDR *,long *)
 0001:000023D0       CUTab::OnSelchanging(tagNMHDR *,long *)
 0001:0000243B       loc_40343B
 0001:00002450       CUTab::ChkCurChildTab(void)
 0001:00002488       loc_403488
 0001:000024E7       loc_4034E7
 0001:000024FB       loc_4034FB
 0001:00002500       CUTab::OnSelchange(tagNMHDR *,long *)
 0001:00002573       loc_403573
 0001:00002590       unknown_libname_195
 0001:000025A7       loc_4035A7
 0001:000025C0       CULabel::OnInit(uint,long)
 0001:000025DA       loc_4035DA
 0001:000025FE       loc_4035FE
 0001:00002602       loc_403602
 0001:00002607       loc_403607
 0001:0000260C       loc_40360C
 0001:00002613       loc_403613
 0001:00002620       CULabel::OnDllMsg(uint,long)
 0001:0000268E       loc_40368E
 0001:000026A0       CULabel::OnGetDSWnd(uint,long)
 0001:000026D0       CULabel::SetDataSourceUnit(void)
 0001:00002700       CULabel::RefrushFromDataSource(void)
 0001:00002764       loc_403764
 0001:000027C0       DrawUnitPic(int,CDC *,PIC_INFO *,CRect const &,CRect const &,CRgn *)
 0001:0000287F       loc_40387F
 0001:0000289C       loc_40389C
 0001:000028A6       loc_4038A6
 0001:000028D5       loc_4038D5
 0001:0000290B       loc_40390B
 0001:0000299A       loc_40399A
 0001:000029A8       loc_4039A8
 0001:000029B5       loc_4039B5
 0001:00002A28       loc_403A28
 0001:00002A3C       loc_403A3C
 0001:00002A53       loc_403A53
 0001:00002A67       loc_403A67
 0001:00002AEB       loc_403AEB
 0001:00002AF0       loc_403AF0
 0001:00002AFE       loc_403AFE
 0001:00002B10       sub_403B10
 0001:00002B28       loc_403B28
 0001:00002B30       unknown_libname_196
 0001:00002B70       CULabel::OnPaint(void)
 0001:00002C04       loc_403C04
 0001:00002C13       loc_403C13
 0001:00002C22       loc_403C22
 0001:00002C93       loc_403C93
 0001:00002CD4       loc_403CD4
 0001:00002D52       loc_403D52
 0001:00002D55       loc_403D55
 0001:00002D6D       loc_403D6D
 0001:00002D9C       loc_403D9C
 0001:00002DC0       loc_403DC0
 0001:00002DD2       loc_403DD2
 0001:00002DE4       loc_403DE4
 0001:00002E3C       loc_403E3C
 0001:00002E7D       loc_403E7D
 0001:00002EAE       loc_403EAE
 0001:00002EB1       loc_403EB1
 0001:00002EE1       loc_403EE1
 0001:00002F2A       loc_403F2A
 0001:00002F63       loc_403F63
 0001:00002F66       loc_403F66
 0001:00002F88       loc_403F88
 0001:00002F93       loc_403F93
 0001:00002FAA       loc_403FAA
 0001:00002FB4       loc_403FB4
 0001:00002FC2       loc_403FC2
 0001:00002FD2       loc_403FD2
 0001:00002FDC       loc_403FDC
 0001:00002FDF       loc_403FDF
 0001:0000302E       loc_40402E
 0001:0000307E       loc_40407E
 0001:000030C9       loc_4040C9
 0001:000030D7       loc_4040D7
 0001:0000313A       loc_40413A
 0001:00003143       loc_404143
 0001:00003170       CPicWnd::~CPicWnd(void)
 0001:000031C3       loc_4041C3
 0001:000031D6       loc_4041D6
 0001:000031DF       loc_4041DF
 0001:00003220       CPicWnd::`scalar deleting destructor'(uint)
 0001:00003238       loc_404238
 0001:00003240       CUPicBox::OnInit(uint,long)
 0001:0000325A       loc_40425A
 0001:0000327E       loc_40427E
 0001:00003282       loc_404282
 0001:00003287       loc_404287
 0001:0000328C       loc_40428C
 0001:00003293       loc_404293
 0001:000032A0       CUPicBox::OnDestroy(void)
 0001:000032C0       CUPicBox::OnGetDSWnd(uint,long)
 0001:000032F0       CUPicBox::SetDataSourceUnit(void)
 0001:00003320       CUPicBox::RefrushFromDataSource(void)
 0001:000033A6       loc_4043A6
 0001:000033E6       loc_4043E6
 0001:000033F9       loc_4043F9
 0001:00003408       loc_404408
 0001:00003419       loc_404419
 0001:0000341C       loc_40441C
 0001:00003450       CUShapeBox::OnPaint(void)
 0001:000034CB       loc_4044CB
 0001:00003507       loc_404507
 0001:00003513       loc_404513
 0001:0000351F       loc_40451F
 0001:0000352B       loc_40452B
 0001:00003538       loc_404538
 0001:00003547       loc_404547
 0001:0000354C       loc_40454C
 0001:000035A0       loc_4045A0
 0001:000035C1       loc_4045C1
 0001:000035DB       loc_4045DB
 0001:000035FC       loc_4045FC
 0001:00003600       loc_404600
 0001:00003604       loc_404604
 0001:0000367E       loc_40467E
 0001:0000369A       loc_40469A
 0001:000036B2       loc_4046B2
 0001:000036DD       loc_4046DD
 0001:000036F4       loc_4046F4
 0001:00003730       loc_404730
 0001:00003736       loc_404736
 0001:00003741       loc_404741
 0001:00003754       loc_404754
 0001:00003783       loc_404783
 0001:000037B2       loc_4047B2
 0001:00003802       loc_404802
 0001:00003836       loc_404836
 0001:00003868       loc_404868
 0001:0000387A       loc_40487A
 0001:0000391C       off_40491C
 0001:00003940       sub_404940
 0001:00003958       loc_404958
 0001:00003960       unknown_libname_197
 0001:000039A0       sub_4049A0
 0001:000039B8       loc_4049B8
 0001:000039C0       CUGroupBox::CtlColor(CDC *,uint)
 0001:000039F5       loc_4049F5
 0001:00003A00       CUGroupBox::OnEraseBkgnd(CDC *)
 0001:00003A2B       loc_404A2B
 0001:00003A3F       loc_404A3F
 0001:00003A50       CUButton::OnClicked(void)
 0001:00003A90       CUButton::OnKillFocus(CWnd *)
 0001:00003AE0       CUButton::OnSetFocus(CWnd *)
 0001:00003B30       unknown_libname_198
 0001:00003B71       loc_404B71
 0001:00003B79       loc_404B79
 0001:00003B7D       loc_404B7D
 0001:00003B82       loc_404B82
 0001:00003B87       loc_404B87
 0001:00003B8C       loc_404B8C
 0001:00003B91       loc_404B91
 0001:00003B96       loc_404B96
 0001:00003B9A       loc_404B9A
 0001:00003BA4       loc_404BA4
 0001:00003BA6       loc_404BA6
 0001:00003BAE       loc_404BAE
 0001:00003BB4       loc_404BB4
 0001:00003BF9       loc_404BF9
 0001:00003C04       off_404C04
 0001:00003C30       unknown_libname_199
 0001:00003C71       loc_404C71
 0001:00003C79       loc_404C79
 0001:00003C7D       loc_404C7D
 0001:00003C82       loc_404C82
 0001:00003C87       loc_404C87
 0001:00003C8C       loc_404C8C
 0001:00003C91       loc_404C91
 0001:00003C96       loc_404C96
 0001:00003C9A       loc_404C9A
 0001:00003CA4       loc_404CA4
 0001:00003CA6       loc_404CA6
 0001:00003CAE       loc_404CAE
 0001:00003CB4       loc_404CB4
 0001:00003CF9       loc_404CF9
 0001:00003D04       off_404D04
 0001:00003D30       unknown_libname_200
 0001:00003D80       unknown_libname_201
 0001:00003DD0       unknown_libname_202
 0001:00003E25       loc_404E25
 0001:00003E30       CUSliderBar::OnKillFocus(CWnd *)
 0001:00003E80       CUSliderBar::OnSetFocus(CWnd *)
 0001:00003ED0       CUAnimate::OnPaint(void)
 0001:00003EE5       loc_404EE5
 0001:00003EF0       CUDateTimePicker::OnInit(uint,long)
 0001:00003F0A       loc_404F0A
 0001:00003F2E       loc_404F2E
 0001:00003F32       loc_404F32
 0001:00003F37       loc_404F37
 0001:00003F3C       loc_404F3C
 0001:00003F43       loc_404F43
 0001:00003F50       CUDateTimePicker::OnDestroy(void)
 0001:00003F70       CUDateTimePicker::OnGetDSWnd(uint,long)
 0001:00003FA0       CUDateTimePicker::SetDataSourceUnit(void)
 0001:00003FE0       CUDateTimePicker::RefrushState(void)
 0001:00004005       loc_405005
 0001:00004020       CUDateTimePicker::RefrushFromDataSource(void)
 0001:00004086       loc_405086
 0001:000040B9       loc_4050B9
 0001:000040C3       loc_4050C3
 0001:00004100       CUDateTimePicker::OnMyDateTimeChange(uint,long)
 0001:00004170       loc_405170
 0001:00004190       CUDateTimePicker::OnDatetimechange(tagNMHDR *,long *)
 0001:000041B0       CUDateTimePicker::OnKillfocus(tagNMHDR *,long *)
 0001:00004210       CUDateTimePicker::OnSetfocus(tagNMHDR *,long *)
 0001:00004270       CUMonthCalCtrl::OnSelchange(tagNMHDR *,long *)
 0001:000042C0       CArchive::operator>>(uchar &)
 0001:000042DB       loc_4052DB
 0001:00004300       sub_405300
 0001:00004318       loc_405318
 0001:00004320       CUDrvBox::CtlColor(CDC *,uint)
 0001:00004355       loc_405355
 0001:00004360       CUDrvBox::OnKillfocus(void)
 0001:000043A0       CUDrvBox::OnSetfocus(void)
 0001:000043E0       CUDrvBox::OnSelendok(void)
 0001:0000440C       loc_40540C
 0001:0000441C       loc_40541C
 0001:00004460       CUDirTree::OnKillfocus(tagNMHDR *,long *)
 0001:000044C0       CUDirTree::OnSetfocus(tagNMHDR *,long *)
 0001:00004520       CUDirTree::CtlColor(CDC *,uint)
 0001:0000454A       loc_40554A
 0001:00004550       CUDirTree::AddDirsToTree(_TREEITEM *)
 0001:000045D2       loc_4055D2
 0001:0000460E       loc_40560E
 0001:00004622       loc_405622
 0001:00004692       loc_405692
 0001:000046D9       loc_4056D9
 0001:00004700       CUDirTree::BuildPathFromTree(_TREEITEM *)
 0001:00004764       loc_405764
 0001:000047F8       loc_4057F8
 0001:00004870       CUDirTree::DeleteChildren(_TREEITEM *)
 0001:000048BB       loc_4058BB
 0001:000048DB       loc_4058DB
 0001:000048E9       loc_4058E9
 0001:000048F0       CUDirTree::DeletePeers(_TREEITEM *)
 0001:00004911       loc_405911
 0001:00004931       loc_405931
 0001:00004943       loc_405943
 0001:00004963       loc_405963
 0001:00004970       CUDirTree::OnDblclk(tagNMHDR *,long *)
 0001:000049DC       loc_4059DC
 0001:000049F3       loc_4059F3
 0001:000049FD       loc_4059FD
 0001:00004A1B       loc_405A1B
 0001:00004A39       loc_405A39
 0001:00004A50       CUDirTree::OnKeyDown(uint,uint,uint)
 0001:00004A65       loc_405A65
 0001:00004A70       CUFileBox::OnKillfocus(void)
 0001:00004AC0       CUFileBox::OnSetfocus(void)
 0001:00004B10       CUFileBox::OnDblclk(void)
 0001:00004B60       CUFileBox::CtlColor(CDC *,uint)
 0001:00004B9B       loc_405B9B
 0001:00004BB0       CUFileBox::OnSelchange(void)
 0001:00004C11       loc_405C11
 0001:00004C45       loc_405C45
 0001:00004C51       loc_405C51
 0001:00004C5A       loc_405C5A
 0001:00004C6F       loc_405C6F
 0001:00004C8A       loc_405C8A
 0001:00004CBE       loc_405CBE
 0001:00004CE0       CUColorPicker::OnSelEndOK(uint,long)
 0001:00004D0E       loc_405D0E
 0001:00004D50       CUColorPicker::OnKillFocus(CWnd *)
 0001:00004DA0       CUColorPicker::OnSetFocus(CWnd *)
 0001:00004DF0       CUHyperLinker::OnLButtonDown(uint,CPoint)
 0001:00004E13       loc_405E13
 0001:00004E20       CUHyperLinker::OnMouseMove(uint,CPoint)
 0001:00004E7C       loc_405E7C
 0001:00004E9D       loc_405E9D
 0001:00004EC1       loc_405EC1
 0001:00004ED0       CUHyperLinker::GetRegKey(HKEY__ *,char const *,char *)
 0001:00004F32       loc_405F32
 0001:00004F40       CUHyperLinker::GotoURL(int)
 0001:00004FA6       loc_405FA6
 0001:00004FBE       loc_405FBE
 0001:00005078       loc_406078
 0001:000050AC       loc_4060AC
 0001:000050AF       loc_4060AF
 0001:000050CD       loc_4060CD
 0001:000050EF       loc_4060EF
 0001:00005110       CUHyperLinker::OnPaint(void)
 0001:0000518B       loc_40618B
 0001:00005223       loc_406223
 0001:0000522D       loc_40622D
 0001:00005249       loc_406249
 0001:00005256       loc_406256
 0001:00005259       loc_406259
 0001:000052A0       loc_4062A0
 0001:000052A3       loc_4062A3
 0001:000052C5       loc_4062C5
 0001:000052D0       loc_4062D0
 0001:00005380       CUSpin::OnDeltapos(tagNMHDR *,long *)
 0001:000053F0       CDC::ReleaseOutputDC(void)
 0001:00005400       unknown_libname_203
 0001:00005434       loc_406434
 0001:0000546B       loc_40646B
 0001:00005496       loc_406496
 0001:000054A6       loc_4064A6
 0001:000054BE       loc_4064BE
 0001:000054E5       loc_4064E5
 0001:000054EF       loc_4064EF
 0001:00005516       loc_406516
 0001:00005522       loc_406522
 0001:00005550       Create_Timer(uchar *,int,ulong,HWND__ *,uint,HMENU__ *,int,int,int,int,ulong,ulong,HWND__ *,int)
 0001:0000558C       loc_40658C
 0001:0000558E       loc_40658E
 0001:000055AE       loc_4065AE
 0001:000055E1       loc_4065E1
 0001:00005604       loc_406604
 0001:00005680       NotifyPropertyChanged_Timer(ulong,int,UNIT_PROPERTY_VALUE *,char * *)
 0001:00005697       loc_406697
 0001:000056D5       loc_4066D5
 0001:000056FB       loc_4066FB
 0001:00005702       loc_406702
 0001:00005710       GetPropertyData_Timer(ulong,int,UNIT_PROPERTY_VALUE *)
 0001:0000571B       loc_40671B
 0001:00005728       loc_406728
 0001:00005740       krnln_GetInterface_Timer(x)
 0001:00005751       loc_406751
 0001:0000575E       loc_40675E
 0001:0000576B       loc_40676B
 0001:00005780       CUTimer::CUTimer(void)
 0001:000057B0       sub_4067B0
 0001:000057C8       loc_4067C8
 0001:000057D0       sub_4067D0
 0001:000057E0       sub_4067E0
 0001:000057F0       CUTimer::PostNcDestroy(void)
 0001:00005817       loc_406817
 0001:00005820       CUTimer::OnTimer(uint)
 0001:00005870       CUTimer::OnCreate(tagCREATESTRUCTA *)
 0001:00005883       loc_406883
 0001:000058AA       loc_4068AA
 0001:000058B0       CUTimer::OnPaint(void)
 0001:000058C5       loc_4068C5
 0001:000058D0       CUTimer::OnDestroy(void)
 0001:000058F4       loc_4068F4
 0001:00005900       CUCommonDlg::OnPaint(void)
 0001:00005918       loc_406918
 0001:00005920       CFileDialog::~CFileDialog(void)
 0001:00005970       CUCheckBox::OnInit(uint,long)
 0001:0000598A       loc_40698A
 0001:000059AE       loc_4069AE
 0001:000059B2       loc_4069B2
 0001:000059B7       loc_4069B7
 0001:000059BC       loc_4069BC
 0001:000059C3       loc_4069C3
 0001:000059D0       CUCheckBox::OnDestroy(void)
 0001:000059F0       CUCheckBox::OnGetDSWnd(uint,long)
 0001:00005A20       CUCheckBox::SetDataSourceUnit(void)
 0001:00005A60       CUCheckBox::RefrushState(void)
 0001:00005A85       loc_406A85
 0001:00005AA0       CUCheckBox::RefrushFromDataSource(void)
 0001:00005B04       loc_406B04
 0001:00005B50       unknown_libname_204
 0001:00005BA0       CUCheckBox::CtlColor(CDC *,uint)
 0001:00005BD8       loc_406BD8
 0001:00005BE0       CURadio::OnClicked(void)
 0001:00005C23       loc_406C23
 0001:00005C30       CURadio::OnKillFocus(CWnd *)
 0001:00005C90       CURadio::OnSetFocus(CWnd *)
 0001:00005CF0       CURadio::CtlColor(CDC *,uint)
 0001:00005D28       loc_406D28
 0001:00005D30       CUComboBox::OnInit(uint,long)
 0001:00005D4A       loc_406D4A
 0001:00005D6E       loc_406D6E
 0001:00005D72       loc_406D72
 0001:00005D77       loc_406D77
 0001:00005D7C       loc_406D7C
 0001:00005D83       loc_406D83
 0001:00005D90       CUComboBox::OnDestroy(void)
 0001:00005DB0       CUComboBox::OnGetDSWnd(uint,long)
 0001:00005DE0       CUComboBox::SetDataSourceUnit(void)
 0001:00005E20       CUComboBox::RefrushState(void)
 0001:00005E45       loc_406E45
 0001:00005E60       CUComboBox::RefrushFromDataSource(void)
 0001:00005EC4       loc_406EC4
 0001:00005EFA       loc_406EFA
 0001:00005F25       loc_406F25
 0001:00005F60       CUComboBox::OnKillfocus(void)
 0001:00005FB0       CUComboBox::OnSetfocus(void)
 0001:00006000       CUComboBox::OnCloseup(void)
 0001:00006050       CUComboBox::OnDropdown(void)
 0001:000060A0       CUComboBox::OnDblclk(void)
 0001:000060F0       CUComboBox::OnEditchange(void)
 0001:00006137       loc_407137
 0001:00006140       CUComboBox::OnSelendok(void)
 0001:0000615D       locret_40715D
 0001:00006160       CUComboBox::OnSelendOkNotify(void)
 0001:000061A3       loc_4071A3
 0001:000061B0       CUComboBox::CtlColor(CDC *,uint)
 0001:000061E8       loc_4071E8
 0001:000061F0       CUComboBox::OnEraseBkgnd(CDC *)
 0001:00006225       loc_407225
 0001:00006239       loc_407239
 0001:00006250       CUListBox::OnInit(uint,long)
 0001:0000626A       loc_40726A
 0001:0000628E       loc_40728E
 0001:00006292       loc_407292
 0001:00006297       loc_407297
 0001:0000629C       loc_40729C
 0001:000062A3       loc_4072A3
 0001:000062B0       unknown_libname_205
 0001:000062D0       CUListBox::OnGetDSWnd(uint,long)
 0001:00006300       CUListBox::SetDataSourceUnit(void)
 0001:00006340       CUListBox::RefrushState(void)
 0001:00006365       loc_407365
 0001:00006380       CUListBox::RefrushFromDataSource(void)
 0001:000063E4       loc_4073E4
 0001:00006419       loc_407419
 0001:00006450       CUListBox::CtlColor(CDC *,uint)
 0001:00006488       loc_407488
 0001:00006490       CUListBox::OnSelchange(void)
 0001:000064D3       loc_4074D3
 0001:000064E0       CUListBox::OnKillfocus(void)
 0001:00006530       CUListBox::OnSetfocus(void)
 0001:00006580       CUListBox::OnDblclk(void)
 0001:000065D0       sub_4075D0
 0001:000065E8       loc_4075E8
 0001:000065F0       unknown_libname_206
 0001:00006630       unknown_libname_207
 0001:00006680       unknown_libname_208
 0001:000066C0       CUChkListBox::OnDblclk(void)
 0001:00006710       CUChkListBox::SaveCurSel(void)
 0001:00006747       loc_407747
 0001:0000675D       loc_40775D
 0001:00006763       loc_407763
 0001:00006770       CUChkListBox::ProcessOnlyOne(void)
 0001:000067B0       loc_4077B0
 0001:000067C4       loc_4077C4
 0001:000067C8       loc_4077C8
 0001:000067E9       loc_4077E9
 0001:000067F7       loc_4077F7
 0001:000067F9       loc_4077F9
 0001:0000680E       loc_40780E
 0001:00006817       loc_407817
 0001:0000683C       loc_40783C
 0001:00006846       loc_407846
 0001:0000689E       loc_40789E
 0001:000068B5       loc_4078B5
 0001:000068B7       loc_4078B7
 0001:00006916       loc_407916
 0001:0000692E       loc_40792E
 0001:00006969       loc_407969
 0001:000069A0       loc_4079A0
 0001:000069AA       loc_4079AA
 0001:00006A2E       loc_407A2E
 0001:00006A45       loc_407A45
 0001:00006A47       loc_407A47
 0001:00006AA6       loc_407AA6
 0001:00006ABE       loc_407ABE
 0001:00006AF9       loc_407AF9
 0001:00006B30       loc_407B30
 0001:00006B3A       loc_407B3A
 0001:00006B70       CUChkListBox::OnLButtonDblClk(uint,CPoint)
 0001:00006BBE       loc_407BBE
 0001:00006BD5       loc_407BD5
 0001:00006BD7       loc_407BD7
 0001:00006C36       loc_407C36
 0001:00006C4E       loc_407C4E
 0001:00006C89       loc_407C89
 0001:00006CC0       loc_407CC0
 0001:00006CCA       loc_407CCA
 0001:00006D10       unknown_libname_209
 0001:00006EA0       CUDrawPanel::ClearPanel(CDC *,CRect &)
 0001:00006EF4       loc_407EF4
 0001:00006EF7       loc_407EF7
 0001:00006F0F       loc_407F0F
 0001:00006F1D       loc_407F1D
 0001:00006FC5       loc_407FC5
 0001:00006FC8       loc_407FC8
 0001:00006FF4       loc_407FF4
 0001:00007006       loc_408006
 0001:00007074       loc_408074
 0001:00007079       loc_408079
 0001:00007090       CUDrawPanel::OnPaint(void)
 0001:0000719B       loc_40819B
 0001:0000719E       loc_40819E
 0001:00007227       loc_408227
 0001:0000722F       loc_40822F
 0001:00007232       loc_408232
 0001:00007252       loc_408252
 0001:00007328       loc_408328
 0001:00007360       CUDrawPanel::OnSize(uint,int,int)
 0001:00007390       CUDrawPanel::OnMouseActivate(CWnd *,uint,uint)
 0001:00007482       loc_408482
 0001:0000748E       loc_40848E
 0001:000074A0       CUDrawPanel::ReCreateBitmap(int)
 0001:000074FB       loc_4084FB
 0001:0000750F       loc_40850F
 0001:000075B9       loc_4085B9
 0001:000075BC       loc_4085BC
 0001:000075D4       loc_4085D4
 0001:00007684       loc_408684
 0001:00007687       loc_408687
 0001:000076BB       loc_4086BB
 0001:000076D1       loc_4086D1
 0001:00007733       loc_408733
 0001:00007775       loc_408775
 0001:000077E1       loc_4087E1
 0001:000077E4       loc_4087E4
 0001:000077FB       loc_4087FB
 0001:00007805       loc_408805
 0001:00007835       loc_408835
 0001:00007851       loc_408851
 0001:00007858       loc_408858
 0001:00007865       loc_408865
 0001:000078BF       loc_4088BF
 0001:000078F0       unknown_libname_210
 0001:00007CA0       fnCallNewPage(void *)
 0001:00007D1B       loc_408D1B
 0001:00007D60       loc_408D60
 0001:00007D6B       loc_408D6B
 0001:00007D8B       loc_408D8B
 0001:00007D92       loc_408D92
 0001:00007DA0       fnPrintBeginDraw(void *,int)
 0001:00007DC1       loc_408DC1
 0001:00007E06       loc_408E06
 0001:00007E17       loc_408E17
 0001:00007E20       fnPrintEndDraw(void *)
 0001:00007E30       CUPrinter::OnGetPrintInfo(uint,long)
 0001:00007E79       loc_408E79
 0001:00007E80       CUPrinter::OnPaint(void)
 0001:00007E98       loc_408E98
 0001:00007EA0       CUPrinter::SetPrinterDCMapMode(void)
 0001:00007EC0       CUPrinter::_BeginDraw(int)
 0001:00007EF3       loc_408EF3
 0001:00007EF6       loc_408EF6
 0001:00007F0D       loc_408F0D
 0001:00007F1E       loc_408F1E
 0001:00007F37       loc_408F37
 0001:00007F3A       loc_408F3A
 0001:00007F57       loc_408F57
 0001:00007F68       loc_408F68
 0001:00007F81       loc_408F81
 0001:00007F84       loc_408F84
 0001:00007FA5       loc_408FA5
 0001:00007FB6       loc_408FB6
 0001:00007FC2       loc_408FC2
 0001:00007FC5       loc_408FC5
 0001:00007FE6       loc_408FE6
 0001:0000800E       loc_40900E
 0001:00008031       loc_409031
 0001:00008050       loc_409050
 0001:00008075       loc_409075
 0001:00008078       loc_409078
 0001:00008099       loc_409099
 0001:000080C5       loc_4090C5
 0001:000080E4       loc_4090E4
 0001:000080F0       CUPrinter::_EndDraw(void)
 0001:00008121       locret_409121
 0001:00008130       CUPrinter::AbortPrint(void)
 0001:00008168       loc_409168
 0001:00008187       loc_409187
 0001:000081A3       loc_4091A3
 0001:000081B0       CDaoRecordset::ResetCursor(void)
 0001:000081D0       CUUDPSock::OnPaint(void)
 0001:000081E5       loc_4091E5
 0001:000081F0       CUClientSock::OnPaint(void)
 0001:00008205       loc_409205
 0001:00008210       CUServerSock::OnPaint(void)
 0001:00008228       loc_409228
 0001:00008230       CUSerialPort::OnPaint(void)
 0001:00008248       loc_409248
 0001:00008250       CUDataSource::OnPaint(void)
 0001:000082B5       loc_4092B5
 0001:000082DC       loc_4092DC
 0001:00008300       CUDataSource::OnDestroy(void)
 0001:00008379       loc_409379
 0001:0000838B       loc_40938B
 0001:0000839F       loc_40939F
 0001:000083B0       CUDataSource::SetProviderUnit(void)
 0001:000083D0       CUDataSource::OnInit(uint,long)
 0001:000083E1       loc_4093E1
 0001:00008456       loc_409456
 0001:000084B4       loc_4094B4
 0001:000084B7       loc_4094B7
 0001:000084C0       CUDataSource::OnGetColCount(uint,long)
 0001:000084D0       CUDataSource::OnGetColName(uint,long)
 0001:00008570       CUProvider::OnInit(uint,long)
 0001:0000858C       loc_40958C
 0001:000085A0       CUProvider::OnPaint(void)
 0001:000085B5       loc_4095B5
 0001:000085C0       CUGrid::OnKillFocus(CWnd *)
 0001:00008610       CUGrid::OnSetFocus(CWnd *)
 0001:00008660       CUGrid::OnInit(uint,long)
 0001:00008673       loc_409673
 0001:00008697       loc_409697
 0001:0000869B       loc_40969B
 0001:000086A0       loc_4096A0
 0001:000086A6       loc_4096A6
 0001:000086AD       loc_4096AD
 0001:000086C0       CUGrid::OnDestroy(void)
 0001:000086E0       CUGrid::SetDataSourceUnit(void)
 0001:00008710       CUGrid::OnPaint(void)
 0001:0000878C       loc_40978C
 0001:00008805       loc_409805
 0001:00008826       loc_409826
 0001:00008840       CUBaseProvider::OnInit(uint,long)
 0001:00008857       loc_409857
 0001:000088C3       loc_4098C3
 0001:00008911       loc_409911
 0001:00008931       loc_409931
 0001:00008935       loc_409935
 0001:0000893A       loc_40993A
 0001:0000894E       loc_40994E
 0001:00008954       loc_409954
 0001:00008960       CUBaseProvider::OnDestroy(void)
 0001:00008986       locret_409986
 0001:00008990       CUDBProvider::OnPaint(void)
 0001:000089A5       loc_4099A5
 0001:000089B0       CUODBCDB::OnPaint(void)
 0001:000089C5       loc_4099C5
 0001:000089D0       CUODBCProvider::OnPaint(void)
 0001:000089E5       loc_4099E5
 0001:000089F0       CUODBCProvider::OnGetODBCTalbesName(uint,long)
 0001:00008A03       loc_409A03
 0001:00008A30       loc_409A30
 0001:00008A40       CUODBCProvider::OnGetODBCConnectStr(uint,long)
 0001:00008AA5       loc_409AA5
 0001:00008ABB       loc_409ABB
 0001:00008AD0       unknown_libname_211
 0001:00008AEB       loc_409AEB
 0001:00008AF0       CUErrorControl::OnPaint(void)
 0001:00008BB0       GetIDSubType(ulong)
 0001:00008BC0       GetIDGroupType(ulong)
 0001:00008BD0       GetIDVaule(ulong)
 0001:00008BE0       IsValidateID(ulong)
 0001:00008C06       loc_409C06
 0001:00008C10       CIDManger::CopyFrom(CIDManger *)
 0001:00008C40       loc_409C40
 0001:00008C50       CIDManger::xchg(CIDManger *)
 0001:00008C80       CIDManger::GetIDData(int,int *)
 0001:00008C97       loc_409C97
 0001:00008C9A       loc_409C9A
 0001:00008CB7       loc_409CB7
 0001:00008CBE       loc_409CBE
 0001:00008CD0       CIDManger::GetID(int)
 0001:00008CEA       loc_409CEA
 0001:00008CF3       loc_409CF3
 0001:00008D00       CIDManger::FindIDData(ulong,int *,int *)
 0001:00008D1C       loc_409D1C
 0001:00008D27       loc_409D27
 0001:00008D2A       loc_409D2A
 0001:00008D39       loc_409D39
 0001:00008D53       loc_409D53
 0001:00008D6B       loc_409D6B
 0001:00008D72       loc_409D72
 0001:00008D7C       loc_409D7C
 0001:00008D88       loc_409D88
 0001:00008DA0       CIDManger::_Replace(int,int,int,uchar *,int)
 0001:00008DB2       loc_409DB2
 0001:00008DB5       loc_409DB5
 0001:00008DDD       loc_409DDD
 0001:00008E0A       loc_409E0A
 0001:00008E0D       loc_409E0D
 0001:00008E30       CIDManger::AddID(uchar *,int,ulong)
 0001:00008EA1       loc_409EA1
 0001:00008EC0       CIDManger::AddSpecID(ulong,uchar *,int)
 0001:00008F1D       loc_409F1D
 0001:00008F30       CIDManger::InsertSpecID(int,ulong,uchar *,int)
 0001:00008F49       loc_409F49
 0001:00008F6C       loc_409F6C
 0001:00008F9E       loc_409F9E
 0001:00008FA1       loc_409FA1
 0001:00008FF0       loc_409FF0
 0001:00008FF3       loc_409FF3
 0001:00009020       CIDManger::InsertID(int,uchar *,int,ulong)
 0001:00009060       CIDManger::Serialize(CArchive &)
 0001:00009091       loc_40A091
 0001:000090B0       loc_40A0B0
 0001:000090C8       loc_40A0C8
 0001:000090F0       CIDDWordManger::FindIDByData(ulong)
 0001:000090FC       loc_40A0FC
 0001:000090FF       loc_40A0FF
 0001:0000910D       loc_40A10D
 0001:0000912A       loc_40A12A
 0001:00009140       CIDDWordManger::GetIDData(int,ulong *)
 0001:0000915B       loc_40A15B
 0001:0000915E       loc_40A15E
 0001:00009171       loc_40A171
 0001:00009180       CIDDWordManger::FindIDData(ulong,ulong *,int *)
 0001:0000919C       loc_40A19C
 0001:000091A7       loc_40A1A7
 0001:000091AA       loc_40A1AA
 0001:000091BA       loc_40A1BA
 0001:000091CB       loc_40A1CB
 0001:000091E4       loc_40A1E4
 0001:000091FC       loc_40A1FC
 0001:00009206       loc_40A206
 0001:00009215       loc_40A215
 0001:00009220       CIDDWordManger::InsertFrom(int,CIDDWordManger *,int,int)
 0001:0000923C       loc_40A23C
 0001:0000925D       loc_40A25D
 0001:00009277       loc_40A277
 0001:0000927F       loc_40A27F
 0001:000092CD       loc_40A2CD
 0001:000092E0       CIDDWordManger::AppendFrom(CIDDWordManger *)
 0001:00009300       CIDDWordManger::Serialize(CArchive &)
 0001:00009317       loc_40A317
 0001:00009330       IsMenuItemID(ulong)
 0001:0000935C       loc_40A35C
 0001:00009360       CWinUnitIDManger::IsMenuItem(int)
 0001:00009380       CWinUnitIDManger::GetUnitData(uchar *,int *)
 0001:000093A1       loc_40A3A1
 0001:000093B0       GetUnitDataPtr(CWinUnitIDManger *,uchar *)
 0001:00009400       CWinUnitIDManger::ChkTabVisible(uchar *,int,int)
 0001:0000947D       loc_40A47D
 0001:0000949E       loc_40A49E
 0001:000094B0       loc_40A4B0
 0001:0000952A       loc_40A52A
 0001:00009533       loc_40A533
 0001:00009542       loc_40A542
 0001:0000954F       loc_40A54F
 0001:00009553       loc_40A553
 0001:0000956D       loc_40A56D
 0001:00009571       loc_40A571
 0001:0000960E       loc_40A60E
 0001:0000961D       loc_40A61D
 0001:00009621       loc_40A621
 0001:0000967C       loc_40A67C
 0001:00009695       loc_40A695
 0001:0000969D       loc_40A69D
 0001:00009713       loc_40A713
 0001:0000971C       loc_40A71C
 0001:00009726       loc_40A726
 0001:0000973D       loc_40A73D
 0001:00009750       CWinUnitIDManger::GetMenuCount(int *)
 0001:0000975A       loc_40A75A
 0001:0000977F       loc_40A77F
 0001:00009784       loc_40A784
 0001:00009787       loc_40A787
 0001:00009792       loc_40A792
 0001:0000979C       loc_40A79C
 0001:000097B0       CWinUnitIDManger::~CWinUnitIDManger(void)
 0001:000097F0       loc_40A7F0
 0001:000097F4       loc_40A7F4
 0001:00009817       loc_40A817
 0001:00009857       loc_40A857
 0001:0000987D       loc_40A87D
 0001:00009886       loc_40A886
 0001:0000988F       loc_40A88F
 0001:000098A3       loc_40A8A3
 0001:000098F0       CIDManger::~CIDManger(void)
 0001:00009950       CIDManger::init(void)
 0001:00009960       CIDManger::GetNameStr(uchar *)
 0001:00009970       CIDManger::`scalar deleting destructor'(uint)
 0001:00009988       loc_40A988
 0001:00009990       CWinUnitIDManger::AddID(uchar *,int,ulong)
 0001:000099B0       CWinUnitIDManger::InsertID(int,uchar *,int,ulong)
 0001:000099E0       CWinUnitIDManger::GetNameStr(uchar *)
 0001:000099F0       CWinUnitIDManger::`scalar deleting destructor'(uint)
 0001:00009A08       loc_40AA08
 0001:00009A10       CWinForm::FindUnit(HWND__ *,int)
 0001:00009A2A       loc_40AA2A
 0001:00009A2C       loc_40AA2C
 0001:00009A67       loc_40AA67
 0001:00009A97       loc_40AA97
 0001:00009A9B       loc_40AA9B
 0001:00009A9E       loc_40AA9E
 0001:00009AC5       loc_40AAC5
 0001:00009AD2       loc_40AAD2
 0001:00009AD6       loc_40AAD6
 0001:00009AF0       CWinForm::Serialize(CArchive &)
 0001:00009B1C       loc_40AB1C
 0001:00009B44       loc_40AB44
 0001:00009B57       loc_40AB57
 0001:00009B6F       loc_40AB6F
 0001:00009B93       loc_40AB93
 0001:00009BA2       loc_40ABA2
 0001:00009BD0       CWinForm::ClearAllRadio(HWND__ *)
 0001:00009BF7       loc_40ABF7
 0001:00009C48       loc_40AC48
 0001:00009C55       loc_40AC55
 0001:00009C60       CWinIDManger::init(void)
 0001:00009C68       loc_40AC68
 0001:00009C96       loc_40AC96
 0001:00009CB0       CWinForm::~CWinForm(void)
 0001:00009D20       CWinIDManger::Serialize(CArchive &)
 0001:00009D42       loc_40AD42
 0001:00009D45       loc_40AD45
 0001:00009D65       loc_40AD65
 0001:00009DC0       loc_40ADC0
 0001:00009DC2       loc_40ADC2
 0001:00009DE7       loc_40ADE7
 0001:00009DED       loc_40ADED
 0001:00009DFB       loc_40ADFB
 0001:00009E10       CWinIDManger::GetWnd(int)
 0001:00009E69       loc_40AE69
 0001:00009E70       CloneTextData(char *)
 0001:00009EB7       loc_40AEB7
 0001:00009EC0       CloneBinData(uchar *,int)
 0001:00009ECD       loc_40AECD
 0001:00009F10       sub_40AF10
 0001:00009F20       CKrnlApp::InitInstance(void)
 0001:00009F70       CKrnlApp::CKrnlApp(void)
 0001:0000A2A0       std::strstreambuf::~strstreambuf(void)
 0001:0000A310       CIDDWordManger::~CIDDWordManger(void)
 0001:0000A370       CIDDWordManger::init(void)
 0001:0000A380       CIDDWordManger::`scalar deleting destructor'(uint)
 0001:0000A398       loc_40B398
 0001:0000A3A0       sub_40B3A0
 0001:0000A3B8       loc_40B3B8
 0001:0000A3C0       CDllFunc::~CDllFunc(void)
 0001:0000A3D6       locret_40B3D6
 0001:0000A3E0       CDllFunc::`scalar deleting destructor'(uint)
 0001:0000A3F9       loc_40B3F9
 0001:0000A409       loc_40B409
 0001:0000A410       sub_40B410
 0001:0000A428       loc_40B428
 0001:0000A430       sub_40B430
 0001:0000A440       CKrnlApp::`scalar deleting destructor'(uint)
 0001:0000A458       loc_40B458
 0001:0000A460       CKrnlApp::~CKrnlApp(void)
 0001:0000A4DC       loc_40B4DC
 0001:0000A51D       loc_40B51D
 0001:0000A53E       loc_40B53E
 0001:0000A7B0       CKrnlApp::ExitInstance(void)
 0001:0000A7D0       CKrnlApp::IsEWin(HWND__ *)
 0001:0000A7FA       loc_40B7FA
 0001:0000A812       loc_40B812
 0001:0000A86C       loc_40B86C
 0001:0000A880       CKrnlApp::Notify(int,ulong,ulong)
 0001:0000A8CA       loc_40B8CA
 0001:0000A8DB       loc_40B8DB
 0001:0000A8F0       loc_40B8F0
 0001:0000A8FB       loc_40B8FB
 0001:0000A90E       loc_40B90E
 0001:0000A922       loc_40B922
 0001:0000A92C       loc_40B92C
 0001:0000A94D       loc_40B94D
 0001:0000A977       loc_40B977
 0001:0000A9BC       loc_40B9BC
 0001:0000AA01       loc_40BA01
 0001:0000AA2E       loc_40BA2E
 0001:0000AA45       loc_40BA45
 0001:0000AA5D       loc_40BA5D
 0001:0000AA73       loc_40BA73
 0001:0000AA87       loc_40BA87
 0001:0000AAC8       loc_40BAC8
 0001:0000AAEB       loc_40BAEB
 0001:0000AAFC       loc_40BAFC
 0001:0000AB8A       loc_40BB8A
 0001:0000ABA9       loc_40BBA9
 0001:0000ABE1       loc_40BBE1
 0001:0000ABF7       loc_40BBF7
 0001:0000AC08       loc_40BC08
 0001:0000AC57       loc_40BC57
 0001:0000AC66       loc_40BC66
 0001:0000ACA9       loc_40BCA9
 0001:0000ACC8       loc_40BCC8
 0001:0000ACD3       loc_40BCD3
 0001:0000ACDE       loc_40BCDE
 0001:0000AD11       loc_40BD11
 0001:0000AD8A       loc_40BD8A
 0001:0000AD9C       loc_40BD9C
 0001:0000ADBD       loc_40BDBD
 0001:0000ADCE       loc_40BDCE
 0001:0000ADDF       loc_40BDDF
 0001:0000AE22       loc_40BE22
 0001:0000AE34       loc_40BE34
 0001:0000AE3C       loc_40BE3C
 0001:0000AE6E       loc_40BE6E
 0001:0000AE8B       loc_40BE8B
 0001:0000AEF0       loc_40BEF0
 0001:0000AEFC       loc_40BEFC
 0001:0000AF28       loc_40BF28
 0001:0000AF36       loc_40BF36
 0001:0000AF65       loc_40BF65
 0001:0000AF9F       loc_40BF9F
 0001:0000AFAC       loc_40BFAC
 0001:0000AFBB       loc_40BFBB
 0001:0000AFC7       loc_40BFC7
 0001:0000AFF9       loc_40BFF9
 0001:0000B006       loc_40C006
 0001:0000B077       loc_40C077
 0001:0000B08A       loc_40C08A
 0001:0000B098       loc_40C098
 0001:0000B0D9       loc_40C0D9
 0001:0000B0EC       loc_40C0EC
 0001:0000B10F       loc_40C10F
 0001:0000B11D       loc_40C11D
 0001:0000B126       loc_40C126
 0001:0000B12C       loc_40C12C
 0001:0000B13D       loc_40C13D
 0001:0000B14B       loc_40C14B
 0001:0000B165       loc_40C165
 0001:0000B177       loc_40C177
 0001:0000B189       loc_40C189
 0001:0000B1A0       loc_40C1A0
 0001:0000B1B2       loc_40C1B2
 0001:0000B1D9       loc_40C1D9
 0001:0000B1EB       loc_40C1EB
 0001:0000B1F6       loc_40C1F6
 0001:0000B204       loc_40C204
 0001:0000B238       loc_40C238
 0001:0000B24A       loc_40C24A
 0001:0000B25C       loc_40C25C
 0001:0000B298       loc_40C298
 0001:0000B301       loc_40C301
 0001:0000B375       loc_40C375
 0001:0000B448       loc_40C448
 0001:0000B4AC       loc_40C4AC
 0001:0000B4B3       loc_40C4B3
 0001:0000B4FD       loc_40C4FD
 0001:0000B51D       loc_40C51D
 0001:0000B524       loc_40C524
 0001:0000B526       loc_40C526
 0001:0000B53C       off_40C53C
 0001:0000B578       off_40C578
 0001:0000B620       CKrnlApp::ShowSpecWindow(ulong,int)
 0001:0000B6C6       loc_40C6C6
 0001:0000B710       loc_40C710
 0001:0000B75E       loc_40C75E
 0001:0000B761       loc_40C761
 0001:0000B78F       loc_40C78F
 0001:0000B793       loc_40C793
 0001:0000B7AF       loc_40C7AF
 0001:0000B7D7       loc_40C7D7
 0001:0000B7E0       CKrnlApp::InitManyMusicPlay(void)
 0001:0000B820       CKrnlApp::CloseAllFile(void)
 0001:0000B858       loc_40C858
 0001:0000B888       loc_40C888
 0001:0000B894       loc_40C894
 0001:0000B89D       loc_40C89D
 0001:0000B8CB       loc_40C8CB
 0001:0000B8D7       loc_40C8D7
 0001:0000B8DD       loc_40C8DD
 0001:0000B8F5       loc_40C8F5
 0001:0000B920       CKrnlApp::PlayMusic(uchar *,int,int)
 0001:0000B951       loc_40C951
 0001:0000B959       loc_40C959
 0001:0000B973       loc_40C973
 0001:0000B99B       loc_40C99B
 0001:0000B99E       loc_40C99E
 0001:0000B9C1       loc_40C9C1
 0001:0000B9D0       CKrnlApp::ShowFormWindow(ulong,CWinForm *,int)
 0001:0000BA33       loc_40CA33
 0001:0000BA43       loc_40CA43
 0001:0000BA45       loc_40CA45
 0001:0000BA4A       loc_40CA4A
 0001:0000BA7F       loc_40CA7F
 0001:0000BAC3       loc_40CAC3
 0001:0000BAC7       loc_40CAC7
 0001:0000BACE       loc_40CACE
 0001:0000BAE0       CreateWin(x,x,x,x,x)
 0001:0000BB71       loc_40CB71
 0001:0000BB73       loc_40CB73
 0001:0000BB86       loc_40CB86
 0001:0000BBAF       loc_40CBAF
 0001:0000BBD1       loc_40CBD1
 0001:0000BBEB       loc_40CBEB
 0001:0000BC61       loc_40CC61
 0001:0000BCAB       loc_40CCAB
 0001:0000BCE4       loc_40CCE4
 0001:0000BDD7       loc_40CDD7
 0001:0000BDF3       loc_40CDF3
 0001:0000BE0E       loc_40CE0E
 0001:0000BE1E       loc_40CE1E
 0001:0000BECF       loc_40CECF
 0001:0000BF2D       loc_40CF2D
 0001:0000BF61       loc_40CF61
 0001:0000BF69       loc_40CF69
 0001:0000BFC9       loc_40CFC9
 0001:0000BFF5       loc_40CFF5
 0001:0000C004       loc_40D004
 0001:0000C00F       loc_40D00F
 0001:0000C01A       loc_40D01A
 0001:0000C029       loc_40D029
 0001:0000C038       loc_40D038
 0001:0000C041       loc_40D041
 0001:0000C07A       loc_40D07A
 0001:0000C089       loc_40D089
 0001:0000C098       loc_40D098
 0001:0000C0A7       loc_40D0A7
 0001:0000C0B2       loc_40D0B2
 0001:0000C10F       loc_40D10F
 0001:0000C113       loc_40D113
 0001:0000C11A       loc_40D11A
 0001:0000C146       loc_40D146
 0001:0000C155       loc_40D155
 0001:0000C15F       loc_40D15F
 0001:0000C178       loc_40D178
 0001:0000C17E       loc_40D17E
 0001:0000C192       loc_40D192
 0001:0000C197       loc_40D197
 0001:0000C19B       loc_40D19B
 0001:0000C1BF       loc_40D1BF
 0001:0000C1EE       loc_40D1EE
 0001:0000C221       loc_40D221
 0001:0000C227       loc_40D227
 0001:0000C23B       loc_40D23B
 0001:0000C241       loc_40D241
 0001:0000C251       loc_40D251
 0001:0000C298       loc_40D298
 0001:0000C29A       loc_40D29A
 0001:0000C30F       loc_40D30F
 0001:0000C317       loc_40D317
 0001:0000C329       loc_40D329
 0001:0000C387       loc_40D387
 0001:0000C38D       loc_40D38D
 0001:0000C38F       loc_40D38F
 0001:0000C3BC       loc_40D3BC
 0001:0000C3DD       loc_40D3DD
 0001:0000C3F2       loc_40D3F2
 0001:0000C53D       loc_40D53D
 0001:0000C56C       loc_40D56C
 0001:0000C610       loc_40D610
 0001:0000C62C       loc_40D62C
 0001:0000C68A       loc_40D68A
 0001:0000C68E       loc_40D68E
 0001:0000C692       loc_40D692
 0001:0000C6B2       loc_40D6B2
 0001:0000C6C0       loc_40D6C0
 0001:0000C710       CKrnlApp::OnIdle(long)
 0001:0000C741       loc_40D741
 0001:0000C76A       loc_40D76A
 0001:0000C78C       loc_40D78C
 0001:0000C79D       loc_40D79D
 0001:0000C7C7       loc_40D7C7
 0001:0000C800       loc_40D800
 0001:0000C81C       loc_40D81C
 0001:0000C824       loc_40D824
 0001:0000C829       loc_40D829
 0001:0000C840       unknown_libname_212
 0001:0000C84A       unknown_libname_1
 0001:0000C860       CKrnlApp::IsHaveVaildateWinForm(void)
 0001:0000C873       loc_40D873
 0001:0000C8CA       loc_40D8CA
 0001:0000C8E0       CKrnlApp::LoadBeginWin(ulong)
 0001:0000C914       loc_40D914
 0001:0000C922       loc_40D922
 0001:0000C930       CKrnlApp::RegisterIdleCallBack(HWND__ *,void (*)(void *),void *)
 0001:0000C973       loc_40D973
 0001:0000C99F       loc_40D99F
 0001:0000C9B0       CKrnlApp::UnregisterIdleCallBack(HWND__ *)
 0001:0000CA15       loc_40DA15
 0001:0000CA20       CKrnlApp::UnregisterAllIdleCallBack(void)
 0001:0000CA50       CKrnlApp::MessageLoop(int)
 0001:0000CA67       loc_40DA67
 0001:0000CA74       loc_40DA74
 0001:0000CA9D       loc_40DA9D
 0001:0000CADD       loc_40DADD
 0001:0000CAF3       loc_40DAF3
 0001:0000CAFB       loc_40DAFB
 0001:0000CB16       loc_40DB16
 0001:0000CB25       loc_40DB25
 0001:0000CB2F       loc_40DB2F
 0001:0000CB3E       loc_40DB3E
 0001:0000CB56       loc_40DB56
 0001:0000CB71       loc_40DB71
 0001:0000CB85       loc_40DB85
 0001:0000CB90       CKrnlApp::DoEvents(void)
 0001:0000CBAD       loc_40DBAD
 0001:0000CBD3       loc_40DBD3
 0001:0000CBE0       CKrnlApp::AllocID(void)
 0001:0000CBF0       CKrnlApp::ReCreateUnit(ulong,CWinForm *,int)
 0001:0000CC95       loc_40DC95
 0001:0000CC9C       loc_40DC9C
 0001:0000CD15       loc_40DD15
 0001:0000CD29       loc_40DD29
 0001:0000CD2C       loc_40DD2C
 0001:0000CDCD       loc_40DDCD
 0001:0000CDE6       loc_40DDE6
 0001:0000CDF9       loc_40DDF9
 0001:0000CE0F       loc_40DE0F
 0001:0000CE28       loc_40DE28
 0001:0000CE8E       loc_40DE8E
 0001:0000CEAA       loc_40DEAA
 0001:0000CEE9       loc_40DEE9
 0001:0000CF15       loc_40DF15
 0001:0000CF3B       loc_40DF3B
 0001:0000CF46       loc_40DF46
 0001:0000CF4A       loc_40DF4A
 0001:0000CF58       loc_40DF58
 0001:0000CF70       CKrnlApp::SetUnitLayout(CWinForm *,int)
 0001:0000D000       loc_40E000
 0001:0000D016       loc_40E016
 0001:0000D020       CKrnlApp::FindAboveLayoutUnitIndex(CWinForm *,int)
 0001:0000D05D       loc_40E05D
 0001:0000D090       loc_40E090
 0001:0000D096       loc_40E096
 0001:0000D0A0       loc_40E0A0
 0001:0000D0B0       CKrnlApp::FreeNextCallDllCmdInf(void)
 0001:0000D0D0       CKrnlApp::GetDllCmdAdr(int)
 0001:0000D115       loc_40E115
 0001:0000D12D       loc_40E12D
 0001:0000D12F       loc_40E12F
 0001:0000D176       loc_40E176
 0001:0000D193       loc_40E193
 0001:0000D1C9       loc_40E1C9
 0001:0000D240       loc_40E240
 0001:0000D2C2       loc_40E2C2
 0001:0000D2CA       loc_40E2CA
 0001:0000D2D7       loc_40E2D7
 0001:0000D2FF       loc_40E2FF
 0001:0000D304       loc_40E304
 0001:0000D33A       loc_40E33A
 0001:0000D34F       loc_40E34F
 0001:0000D35A       loc_40E35A
 0001:0000D376       loc_40E376
 0001:0000D3DA       loc_40E3DA
 0001:0000D42C       loc_40E42C
 0001:0000D446       loc_40E446
 0001:0000D44F       loc_40E44F
 0001:0000D470       ReportAllocMemError(int)
 0001:0000D4A0       CKrnlApp::ReportError(char const *,int)
 0001:0000D510       loc_40E510
 0001:0000D55B       loc_40E55B
 0001:0000D58B       loc_40E58B
 0001:0000D5A6       loc_40E5A6
 0001:0000D5B4       loc_40E5B4
 0001:0000D5CD       loc_40E5CD
 0001:0000D5E0       CKrnlApp::GetLibDataTypeInfo(ulong,LIB_INFO * *)
 0001:0000D5F3       loc_40E5F3
 0001:0000D627       loc_40E627
 0001:0000D64C       loc_40E64C
 0001:0000D660       krnl_MAFindClose(void *)
 0001:0000D66F       locret_40E66F
 0001:0000D670       krnl_MADir(char *,int,int,void * *)
 0001:0000D687       loc_40E687
 0001:0000D691       loc_40E691
 0001:0000D6A5       loc_40E6A5
 0001:0000D6AA       loc_40E6AA
 0001:0000D6B3       loc_40E6B3
 0001:0000D6CC       loc_40E6CC
 0001:0000D6D7       loc_40E6D7
 0001:0000D6F0       loc_40E6F0
 0001:0000D6F5       loc_40E6F5
 0001:0000D6FA       loc_40E6FA
 0001:0000D70A       loc_40E70A
 0001:0000D712       loc_40E712
 0001:0000D71F       loc_40E71F
 0001:0000D732       loc_40E732
 0001:0000D736       loc_40E736
 0001:0000D743       loc_40E743
 0001:0000D769       loc_40E769
 0001:0000D780       krnl_MACopyConstAry(int,void * *)
 0001:0000D7A6       loc_40E7A6
 0001:0000D7B1       loc_40E7B1
 0001:0000D7DB       loc_40E7DB
 0001:0000D7E0       krnl_MAReadPackedObjectProperty(ulong,void *,int,int)
 0001:0000D800       krnl_MAWritePackedObjectProperty(ulong,void *,int,int,ulong,ulong)
 0001:0000D830       mystrtok(char *,char,char * *)
 0001:0000D840       loc_40E840
 0001:0000D84C       loc_40E84C
 0001:0000D858       loc_40E858
 0001:0000D861       loc_40E861
 0001:0000D870       CKrnlApp::RegOcx(char const *,char const *,int)
 0001:0000D92C       loc_40E92C
 0001:0000D966       loc_40E966
 0001:0000D9B6       loc_40E9B6
 0001:0000D9C7       loc_40E9C7
 0001:0000D9DF       loc_40E9DF
 0001:0000D9E8       loc_40E9E8
 0001:0000DA1B       loc_40EA1B
 0001:0000DA25       loc_40EA25
 0001:0000DA51       loc_40EA51
 0001:0000DA98       loc_40EA98
 0001:0000DACF       loc_40EACF
 0001:0000DAD7       loc_40EAD7
 0001:0000DB00       loc_40EB00
 0001:0000DB16       loc_40EB16
 0001:0000DB23       loc_40EB23
 0001:0000DB32       loc_40EB32
 0001:0000DB34       loc_40EB34
 0001:0000DB4A       loc_40EB4A
 0001:0000DB77       loc_40EB77
 0001:0000DB93       loc_40EB93
 0001:0000DBB0       loc_40EBB0
 0001:0000DBD6       loc_40EBD6
 0001:0000DBD8       loc_40EBD8
 0001:0000DBE0       loc_40EBE0
 0001:0000DC01       loc_40EC01
 0001:0000DC40       CKrnlApp::GetDefaultIcon(HICON__ * *,HICON__ * *)
 0001:0000DC72       loc_40EC72
 0001:0000DC90       CKrnlApp::free(int)
 0001:0000DCEE       loc_40ECEE
 0001:0000DD0C       loc_40ED0C
 0001:0000DD51       loc_40ED51
 0001:0000DD68       loc_40ED68
 0001:0000DD77       loc_40ED77
 0001:0000DD95       loc_40ED95
 0001:0000DD9A       loc_40ED9A
 0001:0000DDC3       loc_40EDC3
 0001:0000DDD7       loc_40EDD7
 0001:0000DDDC       loc_40EDDC
 0001:0000DE08       loc_40EE08
 0001:0000DE1B       loc_40EE1B
 0001:0000DE30       loc_40EE30
 0001:0000DE4A       loc_40EE4A
 0001:0000DE80       loc_40EE80
 0001:0000DE97       loc_40EE97
 0001:0000DEC5       loc_40EEC5
 0001:0000DECB       loc_40EECB
 0001:0000DEE1       loc_40EEE1
 0001:0000DEF7       loc_40EEF7
 0001:0000DEFC       loc_40EEFC
 0001:0000DF1F       loc_40EF1F
 0001:0000DF25       loc_40EF25
 0001:0000DF38       loc_40EF38
 0001:0000DF5A       loc_40EF5A
 0001:0000DF6D       loc_40EF6D
 0001:0000DF76       loc_40EF76
 0001:0000DF88       loc_40EF88
 0001:0000DFA8       loc_40EFA8
 0001:0000DFB4       loc_40EFB4
 0001:0000DFD6       loc_40EFD6
 0001:0000E00E       loc_40F00E
 0001:0000E020       CKrnlApp::PreTranslateMessage(tagMSG *)
 0001:0000E038       loc_40F038
 0001:0000E044       loc_40F044
 0001:0000E058       loc_40F058
 0001:0000E062       loc_40F062
 0001:0000E069       loc_40F069
 0001:0000E07C       loc_40F07C
 0001:0000E094       loc_40F094
 0001:0000E0A3       loc_40F0A3
 0001:0000E0B2       loc_40F0B2
 0001:0000E0C0       NotifySys(int,ulong,ulong)
 0001:0000E0DD       loc_40F0DD
 0001:0000E0F0       ProcessNotifySys(int,ulong,ulong)
 0001:0000E110       krnl_ProcessNotifyLib(x,x,x)
 0001:0000E130       loc_40F130
 0001:0000E140       loc_40F140
 0001:0000E155       loc_40F155
 0001:0000E17B       loc_40F17B
 0001:0000E181       loc_40F181
 0001:0000E196       loc_40F196
 0001:0000E1BD       loc_40F1BD
 0001:0000E1E3       loc_40F1E3
 0001:0000E1E6       loc_40F1E6
 0001:0000E1EC       off_40F1EC
 0001:0000E208       byte_40F208
 0001:0000E220       CKrnlApp::ReadProperty(ulong,ulong,int,int)
 0001:0000E28C       loc_40F28C
 0001:0000E2E9       loc_40F2E9
 0001:0000E2FE       loc_40F2FE
 0001:0000E30F       loc_40F30F
 0001:0000E31F       loc_40F31F
 0001:0000E32F       loc_40F32F
 0001:0000E380       loc_40F380
 0001:0000E382       loc_40F382
 0001:0000E39B       loc_40F39B
 0001:0000E3DF       loc_40F3DF
 0001:0000E3EB       loc_40F3EB
 0001:0000E3F4       loc_40F3F4
 0001:0000E411       loc_40F411
 0001:0000E41C       loc_40F41C
 0001:0000E448       loc_40F448
 0001:0000E45B       loc_40F45B
 0001:0000E483       loc_40F483
 0001:0000E4B7       loc_40F4B7
 0001:0000E4D8       loc_40F4D8
 0001:0000E513       loc_40F513
 0001:0000E52D       loc_40F52D
 0001:0000E56A       loc_40F56A
 0001:0000E5D4       loc_40F5D4
 0001:0000E5E7       loc_40F5E7
 0001:0000E5FA       loc_40F5FA
 0001:0000E632       loc_40F632
 0001:0000E636       loc_40F636
 0001:0000E670       off_40F670
 0001:0000E680       off_40F680
 0001:0000E6A0       CKrnlApp::ReadPackedObjectProperty(ulong,void *,int,int)
 0001:0000E710       CKrnlApp::WritePackedObjectProperty(ulong,void *,int,int,ulong,ulong)
 0001:0000E783       loc_40F783
 0001:0000E793       loc_40F793
 0001:0000E7AD       loc_40F7AD
 0001:0000E7C4       loc_40F7C4
 0001:0000E7DF       loc_40F7DF
 0001:0000E7EF       loc_40F7EF
 0001:0000E807       loc_40F807
 0001:0000E810       loc_40F810
 0001:0000E828       loc_40F828
 0001:0000E86E       loc_40F86E
 0001:0000E87A       loc_40F87A
 0001:0000E8B8       loc_40F8B8
 0001:0000E8CE       loc_40F8CE
 0001:0000E8DE       loc_40F8DE
 0001:0000E8F3       loc_40F8F3
 0001:0000E900       loc_40F900
 0001:0000E91A       loc_40F91A
 0001:0000E92F       loc_40F92F
 0001:0000E944       loc_40F944
 0001:0000E959       loc_40F959
 0001:0000E97D       loc_40F97D
 0001:0000E98D       loc_40F98D
 0001:0000E9A2       loc_40F9A2
 0001:0000E9A7       loc_40F9A7
 0001:0000E9C3       loc_40F9C3
 0001:0000EA65       loc_40FA65
 0001:0000EA6E       loc_40FA6E
 0001:0000EA7F       loc_40FA7F
 0001:0000EA8B       loc_40FA8B
 0001:0000EAA2       loc_40FAA2
 0001:0000EAE4       off_40FAE4
 0001:0000EB04       byte_40FB04
 0001:0000EB20       off_40FB20
 0001:0000EB40       CKrnlApp::ProcessReadPropertyValue(UNIT_PROPERTY *,int,UNIT_PROPERTY_VALUE &,ulong *)
 0001:0000EB7B       loc_40FB7B
 0001:0000EB9A       loc_40FB9A
 0001:0000EBC1       loc_40FBC1
 0001:0000EBE6       loc_40FBE6
 0001:0000EBF2       loc_40FBF2
 0001:0000EBFE       loc_40FBFE
 0001:0000EC80       loc_40FC80
 0001:0000EC94       loc_40FC94
 0001:0000ECA4       loc_40FCA4
 0001:0000ECBE       loc_40FCBE
 0001:0000ECD3       loc_40FCD3
 0001:0000ED54       loc_40FD54
 0001:0000ED70       loc_40FD70
 0001:0000ED83       loc_40FD83
 0001:0000EDA6       loc_40FDA6
 0001:0000EDC9       loc_40FDC9
 0001:0000EDD5       loc_40FDD5
 0001:0000EDF7       loc_40FDF7
 0001:0000EDFB       loc_40FDFB
 0001:0000EE03       loc_40FE03
 0001:0000EE09       loc_40FE09
 0001:0000EE1C       off_40FE1C
 0001:0000EE80       off_40FE80
 0001:0000EEA0       CKrnlApp::BeginProcessEvent(ulong,ulong,int,int)
 0001:0000EEE7       loc_40FEE7
 0001:0000EF02       loc_40FF02
 0001:0000EF0E       loc_40FF0E
 0001:0000EF2B       loc_40FF2B
 0001:0000EF2F       loc_40FF2F
 0001:0000EF53       loc_40FF53
 0001:0000EF9B       loc_40FF9B
 0001:0000EFDE       loc_40FFDE
 0001:0000EFF4       loc_40FFF4
 0001:0000EFF7       loc_40FFF7
 0001:0000F007       loc_410007
 0001:0000F01B       loc_41001B
 0001:0000F039       loc_410039
 0001:0000F047       loc_410047
 0001:0000F060       CKrnlApp::RefrushMenu(CWinForm *)
 0001:0000F121       loc_410121
 0001:0000F132       loc_410132
 0001:0000F157       loc_410157
 0001:0000F160       CKrnlApp::WriteProperty(ulong,ulong,int,int,ulong,ulong)
 0001:0000F1B2       loc_4101B2
 0001:0000F213       loc_410213
 0001:0000F223       loc_410223
 0001:0000F272       loc_410272
 0001:0000F2AC       loc_4102AC
 0001:0000F2C1       loc_4102C1
 0001:0000F2FA       loc_4102FA
 0001:0000F30F       loc_41030F
 0001:0000F347       loc_410347
 0001:0000F35C       loc_41035C
 0001:0000F3B6       loc_4103B6
 0001:0000F3BE       loc_4103BE
 0001:0000F3F4       loc_4103F4
 0001:0000F412       loc_410412
 0001:0000F417       loc_410417
 0001:0000F43F       loc_41043F
 0001:0000F490       loc_410490
 0001:0000F4C1       loc_4104C1
 0001:0000F4CE       loc_4104CE
 0001:0000F4E6       loc_4104E6
 0001:0000F4FD       loc_4104FD
 0001:0000F502       loc_410502
 0001:0000F526       loc_410526
 0001:0000F574       loc_410574
 0001:0000F590       loc_410590
 0001:0000F5A0       loc_4105A0
 0001:0000F5F0       loc_4105F0
 0001:0000F63D       loc_41063D
 0001:0000F672       loc_410672
 0001:0000F694       loc_410694
 0001:0000F6E8       loc_4106E8
 0001:0000F785       loc_410785
 0001:0000F78C       loc_41078C
 0001:0000F799       loc_410799
 0001:0000F7A3       loc_4107A3
 0001:0000F7B4       loc_4107B4
 0001:0000F7B9       loc_4107B9
 0001:0000F7C7       loc_4107C7
 0001:0000F7D7       loc_4107D7
 0001:0000F7F7       loc_4107F7
 0001:0000F801       loc_410801
 0001:0000F81A       loc_41081A
 0001:0000F832       loc_410832
 0001:0000F87D       loc_41087D
 0001:0000F8B2       loc_4108B2
 0001:0000F8D7       loc_4108D7
 0001:0000F8E6       loc_4108E6
 0001:0000F8F1       loc_4108F1
 0001:0000F927       loc_410927
 0001:0000F94A       loc_41094A
 0001:0000F952       loc_410952
 0001:0000F95C       loc_41095C
 0001:0000F9C9       loc_4109C9
 0001:0000F9E5       loc_4109E5
 0001:0000FA18       loc_410A18
 0001:0000FA1F       loc_410A1F
 0001:0000FA28       loc_410A28
 0001:0000FA42       loc_410A42
 0001:0000FA59       loc_410A59
 0001:0000FA74       loc_410A74
 0001:0000FA84       loc_410A84
 0001:0000FA9C       loc_410A9C
 0001:0000FAB6       loc_410AB6
 0001:0000FAFE       loc_410AFE
 0001:0000FB0A       loc_410B0A
 0001:0000FB56       loc_410B56
 0001:0000FB6B       loc_410B6B
 0001:0000FB7B       loc_410B7B
 0001:0000FB90       loc_410B90
 0001:0000FB9D       loc_410B9D
 0001:0000FBB7       loc_410BB7
 0001:0000FBCC       loc_410BCC
 0001:0000FBE1       loc_410BE1
 0001:0000FBF6       loc_410BF6
 0001:0000FC1A       loc_410C1A
 0001:0000FC2A       loc_410C2A
 0001:0000FC3F       loc_410C3F
 0001:0000FC44       loc_410C44
 0001:0000FC60       loc_410C60
 0001:0000FD03       loc_410D03
 0001:0000FD0C       loc_410D0C
 0001:0000FD1D       loc_410D1D
 0001:0000FD29       loc_410D29
 0001:0000FD39       loc_410D39
 0001:0000FD3D       loc_410D3D
 0001:0000FDC7       loc_410DC7
 0001:0000FDE3       loc_410DE3
 0001:0000FE00       off_410E00
 0001:0000FE10       off_410E10
 0001:0000FE30       off_410E30
 0001:0000FE50       byte_410E50
 0001:0000FE6C       off_410E6C
 0001:0000FE90       CKrnlApp::ConvertNumToInt(MDATA_INF *)
 0001:0000FEB5       loc_410EB5
 0001:0000FEBA       loc_410EBA
 0001:0000FEC0       loc_410EC0
 0001:0000FEC7       loc_410EC7
 0001:0000FED5       loc_410ED5
 0001:0000FEE1       std::_Ref_count_base::_Get_deleter(type_info const &)
 0001:0000FEE6       loc_410EE6
 0001:0000FEF0       loc_410EF0
 0001:0000FF00       CKrnlApp::StopPlayMP3(void)
 0001:0000FF2D       loc_410F2D
 0001:0000FF37       loc_410F37
 0001:0000FF40       CKrnlApp::StopPlay(int)
 0001:0000FF60       CKrnlApp::IsConstPtr(void *)
 0001:0000FF77       loc_410F77
 0001:0000FF7D       loc_410F7D
 0001:0000FF88       loc_410F88
 0001:0000FF91       loc_410F91
 0001:0000FF99       loc_410F99
 0001:0000FF9F       loc_410F9F
 0001:0000FFB0       sub_410FB0
 0001:0000FFC0       CSysHideWnd::OnAppQuit(uint,long)
 0001:0000FFE0       unknown_libname_213
 0001:0000FFF1       loc_410FF1
 0001:0001000C       loc_41100C
 0001:00010018       loc_411018
 0001:0001003A       loc_41103A
 0001:0001004A       loc_41104A
 0001:00010069       loc_411069
 0001:00010075       loc_411075
 0001:00010083       loc_411083
 0001:000100E0       CPIWinForm::init(void)
 0001:00010170       CPIWinForm::Serialize(CArchive &)
 0001:000101A4       loc_4111A4
 0001:000101E5       loc_4111E5
 0001:000101EA       loc_4111EA
 0001:00010232       loc_411232
 0001:000102C6       loc_4112C6
 0001:000102C9       loc_4112C9
 0001:000102EB       loc_4112EB
 0001:000102FE       loc_4112FE
 0001:00010312       loc_411312
 0001:00010331       loc_411331
 0001:00010349       loc_411349
 0001:0001038B       loc_41138B
 0001:000103C1       loc_4113C1
 0001:000103EA       loc_4113EA
 0001:00010413       loc_411413
 0001:0001043C       loc_41143C
 0001:00010465       loc_411465
 0001:0001048E       loc_41148E
 0001:000104B7       loc_4114B7
 0001:000104E0       loc_4114E0
 0001:00010509       loc_411509
 0001:00010532       loc_411532
 0001:0001055E       loc_41155E
 0001:0001058A       loc_41158A
 0001:000105B6       loc_4115B6
 0001:000105E2       loc_4115E2
 0001:00010608       loc_411608
 0001:00010661       loc_411661
 0001:0001066D       loc_41166D
 0001:00010690       StopPlay(CWinFormUnit *)
 0001:000106B5       loc_4116B5
 0001:000106BB       loc_4116BB
 0001:000106D8       loc_4116D8
 0001:000106F2       loc_4116F2
 0001:00010700       PlayMusic(CWinFormUnit *)
 0001:00010733       loc_411733
 0001:00010741       loc_411741
 0001:00010747       loc_411747
 0001:00010773       loc_411773
 0001:000107AD       loc_4117AD
 0001:000107C0       SetNewIcon(CWinFormUnit *)
 0001:000107D8       loc_4117D8
 0001:000107DE       loc_4117DE
 0001:0001084A       loc_41184A
 0001:00010852       loc_411852
 0001:0001088F       loc_41188F
 0001:0001089C       loc_41189C
 0001:000108BC       loc_4118BC
 0001:000108E0       MyRegisterWndClass(char *)
 0001:000108FC       loc_4118FC
 0001:00010901       loc_411901
 0001:0001096F       loc_41196F
 0001:00010980       Create_Win(uchar *,int,ulong,HWND__ *,uint,HMENU__ *,int,int,int,int,ulong,ulong,HWND__ *,int)
 0001:000109C2       loc_4119C2
 0001:000109C4       loc_4119C4
 0001:000109D7       loc_4119D7
 0001:000109FD       loc_4119FD
 0001:00010A48       loc_411A48
 0001:00010A65       loc_411A65
 0001:00010A77       loc_411A77
 0001:00010A7D       loc_411A7D
 0001:00010A86       loc_411A86
 0001:00010A93       loc_411A93
 0001:00010A9D       loc_411A9D
 0001:00010AA5       loc_411AA5
 0001:00010AAD       loc_411AAD
 0001:00010AB5       loc_411AB5
 0001:00010ABC       loc_411ABC
 0001:00010AC0       loc_411AC0
 0001:00010ACD       loc_411ACD
 0001:00010ADA       loc_411ADA
 0001:00010B0C       loc_411B0C
 0001:00010B16       loc_411B16
 0001:00010B3E       loc_411B3E
 0001:00010B6B       loc_411B6B
 0001:00010B7B       loc_411B7B
 0001:00010B7F       loc_411B7F
 0001:00010B99       loc_411B99
 0001:00010BB1       loc_411BB1
 0001:00010BC8       loc_411BC8
 0001:00010C14       loc_411C14
 0001:00010C1B       loc_411C1B
 0001:00010C51       loc_411C51
 0001:00010C62       loc_411C62
 0001:00010C7C       loc_411C7C
 0001:00010C91       loc_411C91
 0001:00010CBF       loc_411CBF
 0001:00010CED       loc_411CED
 0001:00010CF8       loc_411CF8
 0001:00010D10       off_411D10
 0001:00010D30       CWinFormUnit::SetWinBoxType(void)
 0001:00010D51       loc_411D51
 0001:00010D63       loc_411D63
 0001:00010D69       loc_411D69
 0001:00010D74       loc_411D74
 0001:00010D7F       loc_411D7F
 0001:00010D9A       loc_411D9A
 0001:00010DA0       NotifyPropertyChanged_Win(ulong,int,UNIT_PROPERTY_VALUE *,char * *)
 0001:00010DB9       loc_411DB9
 0001:00010DC3       loc_411DC3
 0001:00010DD9       loc_411DD9
 0001:00010E05       loc_411E05
 0001:00010E18       loc_411E18
 0001:00010E1D       loc_411E1D
 0001:00010E22       loc_411E22
 0001:00010E32       loc_411E32
 0001:00010E3F       loc_411E3F
 0001:00010E47       loc_411E47
 0001:00010E4D       loc_411E4D
 0001:00010E54       loc_411E54
 0001:00010E5A       loc_411E5A
 0001:00010E5F       loc_411E5F
 0001:00010E90       loc_411E90
 0001:00010EAD       loc_411EAD
 0001:00010EE9       loc_411EE9
 0001:00010EFC       loc_411EFC
 0001:00010F0B       loc_411F0B
 0001:00010F1F       loc_411F1F
 0001:00010F32       loc_411F32
 0001:00010F37       loc_411F37
 0001:00010F3C       loc_411F3C
 0001:00010F5E       loc_411F5E
 0001:00010F95       loc_411F95
 0001:00010FCA       loc_411FCA
 0001:00010FCF       loc_411FCF
 0001:00010FD4       loc_411FD4
 0001:00010FEF       loc_411FEF
 0001:0001100B       loc_41200B
 0001:00011027       loc_412027
 0001:00011043       loc_412043
 0001:00011056       loc_412056
 0001:0001105B       loc_41205B
 0001:00011060       loc_412060
 0001:00011088       loc_412088
 0001:0001109D       loc_41209D
 0001:000110B9       loc_4120B9
 0001:000110C2       loc_4120C2
 0001:00011115       loc_412115
 0001:00011132       loc_412132
 0001:00011147       loc_412147
 0001:0001115A       loc_41215A
 0001:0001119C       loc_41219C
 0001:000111BA       loc_4121BA
 0001:000111E5       loc_4121E5
 0001:000111FD       loc_4121FD
 0001:00011215       loc_412215
 0001:0001122D       loc_41222D
 0001:0001124B       loc_41224B
 0001:00011263       loc_412263
 0001:0001127B       loc_41227B
 0001:00011293       loc_412293
 0001:000112BD       loc_4122BD
 0001:000112C2       loc_4122C2
 0001:000112C7       loc_4122C7
 0001:000112E0       loc_4122E0
 0001:00011327       loc_412327
 0001:000113AF       loc_4123AF
 0001:000113C7       loc_4123C7
 0001:000113D9       loc_4123D9
 0001:000113E8       off_4123E8
 0001:00011448       off_412448
 0001:00011460       off_412460
 0001:00011470       GetPropertyData_Win(ulong,int,UNIT_PROPERTY_VALUE *)
 0001:00011491       loc_412491
 0001:000114A3       loc_4124A3
 0001:000114B5       loc_4124B5
 0001:000114C7       loc_4124C7
 0001:000114E5       loc_4124E5
 0001:000114FD       loc_4124FD
 0001:0001150F       loc_41250F
 0001:00011533       loc_412533
 0001:00011551       loc_412551
 0001:00011566       loc_412566
 0001:00011578       loc_412578
 0001:0001158A       loc_41258A
 0001:0001159C       loc_41259C
 0001:000115BD       loc_4125BD
 0001:000115DD       loc_4125DD
 0001:000115EF       loc_4125EF
 0001:00011613       loc_412613
 0001:00011631       loc_412631
 0001:00011646       loc_412646
 0001:0001165B       loc_41265B
 0001:00011670       loc_412670
 0001:00011685       loc_412685
 0001:0001169A       loc_41269A
 0001:000116AF       loc_4126AF
 0001:000116C4       loc_4126C4
 0001:000116D9       loc_4126D9
 0001:000116EE       loc_4126EE
 0001:00011703       loc_412703
 0001:00011718       loc_412718
 0001:00011720       off_412720
 0001:00011780       unknown_libname_214
 0001:0001178B       loc_41278B
 0001:000117A0       GetIconPropertyData_Win(uchar *,int)
 0001:00011945       loc_412945
 0001:00011954       loc_412954
 0001:000119A4       loc_4129A4
 0001:000119E6       loc_4129E6
 0001:00011A20       CPIWinForm::~CPIWinForm(void)
 0001:00011AC0       LangCnvWinForm(uchar *,int *,void (*)(char *,ulong,int),int)
 0001:00011B6E       loc_412B6E
 0001:00011BAC       loc_412BAC
 0001:00011C50       krnln_GetInterface_window(x)
 0001:00011C61       loc_412C61
 0001:00011C6E       loc_412C6E
 0001:00011C7B       loc_412C7B
 0001:00011C88       loc_412C88
 0001:00011C95       loc_412C95
 0001:00011CB0       CWinFormUnit::CreateObject(void)
 0001:00011CF9       loc_412CF9
 0001:00011D10       sub_412D10
 0001:00011D20       CWinFormUnit::CWinFormUnit(void)
 0001:00011E60       CWinFormUnit::`scalar deleting destructor'(uint)
 0001:00011E78       loc_412E78
 0001:00011E80       CWinFormUnit::~CWinFormUnit(void)
 0001:00011EDE       loc_412EDE
 0001:00011EF1       loc_412EF1
 0001:00011EFA       loc_412EFA
 0001:00011F10       loc_412F10
 0001:00011F1D       loc_412F1D
 0001:00011FF0       sub_412FF0
 0001:00012000       unknown_libname_215
 0001:00012020       unknown_libname_216
 0001:00012040       loc_413040
 0001:00012050       unknown_libname_217
 0001:00012074       loc_413074
 0001:00012080       unknown_libname_218
 0001:000120A0       loc_4130A0
 0001:000120B0       unknown_libname_219
 0001:000120D7       loc_4130D7
 0001:000120E5       loc_4130E5
 0001:000120EC       loc_4130EC
 0001:00012123       loc_413123
 0001:00012130       CWinFormUnit::OnNcActivate(int)
 0001:00012161       loc_413161
 0001:00012170       CWinFormUnit::OnShowWindow(int,uint)
 0001:000121D0       CWinFormUnit::OnDestroyThis(uint,long)
 0001:000121F3       loc_4131F3
 0001:00012200       CWinFormUnit::OnIconOper(uint,long)
 0001:00012215       loc_413215
 0001:00012223       loc_413223
 0001:0001222F       loc_41322F
 0001:00012234       loc_413234
 0001:00012276       loc_413276
 0001:00012280       CWinFormUnit::SetTrayIcon(HICON__ *,char *)
 0001:000122C3       loc_4132C3
 0001:000122DE       loc_4132DE
 0001:000122F9       loc_4132F9
 0001:0001231A       loc_41331A
 0001:0001233F       loc_41333F
 0001:00012350       CWinFormUnit::SetWindowShape(void)
 0001:000123A3       loc_4133A3
 0001:00012402       loc_413402
 0001:0001240F       loc_41340F
 0001:0001241C       loc_41341C
 0001:0001241F       loc_41341F
 0001:0001247A       loc_41347A
 0001:000124AC       loc_4134AC
 0001:000124E3       loc_4134E3
 0001:0001257A       loc_41357A
 0001:000125A2       loc_4135A2
 0001:000125B0       loc_4135B0
 0001:000125BA       loc_4135BA
 0001:000125C4       loc_4135C4
 0001:00012630       CWinFormUnit::PreCreateWindow(tagCREATESTRUCTA &)
 0001:00012640       CWinFormUnit::PostNcDestroy(void)
 0001:0001265E       loc_41365E
 0001:0001268B       loc_41368B
 0001:000126E0       loc_4136E0
 0001:000126E2       loc_4136E2
 0001:00012714       loc_413714
 0001:00012728       loc_413728
 0001:00012730       CWinFormUnit::OnPaint(void)
 0001:000127B8       loc_4137B8
 0001:0001280E       loc_41380E
 0001:00012811       loc_413811
 0001:0001281E       loc_41381E
 0001:000128A1       loc_4138A1
 0001:00012933       loc_413933
 0001:0001294B       loc_41394B
 0001:00012955       loc_413955
 0001:000129C1       loc_4139C1
 0001:000129D5       loc_4139D5
 0001:000129EC       loc_4139EC
 0001:00012A19       loc_413A19
 0001:00012A32       loc_413A32
 0001:00012A3C       loc_413A3C
 0001:00012A6B       loc_413A6B
 0001:00012A9F       loc_413A9F
 0001:00012B32       loc_413B32
 0001:00012B45       loc_413B45
 0001:00012B4E       loc_413B4E
 0001:00012B59       loc_413B59
 0001:00012B84       loc_413B84
 0001:00012BBB       loc_413BBB
 0001:00012C04       off_413C04
 0001:00012C20       CWinFormUnit::OnCommand(uint,long)
 0001:00012C3F       loc_413C3F
 0001:00012CD4       loc_413CD4
 0001:00012CE2       loc_413CE2
 0001:00012D00       CWinFormUnit::OnCmdMsg(uint,int,void *,AFX_CMDHANDLERINFO *)
 0001:00012D20       CWinFormUnit::OnInitMenuPopup(CMenu *,uint,int)
 0001:00012D30       CWinFormUnit::OnQueryEndSession(void)
 0001:00012D46       loc_413D46
 0001:00012DD0       loc_413DD0
 0001:00012DE0       CWinFormUnit::ExitDlgMode(void)
 0001:00012DFC       loc_413DFC
 0001:00012E02       loc_413E02
 0001:00012E11       loc_413E11
 0001:00012E29       loc_413E29
 0001:00012E31       loc_413E31
 0001:00012E41       loc_413E41
 0001:00012E50       CWinFormUnit::OnClose(void)
 0001:00012ED4       loc_413ED4
 0001:00012EE2       loc_413EE2
 0001:00012EF0       CWinFormUnit::OnDestroy(void)
 0001:00012F31       loc_413F31
 0001:00012F81       loc_413F81
 0001:00012F84       loc_413F84
 0001:00012FE7       loc_413FE7
 0001:00013009       loc_414009
 0001:00013012       loc_414012
 0001:00013020       CWinFormUnit::AskCurFocusUnitIsNeedThisKey(ushort)
 0001:000130EA       loc_4140EA
 0001:00013100       CWinFormUnit::GetOCXWndObject(CWnd *)
 0001:00013110       loc_414110
 0001:000131DC       loc_4141DC
 0001:000131F0       CWinFormUnit::AskCurFocusOleControlCharMsg(tagMSG *)
 0001:000132AA       loc_4142AA
 0001:000132C7       loc_4142C7
 0001:000132D1       loc_4142D1
 0001:000132D6       loc_4142D6
 0001:0001330B       loc_41430B
 0001:0001330F       loc_41430F
 0001:00013315       loc_414315
 0001:00013320       CWinFormUnit::SkipRadio(HWND__ *,int)
 0001:000133BC       loc_4143BC
 0001:000133D0       CWinFormUnit::SkipFocus(HWND__ *,int,int,HWND__ *)
 0001:000134C1       loc_4144C1
 0001:000134E5       loc_4144E5
 0001:0001353C       loc_41453C
 0001:00013569       loc_414569
 0001:0001363E       loc_41463E
 0001:0001365C       loc_41465C
 0001:0001368D       loc_41468D
 0001:00013699       loc_414699
 0001:000136E4       loc_4146E4
 0001:000136F3       loc_4146F3
 0001:000136FF       loc_4146FF
 0001:00013738       loc_414738
 0001:00013753       loc_414753
 0001:00013761       loc_414761
 0001:00013778       loc_414778
 0001:000137AC       loc_4147AC
 0001:000137C4       loc_4147C4
 0001:000137C7       loc_4147C7
 0001:000137CA       loc_4147CA
 0001:000137D3       loc_4147D3
 0001:0001386E       loc_41486E
 0001:00013880       loc_414880
 0001:000138C8       loc_4148C8
 0001:000138E2       loc_4148E2
 0001:00013900       CWinFormUnit::OnSetFocus(CWnd *)
 0001:0001399D       loc_41499D
 0001:000139EC       loc_4149EC
 0001:00013A18       loc_414A18
 0001:00013AF4       loc_414AF4
 0001:00013B01       loc_414B01
 0001:00013B17       loc_414B17
 0001:00013B20       CWinFormUnit::OnKillFocus(CWnd *)
 0001:00013B70       CWinFormUnit::OnActivate(uint,CWnd *,int)
 0001:00013C09       loc_414C09
 0001:00013C0D       loc_414C0D
 0001:00013CC1       loc_414CC1
 0001:00013D42       loc_414D42
 0001:00013DD2       loc_414DD2
 0001:00013DE0       CWinFormUnit::NotifyDefaultButton(CWinForm *,int)
 0001:00013EC1       loc_414EC1
 0001:00013ED0       CWinFormUnit::PreTranslateMessage(tagMSG *)
 0001:00013F17       loc_414F17
 0001:00013F28       loc_414F28
 0001:00013F30       loc_414F30
 0001:00013F42       loc_414F42
 0001:00013F77       loc_414F77
 0001:00013FA2       loc_414FA2
 0001:00013FCD       loc_414FCD
 0001:00013FD1       loc_414FD1
 0001:00014016       loc_415016
 0001:00014021       loc_415021
 0001:00014043       loc_415043
 0001:0001404A       loc_41504A
 0001:000140CC       loc_4150CC
 0001:000140E1       loc_4150E1
 0001:000140EF       loc_4150EF
 0001:0001413D       loc_41513D
 0001:00014147       loc_415147
 0001:00014186       loc_415186
 0001:000141F8       loc_4151F8
 0001:00014272       loc_415272
 0001:000142DE       loc_4152DE
 0001:00014301       loc_415301
 0001:00014323       loc_415323
 0001:00014333       loc_415333
 0001:0001434E       loc_41534E
 0001:00014355       loc_415355
 0001:00014389       loc_415389
 0001:00014394       loc_415394
 0001:000143CD       loc_4153CD
 0001:000143F5       loc_4153F5
 0001:00014405       loc_415405
 0001:0001440A       loc_41540A
 0001:00014423       loc_415423
 0001:00014438       loc_415438
 0001:00014463       loc_415463
 0001:0001447E       loc_41547E
 0001:00014508       loc_415508
 0001:0001450A       loc_41550A
 0001:000145F0       loc_4155F0
 0001:00014634       loc_415634
 0001:00014643       loc_415643
 0001:00014675       loc_415675
 0001:00014677       loc_415677
 0001:000146DA       loc_4156DA
 0001:000146EE       loc_4156EE
 0001:000146F7       loc_4156F7
 0001:000146FE       loc_4156FE
 0001:0001473E       loc_41573E
 0001:0001477D       loc_41577D
 0001:000147A4       loc_4157A4
 0001:0001481B       loc_41581B
 0001:00014851       loc_415851
 0001:0001485C       loc_41585C
 0001:00014879       loc_415879
 0001:0001488E       loc_41588E
 0001:000148AE       loc_4158AE
 0001:000148C0       loc_4158C0
 0001:000148D1       loc_4158D1
 0001:000148DB       loc_4158DB
 0001:000148EF       loc_4158EF
 0001:00014944       loc_415944
 0001:00014949       loc_415949
 0001:0001497E       loc_41597E
 0001:00014987       loc_415987
 0001:00014996       loc_415996
 0001:000149C9       loc_4159C9
 0001:00014A0D       loc_415A0D
 0001:00014A15       loc_415A15
 0001:00014A2A       loc_415A2A
 0001:00014A2F       loc_415A2F
 0001:00014A30       loc_415A30
 0001:00014A31       loc_415A31
 0001:00014A32       loc_415A32
 0001:00014A33       loc_415A33
 0001:00014A71       loc_415A71
 0001:00014A84       loc_415A84
 0001:00014A97       loc_415A97
 0001:00014ACF       loc_415ACF
 0001:00014B1D       loc_415B1D
 0001:00014B2A       loc_415B2A
 0001:00014B3D       loc_415B3D
 0001:00014B64       loc_415B64
 0001:00014B74       loc_415B74
 0001:00014B90       off_415B90
 0001:00014BA8       off_415BA8
 0001:00014BD0       CWinFormUnit::OnSetCursor(CWnd *,uint,uint)
 0001:00014BF7       loc_415BF7
 0001:00014C10       CWinFormUnit::SetAllUnitCursor(HWND__ *)
 0001:00014C3A       loc_415C3A
 0001:00014C82       loc_415C82
 0001:00014CB2       loc_415CB2
 0001:00014CC3       loc_415CC3
 0001:00014D05       loc_415D05
 0001:00014D10       CWinFormUnit::OnMove(int,int)
 0001:00014D60       CWinFormUnit::OnRelayoutBar(uint,long)
 0001:00014D80       CWinFormUnit::RelayoutBarUnit(void)
 0001:00014E07       loc_415E07
 0001:00014E94       loc_415E94
 0001:00014EA3       loc_415EA3
 0001:00014EA9       loc_415EA9
 0001:00014EB5       loc_415EB5
 0001:00014F0B       loc_415F0B
 0001:00014F14       loc_415F14
 0001:00014F31       loc_415F31
 0001:00014F8C       loc_415F8C
 0001:00014F91       loc_415F91
 0001:00014FBF       loc_415FBF
 0001:00014FD0       CWinFormUnit::OnSize(uint,int,int)
 0001:00014FEC       loc_415FEC
 0001:00015040       CWinFormUnit::IdleProcess(int)
 0001:000150AA       loc_4160AA
 0001:000150C0       CWinFormUnit::ShowWindowMax(void)
 0001:000150E2       loc_4160E2
 0001:000150FE       loc_4160FE
 0001:00015107       loc_416107
 0001:00015144       loc_416144
 0001:00015153       loc_416153
 0001:00015169       loc_416169
 0001:00015170       CWinFormUnit::InvalidateForm(CRect *)
 0001:000151A0       loc_4161A0
 0001:000151C4       loc_4161C4
 0001:00015235       loc_416235
 0001:00015238       loc_416238
 0001:0001524B       loc_41624B
 0001:00015260       unknown_libname_220
 0001:00015270       unknown_libname_221
 0001:00015280       unknown_libname_222
 0001:000152A0       sub_4162A0
 0001:000152B0       CKrnlApp::StopMid(void)
 0001:000152D0       loc_4162D0
 0001:000152DE       loc_4162DE
 0001:000152FC       loc_4162FC
 0001:00015325       loc_416325
 0001:00015346       loc_416346
 0001:00015360       krnl_InitUserProgram(void)
 0001:00015370       sub_416370
 0001:00015380       _GetDllCmdAdr(int)
 0001:000153A0       _krnl_MCallDllCmd
 0001:000153B0       _krnl_MCallLibCmd
 0001:000153F0       _krnl_MCallKrnlLibCmd
 0001:00015430       CKrnlApp::ProcessEvent(EVENT_NOTIFY *)
 0001:0001546C       loc_41646C
 0001:0001547C       loc_41647C
 0001:00015485       loc_416485
 0001:0001549D       loc_41649D
 0001:000154CE       loc_4164CE
 0001:000154D3       loc_4164D3
 0001:000154E0       CKrnlApp::ProcessEvent(EVENT_NOTIFY2 *)
 0001:0001551F       loc_41651F
 0001:0001552F       loc_41652F
 0001:00015538       loc_416538
 0001:00015573       loc_416573
 0001:0001558C       loc_41658C
 0001:000155B7       loc_4165B7
 0001:000155F8       loc_4165F8
 0001:0001560F       loc_41660F
 0001:0001561E       loc_41661E
 0001:00015629       loc_416629
 0001:00015644       loc_416644
 0001:00015658       loc_416658
 0001:0001566C       loc_41666C
 0001:00015672       loc_416672
 0001:00015678       loc_416678
 0001:0001567E       loc_41667E
 0001:0001569F       loc_41669F
 0001:000156A7       loc_4166A7
 0001:000156B0       loc_4166B0
 0001:000156B8       loc_4166B8
 0001:0001570B       loc_41670B
 0001:00015710       loc_416710
 0001:00015720       _krnl_MReportError
 0001:00015740       _krnl_MReadProperty
 0001:00015760       _krnl_MWriteProperty
 0001:00015790       _krnl_MMessageLoop
 0001:000157B8       loc_4167B8
 0001:000157C0       _krnl_MLoadBeginWin
 0001:000157E0       _krnl_MMallocNoCheck
 0001:00015800       _krnl_MMalloc
 0001:0001582C       loc_41682C
 0001:00015840       AFXSetTopLevelFrame(CFrameWnd *)
 0001:00015850       _krnl_MExitProcess
 0001:00015870       _krnl_MRealloc
 0001:0001588F       loc_41688F
 0001:000158D2       loc_4168D2
 0001:000158D7       loc_4168D7
 0001:000158F9       loc_4168F9
 0001:00015902       loc_416902
 0001:0001591C       loc_41691C
 0001:00015930       _krnl_MFree
 0001:0001595E       loc_41695E
 0001:00015960       IsFileExist(char const *)
 0001:0001598E       loc_41698E
 0001:000159A0       witoa(int,char *)
 0001:000159C0       tcsrchr(char *,char)
 0001:000159E3       loc_4169E3
 0001:000159FB       loc_4169FB
 0001:00015A01       loc_416A01
 0001:00015A06       loc_416A06
 0001:00015A10       ChangeFileExt(CString &,char const *)
 0001:00015A7B       loc_416A7B
 0001:00015AB0       GetDataTypeType(ulong)
 0001:00015AB9       loc_416AB9
 0001:00015ACB       loc_416ACB
 0001:00015AE0       GetKey(tagMSG *)
 0001:00015AF9       loc_416AF9
 0001:00015B10       ProcessKeyMsg(tagMSG *)
 0001:00015B39       loc_416B39
 0001:00015B3F       loc_416B3F
 0001:00015B4E       loc_416B4E
 0001:00015B63       loc_416B63
 0001:00015B78       loc_416B78
 0001:00015B7E       loc_416B7E
 0001:00015B8B       loc_416B8B
 0001:00015B98       loc_416B98
 0001:00015BB0       ChkDateTime(int &,int &,int &,int &,int &,int &)
 0001:00015BCB       loc_416BCB
 0001:00015BD0       loc_416BD0
 0001:00015BD5       loc_416BD5
 0001:00015BEE       loc_416BEE
 0001:00015BF3       loc_416BF3
 0001:00015BF8       loc_416BF8
 0001:00015C11       loc_416C11
 0001:00015C16       loc_416C16
 0001:00015C1B       loc_416C1B
 0001:00015C30       loc_416C30
 0001:00015C35       loc_416C35
 0001:00015C3A       loc_416C3A
 0001:00015C4F       loc_416C4F
 0001:00015C54       loc_416C54
 0001:00015C59       loc_416C59
 0001:00015C6E       loc_416C6E
 0001:00015C73       loc_416C73
 0001:00015C78       loc_416C78
 0001:00015C98       loc_416C98
 0001:00015CAA       loc_416CAA
 0001:00015CB8       loc_416CB8
 0001:00015CBD       loc_416CBD
 0001:00015CC8       loc_416CC8
 0001:00015CD0       IsWavData(uchar *,int)
 0001:00015D12       loc_416D12
 0001:00015D30       unknown_libname_223
 0001:00015D50       FloatToDouble(float)
 0001:00015D9F       loc_416D9F
 0001:00015DA2       loc_416DA2
 0001:00015DC4       loc_416DC4
 0001:00015DE6       loc_416DE6
 0001:00015DEC       loc_416DEC
 0001:00015E19       loc_416E19
 0001:00015E34       loc_416E34
 0001:00015E40       loc_416E40
 0001:00015E4A       loc_416E4A
 0001:00015E60       ftoa(float,char *)
 0001:00015EF0       dtoa(double,char *)
 0001:00015F80       SetOleDateTime(COleDateTime &,double)
 0001:00015FC6       loc_416FC6
 0001:00015FEA       loc_416FEA
 0001:00016010       GetDateTimeStr(double,char *)
 0001:000160C6       loc_4170C6
 0001:000160E1       loc_4170E1
 0001:000160F9       loc_4170F9
 0001:00016122       loc_417122
 0001:00016130       CCStrToEg(char *,CFreqMem &,int)
 0001:0001614E       loc_41714E
 0001:00016186       loc_417186
 0001:00016194       loc_417194
 0001:0001619B       loc_41719B
 0001:000161A4       loc_4171A4
 0001:000161A9       loc_4171A9
 0001:000161B0       loc_4171B0
 0001:000161B5       loc_4171B5
 0001:000161C1       loc_4171C1
 0001:000161D0       StrToDateTime(char *,double *)
 0001:00016241       loc_417241
 0001:00016271       loc_417271
 0001:0001629E       loc_41729E
 0001:0001629F       loc_41729F
 0001:000162A1       loc_4172A1
 0001:000162D1       loc_4172D1
 0001:00016300       loc_417300
 0001:00016301       loc_417301
 0001:00016305       loc_417305
 0001:00016309       loc_417309
 0001:00016339       loc_417339
 0001:00016373       loc_417373
 0001:00016374       loc_417374
 0001:0001637E       loc_41737E
 0001:00016382       loc_417382
 0001:000163B2       loc_4173B2
 0001:000163DF       loc_4173DF
 0001:000163E0       loc_4173E0
 0001:000163E8       loc_4173E8
 0001:00016419       loc_417419
 0001:00016446       loc_417446
 0001:00016447       loc_417447
 0001:0001644F       loc_41744F
 0001:0001647F       loc_41747F
 0001:00016497       loc_417497
 0001:00016551       loc_417551
 0001:00016580       GetFontPoint(tagLOGFONTA *)
 0001:000165D0       AddInt(int *,int,int,int)
 0001:000165F2       loc_4175F2
 0001:000165FD       loc_4175FD
 0001:00016603       loc_417603
 0001:00016607       loc_417607
 0001:00016610       CCToEg(ushort)
 0001:00016625       loc_417625
 0001:0001662C       loc_41762C
 0001:00016634       loc_417634
 0001:00016637       loc_417637
 0001:00016648       loc_417648
 0001:00016650       AddInt(int *,int,int)
 0001:0001666E       loc_41766E
 0001:0001667B       loc_41767B
 0001:0001667E       loc_41767E
 0001:00016690       FindSmallOrEqvInt(int *,int,int)
 0001:000166B1       loc_4176B1
 0001:000166BF       loc_4176BF
 0001:000166C2       loc_4176C2
 0001:000166C9       loc_4176C9
 0001:000166D0       AddComboStrings(CComboBox *,char *)
 0001:000166E7       loc_4176E7
 0001:00016710       loc_417710
 0001:00016720       FormatText(char *,...)
 0001:000167A0       GetWinCursorType(int)
 0001:000167B7       locret_4177B7
 0001:000167C0       CreateIconFromData(uchar *,int,int)
 0001:0001684A       loc_41784A
 0001:0001685D       loc_41785D
 0001:0001688B       loc_41788B
 0001:0001689C       loc_41789C
 0001:000168B0       CenterPaintBmpRes(CWnd *,uint)
 0001:000169E7       loc_4179E7
 0001:00016ABD       loc_417ABD
 0001:00016AFE       loc_417AFE
 0001:00016B07       loc_417B07
 0001:00016B40       DNameNode::DNameNode(void)
 0001:00016B50       ShowErrorMsg(char const *)
 0001:00016B70       GetWinCursorTypeIndex(int)
 0001:00016B86       loc_417B86
 0001:00016B92       loc_417B92
 0001:00016B94       loc_417B94
 0001:00016BA0       CreateMyCursor(uchar *,int)
 0001:00016BC0       loc_417BC0
 0001:00016BC6       loc_417BC6
 0001:00016BDE       loc_417BDE
 0001:00016BF9       loc_417BF9
 0001:00016C1D       loc_417C1D
 0001:00016C2D       loc_417C2D
 0001:00016C39       loc_417C39
 0001:00016C3B       loc_417C3B
 0001:00016C3F       loc_417C3F
 0001:00016C4C       loc_417C4C
 0001:00016C60       SetUnit(CDC *,int)
 0001:00016C78       loc_417C78
 0001:00016C88       loc_417C88
 0001:00016C8E       loc_417C8E
 0001:00016C99       loc_417C99
 0001:00016C9F       loc_417C9F
 0001:00016CAA       loc_417CAA
 0001:00016CAE       loc_417CAE
 0001:00016CB3       loc_417CB3
 0001:00016D06       loc_417D06
 0001:00016D16       loc_417D16
 0001:00016D35       loc_417D35
 0001:00016D45       loc_417D45
 0001:00016D4C       off_417D4C
 0001:00016D70       LoadTwoIcon(HINSTANCE__ *,char const *,HICON__ * *,HICON__ * *)
 0001:00016DB0       IsShareError(CFileException *)
 0001:00016DC4       loc_417DC4
 0001:00016DD0       wait(void)
 0001:00016DF0       GetInstancePath(HINSTANCE__ *,CString &)
 0001:00016E2A       loc_417E2A
 0001:00016E50       SetFontPoint(tagLOGFONTA *,int)
 0001:00016EA0       MGetStretchMode(void)
 0001:00016EC7       loc_417EC7
 0001:00016ECC       loc_417ECC
 0001:00016EE0       ConvertNanFangPY(uchar,uchar,int)
 0001:00016F11       loc_417F11
 0001:00016F18       loc_417F18
 0001:00016F1F       loc_417F1F
 0001:00016F26       loc_417F26
 0001:00016F30       loc_417F30
 0001:00016F3A       loc_417F3A
 0001:00016F44       loc_417F44
 0001:00016F4E       loc_417F4E
 0001:00016F58       loc_417F58
 0001:00016F62       loc_417F62
 0001:00016F6C       loc_417F6C
 0001:00016F7B       loc_417F7B
 0001:00016F8A       loc_417F8A
 0001:00016F8F       locret_417F8F
 0001:00016F90       CCryptFile::CCryptFile(char const *,int)
 0001:00016FF0       CCryptFile::SetPassword(char const *,int)
 0001:0001709B       loc_41809B
 0001:000170B0       CCryptFile::Read(void *,uint)
 0001:000170CF       loc_4180CF
 0001:000170FE       loc_4180FE
 0001:00017110       CCryptFile::Write(void const *,uint)
 0001:00017158       loc_418158
 0001:000171D2       loc_4181D2
 0001:000171F0       prepare_key(uchar *,int,rc4_key *)
 0001:000171FE       loc_4181FE
 0001:00017216       loc_418216
 0001:00017248       loc_418248
 0001:0001727A       loc_41827A
 0001:000172A7       loc_4182A7
 0001:000172B0       skip(int,rc4_key *)
 0001:000172E5       loc_4182E5
 0001:000172F5       loc_4182F5
 0001:00017320       rc4(uchar *,int,rc4_key *)
 0001:0001735A       loc_41835A
 0001:00017373       loc_418373
 0001:000173A0       CCryptFile::CallRC4(int,uchar *,int,int)
 0001:000173BB       loc_4183BB
 0001:000173C7       loc_4183C7
 0001:000173F0       loc_4183F0
 0001:00017494       loc_418494
 0001:000174E3       loc_4184E3
 0001:0001750C       loc_41850C
 0001:0001750F       loc_41850F
 0001:00017576       loc_418576
 0001:0001758A       loc_41858A
 0001:000175A0       CCryptFile::NewGetMD5(uchar *,uint,char *)
 0001:000175BB       loc_4185BB
 0001:000175CD       loc_4185CD
 0001:000175D8       loc_4185D8
 0001:000175F0       CInputEdit::OnChar(uint,uint,uint)
 0001:00017613       loc_418613
 0001:0001762C       loc_41862C
 0001:00017631       locret_418631
 0001:00017640       CPrintStatusDlg::PreClose(void)
 0001:00017672       loc_418672
 0001:00017686       loc_418686
 0001:00017693       loc_418693
 0001:0001769B       loc_41869B
 0001:000176A0       CDaoRecordset::ResetCursor(void)
 0001:000176C0       CInputPanel::OnLButtonDown(uint,CPoint)
 0001:00017702       loc_418702
 0001:00017710       CInputPanel::OnMouseMove(uint,CPoint)
 0001:000177C5       loc_4187C5
 0001:000177E1       loc_4187E1
 0001:00017803       loc_418803
 0001:00017827       loc_418827
 0001:0001783E       loc_41883E
 0001:00017850       CMFCColorPickerCtrl::OnLButtonUp(uint,CPoint)
 0001:00017869       loc_418869
 0001:00017880       CBrowDlg::OnDestroy(void)
 0001:000178DD       loc_4188DD
 0001:00017904       loc_418904
 0001:00017920       CBrowDlg::SetFocusMark(CWnd *,int)
 0001:00017950       locret_418950
 0001:00017960       CBrowDlg::ShowControl(CWnd *)
 0001:000179C0       loc_4189C0
 0001:000179D6       loc_4189D6
 0001:00017A45       loc_418A45
 0001:00017A55       loc_418A55
 0001:00017A65       loc_418A65
 0001:00017A75       loc_418A75
 0001:00017AC6       loc_418AC6
 0001:00017ADE       loc_418ADE
 0001:00017AF8       loc_418AF8
 0001:00017B10       loc_418B10
 0001:00017B45       loc_418B45
 0001:00017B50       CBrowDlg::SetCaption(void)
 0001:00017BA0       loc_418BA0
 0001:00017BA6       loc_418BA6
 0001:00017BB9       loc_418BB9
 0001:00017BE8       loc_418BE8
 0001:00017C02       loc_418C02
 0001:00017C3C       loc_418C3C
 0001:00017C7A       loc_418C7A
 0001:00017CB0       CBrowDlg::WriteCurRecord(void)
 0001:00017D12       loc_418D12
 0001:00017D18       loc_418D18
 0001:00017D2F       loc_418D2F
 0001:00017D38       loc_418D38
 0001:00017D6A       loc_418D6A
 0001:00017DA4       loc_418DA4
 0001:00017DD0       loc_418DD0
 0001:00017DEF       loc_418DEF
 0001:00017E02       loc_418E02
 0001:00017E35       loc_418E35
 0001:00017E55       loc_418E55
 0001:00017E69       loc_418E69
 0001:00017E82       loc_418E82
 0001:00017E9C       loc_418E9C
 0001:00017EAF       loc_418EAF
 0001:00017EC8       loc_418EC8
 0001:00017EDB       loc_418EDB
 0001:00017EF1       loc_418EF1
 0001:00017F04       loc_418F04
 0001:00017F14       loc_418F14
 0001:00017F24       loc_418F24
 0001:00017F33       loc_418F33
 0001:00017F4F       loc_418F4F
 0001:00017F64       loc_418F64
 0001:00017F7F       loc_418F7F
 0001:00017F93       loc_418F93
 0001:00017FA0       loc_418FA0
 0001:00017FA7       loc_418FA7
 0001:00017FAE       loc_418FAE
 0001:00017FB5       loc_418FB5
 0001:00017FB9       loc_418FB9
 0001:00017FC0       loc_418FC0
 0001:00017FC3       loc_418FC3
 0001:00017FDD       loc_418FDD
 0001:00017FFC       loc_418FFC
 0001:00018021       loc_419021
 0001:00018027       loc_419027
 0001:00018062       loc_419062
 0001:00018078       loc_419078
 0001:0001809A       loc_41909A
 0001:000180FC       loc_4190FC
 0001:00018123       loc_419123
 0001:0001812C       loc_41912C
 0001:0001812F       loc_41912F
 0001:00018159       loc_419159
 0001:00018178       loc_419178
 0001:0001817B       loc_41917B
 0001:00018193       loc_419193
 0001:000181B3       loc_4191B3
 0001:000181C7       loc_4191C7
 0001:000181CD       loc_4191CD
 0001:000181D1       loc_4191D1
 0001:000181EF       loc_4191EF
 0001:000181FF       loc_4191FF
 0001:00018205       loc_419205
 0001:0001826F       loc_41926F
 0001:0001829D       loc_41929D
 0001:000182D1       loc_4192D1
 0001:000182DE       loc_4192DE
 0001:000182E5       loc_4192E5
 0001:000182EC       loc_4192EC
 0001:000182F3       loc_4192F3
 0001:000182F7       loc_4192F7
 0001:000182FE       loc_4192FE
 0001:00018301       loc_419301
 0001:0001833D       loc_41933D
 0001:000183B8       loc_4193B8
 0001:000183BF       loc_4193BF
 0001:000183CD       loc_4193CD
 0001:00018402       loc_419402
 0001:00018411       loc_419411
 0001:00018414       loc_419414
 0001:00018429       loc_419429
 0001:0001843E       loc_41943E
 0001:00018483       sub_419483
 0001:0001849E       sub_41949E
 0001:000184B4       off_4194B4
 0001:000184DC       off_4194DC
 0001:0001850C       off_41950C
 0001:00018540       CBrowDlg::ProcessButton(int)
 0001:00018597       loc_419597
 0001:000185C6       loc_4195C6
 0001:000185DF       loc_4195DF
 0001:000185FF       loc_4195FF
 0001:00018619       loc_419619
 0001:00018628       loc_419628
 0001:00018629       loc_419629
 0001:00018633       loc_419633
 0001:00018650       loc_419650
 0001:0001869A       loc_41969A
 0001:0001869D       loc_41969D
 0001:000186A7       loc_4196A7
 0001:000186C1       loc_4196C1
 0001:000186C7       loc_4196C7
 0001:000186CB       loc_4196CB
 0001:00018749       loc_419749
 0001:00018770       CModiMemoBin::~CModiMemoBin(void)
 0001:00018800       sub_419800
 0001:00018818       loc_419818
 0001:00018820       CFieldEdit::OnSetfocus(void)
 0001:00018840       CFieldEdit::OnKillfocus(void)
 0001:00018895       loc_419895
 0001:000188C1       loc_4198C1
 0001:000188DF       loc_4198DF
 0001:000188F1       loc_4198F1
 0001:00018923       loc_419923
 0001:0001893E       loc_41993E
 0001:00018958       loc_419958
 0001:00018973       loc_419973
 0001:00018982       loc_419982
 0001:0001899C       loc_41999C
 0001:000189A7       loc_4199A7
 0001:000189B8       loc_4199B8
 0001:000189CB       loc_4199CB
 0001:000189EE       loc_4199EE
 0001:00018A10       loc_419A10
 0001:00018A2D       loc_419A2D
 0001:00018A6D       loc_419A6D
 0001:00018A71       loc_419A71
 0001:00018A91       loc_419A91
 0001:00018AF3       loc_419AF3
 0001:00018B0F       loc_419B0F
 0001:00018B34       off_419B34
 0001:00018B60       CFieldEdit::OnChar(uint,uint,uint)
 0001:00018B7B       loc_419B7B
 0001:00018B88       loc_419B88
 0001:00018BA1       loc_419BA1
 0001:00018BA6       locret_419BA6
 0001:00018BB0       CFieldBtn::OnSetFocus(CWnd *)
 0001:00018BD0       CFieldBtn::OnKillFocus(CWnd *)
 0001:00018BF0       CFieldBtn::OnClicked(void)
 0001:00018C34       loc_419C34
 0001:00018C44       loc_419C44
 0001:00018C50       CFieldLabel::OnPaint(void)
 0001:00018D00       CModiMemoBin::CModiMemoBin(CWnd *)
 0001:00018DC0       CModiMemoBin::`scalar deleting destructor'(uint)
 0001:00018DD8       loc_419DD8
 0001:00018DE0       CModiMemoBin::DoDataExchange(CDataExchange *)
 0001:00018E20       sub_419E20
 0001:00018E30       CModiMemoBin::ShowData(void)
 0001:00018E7C       loc_419E7C
 0001:00018E90       loc_419E90
 0001:00018EA5       loc_419EA5
 0001:00018ED8       loc_419ED8
 0001:00018EE7       loc_419EE7
 0001:00018EFB       loc_419EFB
 0001:00018F07       loc_419F07
 0001:00018F0A       loc_419F0A
 0001:00018F1F       loc_419F1F
 0001:00018F60       loc_419F60
 0001:00018F6B       loc_419F6B
 0001:00018F9A       loc_419F9A
 0001:00018FDB       loc_419FDB
 0001:00018FF4       loc_419FF4
 0001:00018FF7       loc_419FF7
 0001:00019000       loc_41A000
 0001:00019073       loc_41A073
 0001:000190B0       CModiMemoBin::OnInitDialog(void)
 0001:000190E1       loc_41A0E1
 0001:000190F1       loc_41A0F1
 0001:00019106       loc_41A106
 0001:00019124       loc_41A124
 0001:0001912B       loc_41A12B
 0001:00019130       loc_41A130
 0001:0001916A       loc_41A16A
 0001:0001917F       loc_41A17F
 0001:00019185       loc_41A185
 0001:00019197       loc_41A197
 0001:000191F4       loc_41A1F4
 0001:000191F6       loc_41A1F6
 0001:000192AB       loc_41A2AB
 0001:000192B8       loc_41A2B8
 0001:00019397       loc_41A397
 0001:00019424       loc_41A424
 0001:0001942C       loc_41A42C
 0001:00019437       loc_41A437
 0001:0001943C       loc_41A43C
 0001:00019460       CModiMemoBin::InOrOut(int)
 0001:000194B0       loc_41A4B0
 0001:000194C9       loc_41A4C9
 0001:000194DC       loc_41A4DC
 0001:000194EA       loc_41A4EA
 0001:000195A6       loc_41A5A6
 0001:000195A9       loc_41A5A9
 0001:000195CC       loc_41A5CC
 0001:000195D5       loc_41A5D5
 0001:000195DE       loc_41A5DE
 0001:000195FB       loc_41A5FB
 0001:000195FE       loc_41A5FE
 0001:00019612       loc_41A612
 0001:0001961E       loc_41A61E
 0001:0001962A       loc_41A62A
 0001:00019646       loc_41A646
 0001:00019657       loc_41A657
 0001:000196B0       CModiMemoBin::OnIn(void)
 0001:000196BD       locret_41A6BD
 0001:000196C0       CModiMemoBin::OnOut(void)
 0001:000196D0       CModiMemoBin::OnPlaySound(void)
 0001:000196FF       loc_41A6FF
 0001:00019702       loc_41A702
 0001:0001971D       loc_41A71D
 0001:00019734       loc_41A734
 0001:00019764       loc_41A764
 0001:00019777       loc_41A777
 0001:00019780       CModiMemoBin::OnStopPlayCurSound(void)
 0001:000197A2       loc_41A7A2
 0001:000197A5       loc_41A7A5
 0001:000197C0       loc_41A7C0
 0001:000197DA       loc_41A7DA
 0001:000197ED       loc_41A7ED
 0001:000197F0       CModiMemoBin::OnClear(void)
 0001:0001982D       loc_41A82D
 0001:00019839       loc_41A839
 0001:00019847       loc_41A847
 0001:00019850       CModiMemoBin::SaveCurMemoData(void)
 0001:000198C3       loc_41A8C3
 0001:000198E0       CModiMemoBin::OnOK(void)
 0001:000198F5       loc_41A8F5
 0001:00019900       NewCreateSpecMenu(uchar *,int,ulong,int,HACCEL__ * *,int)
 0001:00019927       loc_41A927
 0001:00019965       loc_41A965
 0001:00019995       loc_41A995
 0001:000199B9       loc_41A9B9
 0001:000199DB       loc_41A9DB
 0001:00019A09       loc_41AA09
 0001:00019A0C       loc_41AA0C
 0001:00019A15       loc_41AA15
 0001:00019A4A       loc_41AA4A
 0001:00019A5F       loc_41AA5F
 0001:00019A6C       loc_41AA6C
 0001:00019AA0       GetQuickKeyName(int)
 0001:00019AB5       loc_41AAB5
 0001:00019AC0       InsertMenuA(HMENU__ *,uchar * &,int &,int,CMyDWordArray *,int)
 0001:00019B54       loc_41AB54
 0001:00019B5A       loc_41AB5A
 0001:00019BA9       loc_41ABA9
 0001:00019BFD       loc_41ABFD
 0001:00019C23       loc_41AC23
 0001:00019C3E       loc_41AC3E
 0001:00019C52       loc_41AC52
 0001:00019C5B       loc_41AC5B
 0001:00019CC1       loc_41ACC1
 0001:00019CE3       loc_41ACE3
 0001:00019CEA       loc_41ACEA
 0001:00019D17       loc_41AD17
 0001:00019D1A       loc_41AD1A
 0001:00019D52       loc_41AD52
 0001:00019D62       loc_41AD62
 0001:00019DA9       loc_41ADA9
 0001:00019DB8       loc_41ADB8
 0001:00019DC7       loc_41ADC7
 0001:00019DFD       loc_41ADFD
 0001:00019E22       loc_41AE22
 0001:00019E26       loc_41AE26
 0001:00019E38       loc_41AE38
 0001:00019E49       loc_41AE49
 0001:00019E82       loc_41AE82
 0001:00019EB2       loc_41AEB2
 0001:00019EF2       loc_41AEF2
 0001:00019EF6       loc_41AEF6
 0001:00019F30       DDBToDIB(CBitmap &,ulong,CPalette *)
 0001:00019F82       loc_41AF82
 0001:00019F8C       loc_41AF8C
 0001:0001A023       loc_41B023
 0001:0001A0A2       loc_41B0A2
 0001:0001A10B       loc_41B10B
 0001:0001A131       loc_41B131
 0001:0001A149       loc_41B149
 0001:0001A15A       loc_41B15A
 0001:0001A170       WriteDIB(CFreqMem &,void *)
 0001:0001A1CC       loc_41B1CC
 0001:0001A23B       loc_41B23B
 0001:0001A247       loc_41B247
 0001:0001A253       loc_41B253
 0001:0001A270       WriteBitmap(CBitmap &,CFreqMem &,int,int)
 0001:0001A2CA       loc_41B2CA
 0001:0001A2DA       loc_41B2DA
 0001:0001A2E6       loc_41B2E6
 0001:0001A2F7       loc_41B2F7
 0001:0001A305       loc_41B305
 0001:0001A30F       loc_41B30F
 0001:0001A311       loc_41B311
 0001:0001A3A5       loc_41B3A5
 0001:0001A3CD       loc_41B3CD
 0001:0001A4C8       loc_41B4C8
 0001:0001A4DA       loc_41B4DA
 0001:0001A533       loc_41B533
 0001:0001A55A       loc_41B55A
 0001:0001A56F       loc_41B56F
 0001:0001A5D0       sub_41B5D0
 0001:0001A5E8       loc_41B5E8
 0001:0001A5F0       unknown_libname_224
 0001:0001A630       GetBitmapData(HBITMAP__ *)
 0001:0001A738       loc_41B738
 0001:0001A767       loc_41B767
 0001:0001A780       CJBPic::CJBPic(void)
 0001:0001A820       CJBPic::init(void)
 0001:0001A840       CJBPic::Serialize(CArchive &)
 0001:0001A883       loc_41B883
 0001:0001A8DC       loc_41B8DC
 0001:0001A8FF       loc_41B8FF
 0001:0001A939       loc_41B939
 0001:0001A967       loc_41B967
 0001:0001A995       loc_41B995
 0001:0001A9C3       loc_41B9C3
 0001:0001A9E2       loc_41B9E2
 0001:0001A9E8       loc_41B9E8
 0001:0001A9FF       loc_41B9FF
 0001:0001AA20       loc_41BA20
 0001:0001AA41       loc_41BA41
 0001:0001AA77       loc_41BA77
 0001:0001AA9D       loc_41BA9D
 0001:0001AAD6       loc_41BAD6
 0001:0001AAFF       loc_41BAFF
 0001:0001AB28       loc_41BB28
 0001:0001AB51       loc_41BB51
 0001:0001AB9E       loc_41BB9E
 0001:0001AC08       loc_41BC08
 0001:0001AC20       CJBPic::Create(int,tagSIZE,ulong *,int,tagRECT *)
 0001:0001AC53       loc_41BC53
 0001:0001AC66       loc_41BC66
 0001:0001AC74       loc_41BC74
 0001:0001AC7C       loc_41BC7C
 0001:0001AC84       loc_41BC84
 0001:0001ACA3       loc_41BCA3
 0001:0001ACAF       loc_41BCAF
 0001:0001ACB7       loc_41BCB7
 0001:0001ACE6       loc_41BCE6
 0001:0001ACE9       loc_41BCE9
 0001:0001AD33       loc_41BD33
 0001:0001AD36       loc_41BD36
 0001:0001AD5D       loc_41BD5D
 0001:0001AD70       loc_41BD70
 0001:0001AD81       loc_41BD81
 0001:0001AD88       loc_41BD88
 0001:0001ADBE       loc_41BDBE
 0001:0001ADEF       loc_41BDEF
 0001:0001AE1C       loc_41BE1C
 0001:0001AE3E       loc_41BE3E
 0001:0001AE54       loc_41BE54
 0001:0001AE80       loc_41BE80
 0001:0001AEA5       loc_41BEA5
 0001:0001AECA       loc_41BECA
 0001:0001AEF7       loc_41BEF7
 0001:0001AF05       loc_41BF05
 0001:0001AF24       loc_41BF24
 0001:0001AF40       loc_41BF40
 0001:0001AF6D       loc_41BF6D
 0001:0001AF7B       loc_41BF7B
 0001:0001AF9A       loc_41BF9A
 0001:0001AFAC       loc_41BFAC
 0001:0001AFF6       loc_41BFF6
 0001:0001B005       loc_41C005
 0001:0001B039       loc_41C039
 0001:0001B066       loc_41C066
 0001:0001B078       loc_41C078
 0001:0001B0B1       loc_41C0B1
 0001:0001B0C1       loc_41C0C1
 0001:0001B0E6       loc_41C0E6
 0001:0001B11A       loc_41C11A
 0001:0001B12C       loc_41C12C
 0001:0001B17D       loc_41C17D
 0001:0001B18D       loc_41C18D
 0001:0001B1B6       loc_41C1B6
 0001:0001B1E3       loc_41C1E3
 0001:0001B1F5       loc_41C1F5
 0001:0001B228       loc_41C228
 0001:0001B241       loc_41C241
 0001:0001B26A       loc_41C26A
 0001:0001B28B       loc_41C28B
 0001:0001B29C       off_41C29C
 0001:0001B2C0       CJBPic::GetColor(int,int,uchar *,uchar *,uchar *)
 0001:0001B2E7       loc_41C2E7
 0001:0001B2EE       loc_41C2EE
 0001:0001B303       loc_41C303
 0001:0001B309       loc_41C309
 0001:0001B32E       loc_41C32E
 0001:0001B33A       loc_41C33A
 0001:0001B360       loc_41C360
 0001:0001B36E       loc_41C36E
 0001:0001B374       loc_41C374
 0001:0001B389       loc_41C389
 0001:0001B38F       loc_41C38F
 0001:0001B440       CJBPic::CreateBitmap(CDC *)
 0001:0001B44B       loc_41C44B
 0001:0001B44E       loc_41C44E
 0001:0001B4C5       loc_41C4C5
 0001:0001B4D0       CJBPic::draw(CDC *,int,int,ulong)
 0001:0001B511       loc_41C511
 0001:0001B529       loc_41C529
 0001:0001B56C       loc_41C56C
 0001:0001B610       CJBPic::FillRect(CDC *,CRect const *,CRect const *,int,ulong *,int,ulong)
 0001:0001B697       loc_41C697
 0001:0001B6B4       loc_41C6B4
 0001:0001B6C9       loc_41C6C9
 0001:0001B6DD       loc_41C6DD
 0001:0001B6E9       loc_41C6E9
 0001:0001B728       loc_41C728
 0001:0001B7E8       loc_41C7E8
 0001:0001B801       loc_41C801
 0001:0001B812       loc_41C812
 0001:0001B81A       loc_41C81A
 0001:0001B831       loc_41C831
 0001:0001B840       CJBPic::DrawRect(CDC *,CRect const *,int,CRect const *,tagSIZE const &,ulong *,int,int,ulong)
 0001:0001B8EE       loc_41C8EE
 0001:0001B920       loc_41C920
 0001:0001B92F       loc_41C92F
 0001:0001B966       loc_41C966
 0001:0001B9B3       loc_41C9B3
 0001:0001B9BD       loc_41C9BD
 0001:0001B9E5       loc_41C9E5
 0001:0001BA14       loc_41CA14
 0001:0001BA30       loc_41CA30
 0001:0001BA32       loc_41CA32
 0001:0001BA4D       loc_41CA4D
 0001:0001BA7E       loc_41CA7E
 0001:0001BA8D       loc_41CA8D
 0001:0001BAA6       loc_41CAA6
 0001:0001BABE       loc_41CABE
 0001:0001BACB       loc_41CACB
 0001:0001BC70       loc_41CC70
 0001:0001BCD5       loc_41CCD5
 0001:0001BCDE       loc_41CCDE
 0001:0001BD63       loc_41CD63
 0001:0001BD79       loc_41CD79
 0001:0001BD82       loc_41CD82
 0001:0001BDD0       CStream::Read(uchar *,int)
 0001:0001BE39       sub_41CE39
 0001:0001BE45       loc_41CE45
 0001:0001BE70       BGRFromRGB(uchar *,uint,uint)
 0001:0001BE7D       loc_41CE7D
 0001:0001BE8E       loc_41CE8E
 0001:0001BE96       loc_41CE96
 0001:0001BEA6       loc_41CEA6
 0001:0001BEB1       loc_41CEB1
 0001:0001BEC0       VertFlipBuf(uchar *,uint,uint)
 0001:0001BED9       loc_41CED9
 0001:0001BEF8       loc_41CEF8
 0001:0001BF1E       loc_41CF1E
 0001:0001BF31       loc_41CF31
 0001:0001BFAC       loc_41CFAC
 0001:0001BFD0       MakeDwordAlignedBuf(uchar *,uint,uint,uint *)
 0001:0001BFE1       loc_41CFE1
 0001:0001C013       loc_41D013
 0001:0001C029       loc_41D029
 0001:0001C053       loc_41D053
 0001:0001C05D       loc_41D05D
 0001:0001C070       LoadPicFile(x)
 0001:0001C09D       loc_41D09D
 0001:0001C0AA       loc_41D0AA
 0001:0001C0B7       loc_41D0B7
 0001:0001C0C6       loc_41D0C6
 0001:0001C0D3       loc_41D0D3
 0001:0001C0DB       loc_41D0DB
 0001:0001C0E2       loc_41D0E2
 0001:0001C0EC       off_41D0EC
 0001:0001C110       LoadPicData(x,x)
 0001:0001C162       loc_41D162
 0001:0001C16E       loc_41D16E
 0001:0001C17A       loc_41D17A
 0001:0001C188       loc_41D188
 0001:0001C194       loc_41D194
 0001:0001C19E       loc_41D19E
 0001:0001C1A0       loc_41D1A0
 0001:0001C1B4       loc_41D1B4
 0001:0001C1C0       off_41D1C0
 0001:0001C1E0       BeginDrawPic(x,x,x)
 0001:0001C318       loc_41D318
 0001:0001C34A       loc_41D34A
 0001:0001C37C       loc_41D37C
 0001:0001C3FE       loc_41D3FE
 0001:0001C412       loc_41D412
 0001:0001C427       loc_41D427
 0001:0001C440       DrawPic(x,x,x,x,x,x)
 0001:0001C4CF       loc_41D4CF
 0001:0001C4D2       loc_41D4D2
 0001:0001C4ED       loc_41D4ED
 0001:0001C4F0       loc_41D4F0
 0001:0001C505       loc_41D505
 0001:0001C508       loc_41D508
 0001:0001C5BC       loc_41D5BC
 0001:0001C5CE       loc_41D5CE
 0001:0001C684       loc_41D684
 0001:0001C69A       loc_41D69A
 0001:0001C6EA       loc_41D6EA
 0001:0001C70E       loc_41D70E
 0001:0001C71A       loc_41D71A
 0001:0001C75E       loc_41D75E
 0001:0001C76A       loc_41D76A
 0001:0001C776       loc_41D776
 0001:0001C7A0       EndDrawPic(x)
 0001:0001C7BA       loc_41D7BA
 0001:0001C7CB       loc_41D7CB
 0001:0001C7D0       Draw(x,x,x,x,x,x)
 0001:0001C833       loc_41D833
 0001:0001C840       GetHBitmap(x,x)
 0001:0001C86A       loc_41D86A
 0001:0001C883       loc_41D883
 0001:0001C8D7       loc_41D8D7
 0001:0001C986       loc_41D986
 0001:0001C989       loc_41D989
 0001:0001C9B9       loc_41D9B9
 0001:0001C9C3       loc_41D9C3
 0001:0001C9DF       loc_41D9DF
 0001:0001C9F2       loc_41D9F2
 0001:0001CA10       LoadJPGFile(x)
 0001:0001CA46       loc_41DA46
 0001:0001CA70       AllocMem(int)
 0001:0001CA80       LoadJPG(x)
 0001:0001CABC       loc_41DABC
 0001:0001CABE       loc_41DABE
 0001:0001CAFD       loc_41DAFD
 0001:0001CB10       loc_41DB10
 0001:0001CB19       loc_41DB19
 0001:0001CB25       loc_41DB25
 0001:0001CB70       sub_41DB70
 0001:0001CB88       loc_41DB88
 0001:0001CB90       sub_41DB90
 0001:0001CBA0       sub_41DBA0
 0001:0001CBB0       std::locale::facet::`scalar deleting destructor'(uint)
 0001:0001CBCA       loc_41DBCA
 0001:0001CBD0       LoadBMPFile(x)
 0001:0001CC06       loc_41DC06
 0001:0001CC30       LoadPcxFile(x)
 0001:0001CC66       loc_41DC66
 0001:0001CC90       LoadBMP(x)
 0001:0001CCB9       loc_41DCB9
 0001:0001CCBB       loc_41DCBB
 0001:0001CCF5       loc_41DCF5
 0001:0001CD08       loc_41DD08
 0001:0001CD11       loc_41DD11
 0001:0001CD1A       loc_41DD1A
 0001:0001CD60       GetPicFileType(x)
 0001:0001CD96       loc_41DD96
 0001:0001CDC0       GetPicDataType(x,x)
 0001:0001CDE8       loc_41DDE8
 0001:0001CDFC       loc_41DDFC
 0001:0001CE1E       loc_41DE1E
 0001:0001CE39       loc_41DE39
 0001:0001CE5D       loc_41DE5D
 0001:0001CE6C       loc_41DE6C
 0001:0001CE8B       loc_41DE8B
 0001:0001CEA9       loc_41DEA9
 0001:0001CEB0       GetPicType(x)
 0001:0001CF32       loc_41DF32
 0001:0001CF35       loc_41DF35
 0001:0001CF56       sub_41DF56
 0001:0001CF70       LoadIcoFile(x,x)
 0001:0001CFA6       loc_41DFA6
 0001:0001CFD0       LoadIco(x,x)
 0001:0001D03C       loc_41E03C
 0001:0001D064       loc_41E064
 0001:0001D0A6       loc_41E0A6
 0001:0001D0AE       loc_41E0AE
 0001:0001D0B5       loc_41E0B5
 0001:0001D0B8       loc_41E0B8
 0001:0001D0F4       loc_41E0F4
 0001:0001D117       loc_41E117
 0001:0001D119       loc_41E119
 0001:0001D164       loc_41E164
 0001:0001D194       loc_41E194
 0001:0001D1A7       loc_41E1A7
 0001:0001D1A8       loc_41E1A8
 0001:0001D1B0       loc_41E1B0
 0001:0001D1BE       loc_41E1BE
 0001:0001D1EF       loc_41E1EF
 0001:0001D1FB       loc_41E1FB
 0001:0001D217       loc_41E217
 0001:0001D230       LoadGifFile(x)
 0001:0001D266       loc_41E266
 0001:0001D290       LoadGif(x)
 0001:0001D2F7       loc_41E2F7
 0001:0001D31E       loc_41E31E
 0001:0001D387       loc_41E387
 0001:0001D3D5       loc_41E3D5
 0001:0001D3F2       loc_41E3F2
 0001:0001D3FE       loc_41E3FE
 0001:0001D41A       loc_41E41A
 0001:0001D430       sub_41E430
 0001:0001D440       sub_41E440
 0001:0001D450       CPicWnd::OnPaint(void)
 0001:0001D4E7       loc_41E4E7
 0001:0001D560       loc_41E560
 0001:0001D590       loc_41E590
 0001:0001D5CC       loc_41E5CC
 0001:0001D5E7       loc_41E5E7
 0001:0001D5EF       loc_41E5EF
 0001:0001D61E       loc_41E61E
 0001:0001D65C       loc_41E65C
 0001:0001D666       loc_41E666
 0001:0001D66C       loc_41E66C
 0001:0001D67F       loc_41E67F
 0001:0001D6B0       CPicWnd::PostNcDestroy(void)
 0001:0001D6C9       loc_41E6C9
 0001:0001D6D6       loc_41E6D6
 0001:0001D6E0       CPicWnd::AutoSizeWnd(void)
 0001:0001D707       loc_41E707
 0001:0001D74B       loc_41E74B
 0001:0001D792       loc_41E792
 0001:0001D7A0       CPicWnd::Empty(void)
 0001:0001D7D2       loc_41E7D2
 0001:0001D7E5       loc_41E7E5
 0001:0001D7F4       loc_41E7F4
 0001:0001D800       CPicWnd::EmptyData(void)
 0001:0001D820       CPicWnd::PutData(uchar *,int)
 0001:0001D8AB       loc_41E8AB
 0001:0001D8BA       loc_41E8BA
 0001:0001D8D8       loc_41E8D8
 0001:0001D8F8       loc_41E8F8
 0001:0001D940       loc_41E940
 0001:0001D950       loc_41E950
 0001:0001D96B       loc_41E96B
 0001:0001D975       loc_41E975
 0001:0001D984       loc_41E984
 0001:0001D997       loc_41E997
 0001:0001D9BA       loc_41E9BA
 0001:0001D9C6       loc_41E9C6
 0001:0001D9DC       off_41E9DC
 0001:0001DA00       LoadPcx(x)
 0001:0001DA64       loc_41EA64
 0001:0001DA85       loc_41EA85
 0001:0001DAB8       sub_41EAB8
 0001:0001DAD0       LoadPcxData(uchar *,int)
 0001:0001DB7B       loc_41EB7B
 0001:0001DBB7       loc_41EBB7
 0001:0001DBE3       loc_41EBE3
 0001:0001DBE9       loc_41EBE9
 0001:0001DC6E       loc_41EC6E
 0001:0001DC81       loc_41EC81
 0001:0001DCF2       loc_41ECF2
 0001:0001DCF6       loc_41ECF6
 0001:0001DD04       loc_41ED04
 0001:0001DD05       loc_41ED05
 0001:0001DD16       loc_41ED16
 0001:0001DD43       loc_41ED43
 0001:0001DD52       loc_41ED52
 0001:0001DD6D       loc_41ED6D
 0001:0001DD89       loc_41ED89
 0001:0001DD98       loc_41ED98
 0001:0001DDB0       LoadBWPcx(uchar *,int)
 0001:0001DE0E       loc_41EE0E
 0001:0001DE15       loc_41EE15
 0001:0001DE24       loc_41EE24
 0001:0001DE2B       loc_41EE2B
 0001:0001DE4C       loc_41EE4C
 0001:0001DEA1       loc_41EEA1
 0001:0001DEB0       loc_41EEB0
 0001:0001DF06       loc_41EF06
 0001:0001DF11       loc_41EF11
 0001:0001DF14       loc_41EF14
 0001:0001DF25       loc_41EF25
 0001:0001DF3E       loc_41EF3E
 0001:0001DF48       loc_41EF48
 0001:0001DF60       CreateCursorFromData(uchar *,ulong)
 0001:0001E04A       loc_41F04A
 0001:0001E060       CMIDI::CMIDI(void)
 0001:0001E100       std::ios_base::`scalar deleting destructor'(uint)
 0001:0001E118       loc_41F118
 0001:0001E120       std::ios_base::~ios_base(void)
 0001:0001E15B       loc_41F15B
 0001:0001E172       loc_41F172
 0001:0001E180       loc_41F180
 0001:0001E1F0       CMIDI::Empty(void)
 0001:0001E213       loc_41F213
 0001:0001E220       CMIDI::init(void)
 0001:0001E27E       loc_41F27E
 0001:0001E297       loc_41F297
 0001:0001E2AD       loc_41F2AD
 0001:0001E2BB       loc_41F2BB
 0001:0001E2D9       loc_41F2D9
 0001:0001E2F2       loc_41F2F2
 0001:0001E340       CMIDI::IsMIDIData(uchar *,ulong)
 0001:0001E359       loc_41F359
 0001:0001E360       CMIDI::Create(void *,ulong,CWnd *)
 0001:0001E375       loc_41F375
 0001:0001E38B       loc_41F38B
 0001:0001E397       loc_41F397
 0001:0001E3D1       loc_41F3D1
 0001:0001E46F       loc_41F46F
 0001:0001E485       loc_41F485
 0001:0001E4AD       loc_41F4AD
 0001:0001E4CD       loc_41F4CD
 0001:0001E4DC       loc_41F4DC
 0001:0001E53C       loc_41F53C
 0001:0001E554       loc_41F554
 0001:0001E563       loc_41F563
 0001:0001E587       loc_41F587
 0001:0001E595       loc_41F595
 0001:0001E5C1       loc_41F5C1
 0001:0001E5C5       loc_41F5C5
 0001:0001E5CD       loc_41F5CD
 0001:0001E5E5       loc_41F5E5
 0001:0001E5F0       loc_41F5F0
 0001:0001E5FE       loc_41F5FE
 0001:0001E608       loc_41F608
 0001:0001E620       CMIDI::Play(int)
 0001:0001E638       loc_41F638
 0001:0001E648       loc_41F648
 0001:0001E65D       loc_41F65D
 0001:0001E679       loc_41F679
 0001:0001E690       CMIDI::Stop(int)
 0001:0001E6A6       loc_41F6A6
 0001:0001E6C1       loc_41F6C1
 0001:0001E6DF       loc_41F6DF
 0001:0001E6FD       loc_41F6FD
 0001:0001E716       loc_41F716
 0001:0001E71B       loc_41F71B
 0001:0001E755       loc_41F755
 0001:0001E75D       loc_41F75D
 0001:0001E772       loc_41F772
 0001:0001E789       loc_41F789
 0001:0001E7A0       CMIDI::Continue(void)
 0001:0001E7CD       loc_41F7CD
 0001:0001E7E0       CMIDI::Rewind(void)
 0001:0001E7ED       loc_41F7ED
 0001:0001E7F4       loc_41F7F4
 0001:0001E7FF       loc_41F7FF
 0001:0001E82D       loc_41F82D
 0001:0001E840       loc_41F840
 0001:0001E84B       loc_41F84B
 0001:0001E860       CMIDI::ConvertToBuffer(ulong,CONVERTINFO *)
 0001:0001E89F       loc_41F89F
 0001:0001E8C3       loc_41F8C3
 0001:0001E8CF       loc_41F8CF
 0001:0001E8DF       loc_41F8DF
 0001:0001E903       loc_41F903
 0001:0001E91B       loc_41F91B
 0001:0001E932       loc_41F932
 0001:0001E948       loc_41F948
 0001:0001E96C       loc_41F96C
 0001:0001E980       loc_41F980
 0001:0001E9D1       loc_41F9D1
 0001:0001E9D7       loc_41F9D7
 0001:0001EA0A       loc_41FA0A
 0001:0001EA32       loc_41FA32
 0001:0001EA49       loc_41FA49
 0001:0001EA63       loc_41FA63
 0001:0001EA6B       loc_41FA6B
 0001:0001EA87       loc_41FA87
 0001:0001EAA0       CMIDI::GetTrackEvent(TRACK *,TEMPEVENT *)
 0001:0001EAD2       loc_41FAD2
 0001:0001EB02       loc_41FB02
 0001:0001EB50       loc_41FB50
 0001:0001EB6F       loc_41FB6F
 0001:0001EB74       loc_41FB74
 0001:0001EBC7       loc_41FBC7
 0001:0001EC1B       loc_41FC1B
 0001:0001EC39       loc_41FC39
 0001:0001EC4E       loc_41FC4E
 0001:0001EC7E       loc_41FC7E
 0001:0001EC8C       loc_41FC8C
 0001:0001ECA7       loc_41FCA7
 0001:0001ECC1       loc_41FCC1
 0001:0001ECD6       loc_41FCD6
 0001:0001ED02       loc_41FD02
 0001:0001ED1E       loc_41FD1E
 0001:0001ED28       loc_41FD28
 0001:0001ED34       loc_41FD34
 0001:0001ED50       CMIDI::GetTrackVDWord(TRACK *,ulong *)
 0001:0001ED5C       loc_41FD5C
 0001:0001ED64       loc_41FD64
 0001:0001ED6C       loc_41FD6C
 0001:0001EDA0       CMIDI::AddEventToStreamBuffer(TEMPEVENT *,CONVERTINFO *)
 0001:0001EDC3       loc_41FDC3
 0001:0001EDE6       loc_41FDE6
 0001:0001EDED       loc_41FDED
 0001:0001EE1A       loc_41FE1A
 0001:0001EE51       loc_41FE51
 0001:0001EE71       loc_41FE71
 0001:0001EEA3       loc_41FEA3
 0001:0001EEB5       loc_41FEB5
 0001:0001EEEA       loc_41FEEA
 0001:0001EEF6       loc_41FEF6
 0001:0001EF22       loc_41FF22
 0001:0001EF2E       loc_41FF2E
 0001:0001EFA6       loc_41FFA6
 0001:0001EFB8       loc_41FFB8
 0001:0001EFD9       loc_41FFD9
 0001:0001EFF0       CMIDI::StreamBufferSetup(void)
 0001:0001F007       loc_420007
 0001:0001F037       loc_420037
 0001:0001F0A4       loc_4200A4
 0001:0001F0C5       loc_4200C5
 0001:0001F0E5       loc_4200E5
 0001:0001F10C       loc_42010C
 0001:0001F114       loc_420114
 0001:0001F11E       loc_42011E
 0001:0001F12E       loc_42012E
 0001:0001F20B       loc_42020B
 0001:0001F25E       loc_42025E
 0001:0001F2B6       loc_4202B6
 0001:0001F2BE       loc_4202BE
 0001:0001F2E0       CMIDI::FreeBuffers(void)
 0001:0001F2F4       loc_4202F4
 0001:0001F311       loc_420311
 0001:0001F324       loc_420324
 0001:0001F326       loc_420326
 0001:0001F349       loc_420349
 0001:0001F360       nullsub_22
 0001:0001F370       nullsub_4
 0001:0001F380       CMIDI::OnMidiOutDone(midihdr_tag &)
 0001:0001F3C6       loc_4203C6
 0001:0001F3E6       loc_4203E6
 0001:0001F4C7       loc_4204C7
 0001:0001F51C       loc_42051C
 0001:0001F52C       loc_42052C
 0001:0001F536       loc_420536
 0001:0001F540       CMIDI::OnMidiOutPositionCB(midihdr_tag &,midievent_tag &)
 0001:0001F5A6       loc_4205A6
 0001:0001F5A9       loc_4205A9
 0001:0001F5FB       loc_4205FB
 0001:0001F610       CMIDI::OnMidiOutClose(void)
 0001:0001F620       locret_420620
 0001:0001F630       CMIDI::MidiProc(HMIDIOUT__ *,uint,ulong,ulong,ulong)
 0001:0001F645       loc_420645
 0001:0001F651       loc_420651
 0001:0001F65D       loc_42065D
 0001:0001F66E       loc_42066E
 0001:0001F688       locret_420688
 0001:0001F68C       off_42068C
 0001:0001F6A0       unknown_libname_225
 0001:0001F6D0       std::vector<TRACK,std::allocator<TRACK>>::size(void)
 0001:0001F6D8       loc_4206D8
 0001:0001F700       std::vector<TRACK,std::allocator<TRACK>>::insert(TRACK *,uint,TRACK const &)
 0001:0001F754       loc_420754
 0001:0001F756       loc_420756
 0001:0001F75E       loc_42075E
 0001:0001F771       loc_420771
 0001:0001F77E       loc_42077E
 0001:0001F79E       loc_42079E
 0001:0001F7B1       loc_4207B1
 0001:0001F7BB       loc_4207BB
 0001:0001F7C3       loc_4207C3
 0001:0001F7D8       loc_4207D8
 0001:0001F7DE       loc_4207DE
 0001:0001F803       loc_420803
 0001:0001F81A       loc_42081A
 0001:0001F824       loc_420824
 0001:0001F867       loc_420867
 0001:0001F896       loc_420896
 0001:0001F8CD       loc_4208CD
 0001:0001F8E4       loc_4208E4
 0001:0001F8EE       loc_4208EE
 0001:0001F910       loc_420910
 0001:0001F927       loc_420927
 0001:0001F92D       loc_42092D
 0001:0001F936       loc_420936
 0001:0001F94C       loc_42094C
 0001:0001F962       loc_420962
 0001:0001F97B       loc_42097B
 0001:0001F992       loc_420992
 0001:0001F99C       loc_42099C
 0001:0001F9A7       loc_4209A7
 0001:0001F9C6       loc_4209C6
 0001:0001F9D3       loc_4209D3
 0001:0001F9E9       loc_4209E9
 0001:0001F9EC       loc_4209EC
 0001:0001FA00       std::vector<TRACK,std::allocator<TRACK>>::erase(TRACK *,TRACK *)
 0001:0001FA15       loc_420A15
 0001:0001FA2C       loc_420A2C
 0001:0001FA40       nullsub_5
 0001:0001FA50       unknown_libname_226
 0001:0001FA86       loc_420A86
 0001:0001FA88       loc_420A88
 0001:0001FA90       loc_420A90
 0001:0001FA95       loc_420A95
 0001:0001FAA1       loc_420AA1
 0001:0001FAC2       loc_420AC2
 0001:0001FACA       loc_420ACA
 0001:0001FAD4       loc_420AD4
 0001:0001FAE0       loc_420AE0
 0001:0001FAEC       loc_420AEC
 0001:0001FAF2       loc_420AF2
 0001:0001FB0B       loc_420B0B
 0001:0001FB13       loc_420B13
 0001:0001FB1D       loc_420B1D
 0001:0001FB5D       loc_420B5D
 0001:0001FB7A       loc_420B7A
 0001:0001FB9B       loc_420B9B
 0001:0001FBA7       loc_420BA7
 0001:0001FBB1       loc_420BB1
 0001:0001FBC3       loc_420BC3
 0001:0001FBCB       loc_420BCB
 0001:0001FBD1       loc_420BD1
 0001:0001FBDA       loc_420BDA
 0001:0001FBE5       loc_420BE5
 0001:0001FBF7       loc_420BF7
 0001:0001FC08       loc_420C08
 0001:0001FC10       loc_420C10
 0001:0001FC1A       loc_420C1A
 0001:0001FC25       loc_420C25
 0001:0001FC34       loc_420C34
 0001:0001FC41       loc_420C41
 0001:0001FC4C       loc_420C4C
 0001:0001FC4F       loc_420C4F
 0001:0001FC60       std::vector<CONVERTINFO,std::allocator<CONVERTINFO>>::size(void)
 0001:0001FC68       loc_420C68
 0001:0001FC90       std::vector<CONVERTINFO,std::allocator<CONVERTINFO>>::insert(CONVERTINFO *,uint,CONVERTINFO const &)
 0001:0001FCE4       loc_420CE4
 0001:0001FCE6       loc_420CE6
 0001:0001FCEE       loc_420CEE
 0001:0001FD01       loc_420D01
 0001:0001FD0D       loc_420D0D
 0001:0001FD36       loc_420D36
 0001:0001FD49       loc_420D49
 0001:0001FD53       loc_420D53
 0001:0001FD5B       loc_420D5B
 0001:0001FD70       loc_420D70
 0001:0001FD76       loc_420D76
 0001:0001FDA3       loc_420DA3
 0001:0001FDBA       loc_420DBA
 0001:0001FDC4       loc_420DC4
 0001:0001FDF9       loc_420DF9
 0001:0001FE0F       loc_420E0F
 0001:0001FE30       loc_420E30
 0001:0001FE6F       loc_420E6F
 0001:0001FE86       loc_420E86
 0001:0001FE90       loc_420E90
 0001:0001FEB2       loc_420EB2
 0001:0001FEC9       loc_420EC9
 0001:0001FECF       loc_420ECF
 0001:0001FED8       loc_420ED8
 0001:0001FEEE       loc_420EEE
 0001:0001FF04       loc_420F04
 0001:0001FF25       loc_420F25
 0001:0001FF3C       loc_420F3C
 0001:0001FF46       loc_420F46
 0001:0001FF51       loc_420F51
 0001:0001FF70       loc_420F70
 0001:0001FF7D       loc_420F7D
 0001:0001FF93       loc_420F93
 0001:0001FF96       loc_420F96
 0001:0001FFA0       std::vector<CONVERTINFO,std::allocator<CONVERTINFO>>::erase(CONVERTINFO *,CONVERTINFO *)
 0001:0001FFB5       loc_420FB5
 0001:0001FFCC       loc_420FCC
 0001:0001FFE0       std::copy(TRACK *,TRACK *,TRACK *)
 0001:0001FFF3       loc_420FF3
 0001:0002000C       loc_42100C
 0001:00020020       std::copy(CONVERTINFO *,CONVERTINFO *,CONVERTINFO *)
 0001:00020033       loc_421033
 0001:0002004C       loc_42104C
 0001:00020060       CDllFunc::SetDllFuncs(int (*)(void),int (*(*)(char const *))(void),void (*)(void))
 0001:00020073       loc_421073
 0001:00020094       loc_421094
 0001:000200B0       CDllFunc::GetProc(char *)
 0001:000200C6       loc_4210C6
 0001:000200CD       loc_4210CD
 0001:000200DA       loc_4210DA
 0001:000200F0       CBaseSockWnd::MCloseSocket(uint)
 0001:00020110       CUDPSockWnd::OnDataIncoming(uint,long)
 0001:00020161       loc_421161
 0001:000201BC       loc_4211BC
 0001:000201D5       loc_4211D5
 0001:000201F0       CClientSockWnd::OnDataIncoming(uint,long)
 0001:00020225       loc_421225
 0001:0002023E       loc_42123E
 0001:0002026A       loc_42126A
 0001:00020294       loc_421294
 0001:000202D2       loc_4212D2
 0001:000202EA       loc_4212EA
 0001:00020317       loc_421317
 0001:00020330       CServerSockWnd::OnAccept(uint,long)
 0001:0002034D       loc_42134D
 0001:0002038E       loc_42138E
 0001:0002042B       loc_42142B
 0001:00020450       CServerSockWnd::OnDataIncoming(uint,long)
 0001:00020489       loc_421489
 0001:000204AA       loc_4214AA
 0001:000204C3       loc_4214C3
 0001:00020517       loc_421517
 0001:00020524       loc_421524
 0001:00020552       loc_421552
 0001:00020577       loc_421577
 0001:000205B4       loc_4215B4
 0001:000205CB       loc_4215CB
 0001:000205D9       loc_4215D9
 0001:000205EF       loc_4215EF
 0001:00020617       loc_421617
 0001:00020630       exception::exception(void)
 0001:00020650       CPing::`scalar deleting destructor'(uint)
 0001:00020668       loc_421668
 0001:00020670       CPing::~CPing(void)
 0001:00020687       loc_421687
 0001:00020696       locret_421696
 0001:000206A0       CSerial::ClearEventBuf(void)
 0001:000206D0       CSerial::OnHasEvent(uint,long)
 0001:00020778       loc_421778
 0001:00020781       loc_421781
 0001:000207B9       loc_4217B9
 0001:000207CE       loc_4217CE
 0001:000207E3       loc_4217E3
 0001:000207F8       loc_4217F8
 0001:0002080D       loc_42180D
 0001:0002081F       loc_42181F
 0001:00020831       loc_421831
 0001:00020843       loc_421843
 0001:00020855       loc_421855
 0001:00020867       loc_421867
 0001:00020879       loc_421879
 0001:00020891       loc_421891
 0001:000208A1       loc_4218A1
 0001:000208A6       loc_4218A6
 0001:000208DB       off_4218DB
 0001:00020910       CMDataSource::AddProcessor(CProcessor *)
 0001:00020957       loc_421957
 0001:00020971       loc_421971
 0001:000209A1       loc_4219A1
 0001:000209BF       loc_4219BF
 0001:000209DD       loc_4219DD
 0001:000209E9       loc_4219E9
 0001:000209F7       loc_4219F7
 0001:00020A51       loc_421A51
 0001:00020A60       CMDataSource::RemoveProcessor(CProcessor *)
 0001:00020A96       loc_421A96
 0001:00020A99       loc_421A99
 0001:00020AA0       CMDataSource::FindProcessor(CProcessor *)
 0001:00020AB1       loc_421AB1
 0001:00020ABD       loc_421ABD
 0001:00020AC0       loc_421AC0
 0001:00020AD0       CMDataSource::SetProvider(CProvider *)
 0001:00020B00       CMDataSource::CheckRowIndex(int)
 0001:00020B22       loc_421B22
 0001:00020B30       CMDataSource::CheckColIndex(int)
 0001:00020B52       loc_421B52
 0001:00020B60       CMDataSource::CheckRowColIndex(int,int)
 0001:00020B8A       loc_421B8A
 0001:00020B90       CMDataSource::CheckRow(int,int *)
 0001:00020BB9       loc_421BB9
 0001:00020BCA       loc_421BCA
 0001:00020BD0       loc_421BD0
 0001:00020BDB       loc_421BDB
 0001:00020BE0       CMDataSource::CheckCol(int,int *)
 0001:00020C09       loc_421C09
 0001:00020C1A       loc_421C1A
 0001:00020C20       loc_421C20
 0001:00020C2B       loc_421C2B
 0001:00020C30       CMDataSource::CheckRowCol(int,int *,int,int *)
 0001:00020C66       loc_421C66
 0001:00020C70       CMDataSource::SaveChange(void)
 0001:00020C92       loc_421C92
 0001:00020CA0       CMDataSource::GetRowCount(void)
 0001:00020CAC       loc_421CAC
 0001:00020CB0       CMDataSource::GetRowHeight(int)
 0001:00020CD0       loc_421CD0
 0001:00020CE0       CMDataSource::GetColCount(void)
 0001:00020CEC       loc_421CEC
 0001:00020CF0       CMDataSource::GetColWidth(int)
 0001:00020D10       loc_421D10
 0001:00020D20       CMDataSource::GetColName(int,CString &)
 0001:00020D45       loc_421D45
 0001:00020D60       CMDataSource::GetFixedRowCount(void)
 0001:00020D6C       loc_421D6C
 0001:00020D70       CMDataSource::GetFixedColCount(void)
 0001:00020D7C       loc_421D7C
 0001:00020D80       CMDataSource::GetCell(CELL *,int,int,int)
 0001:00020DB2       loc_421DB2
 0001:00020DC0       unknown_libname_371
 0001:00020E38       loc_421E38
 0001:00020E60       CMDataSource::GetShowText(int,int,CString &)
 0001:00020EB9       loc_421EB9
 0001:00020EC2       loc_421EC2
 0001:00020EF0       CMDataSource::GetText(int,int,CString &)
 0001:00020F49       loc_421F49
 0001:00020F52       loc_421F52
 0001:00020F80       CMDataSource::IsReadOnly(void)
 0001:00020F90       CMDataSource::GetProvider(void)
 0001:00020FA0       CMDataSource::SetRowHeight(int,int,int)
 0001:00020FE0       loc_421FE0
 0001:00020FF0       CMDataSource::SetColWidth(int,int,int)
 0001:00021030       loc_422030
 0001:00021040       CMDataSource::NotifyCellModified(int,int,int,int)
 0001:00021080       CMDataSource::SetText(int,int,char *)
 0001:000210C2       loc_4220C2
 0001:000210D0       CMDataSource::GetCellsData(CFreqMem &,int,int,int,int)
 0001:00021157       loc_422157
 0001:00021184       loc_422184
 0001:000211B0       CMDataSource::SetCellsData(uchar *,int,int,int,int,int *,int *,int *,int)
 0001:000211E9       loc_4221E9
 0001:00021270       CMDataSource::LoadCellsData(CFile *,int,int,int,int *,int *,int *,int)
 0001:00021313       loc_422313
 0001:0002132F       loc_42232F
 0001:0002133B       loc_42233B
 0001:00021350       loc_422350
 0001:0002139B       loc_42239B
 0001:000213A7       loc_4223A7
 0001:000213F7       loc_4223F7
 0001:0002141A       loc_42241A
 0001:0002144A       sub_42244A
 0001:00021460       CMDataSource::SaveCellsData(CFile *,int,int,int,int)
 0001:000214E3       loc_4224E3
 0001:0002153B       loc_42253B
 0001:00021547       loc_422547
 0001:00021553       loc_422553
 0001:00021570       CMDataSource::GetIndependRect(CRect &)
 0001:00021584       loc_422584
 0001:0002158D       loc_42258D
 0001:000215BD       loc_4225BD
 0001:000215C2       loc_4225C2
 0001:000215C5       loc_4225C5
 0001:000215CA       loc_4225CA
 0001:000215D4       loc_4225D4
 0001:00021603       loc_422603
 0001:00021607       loc_422607
 0001:0002160A       loc_42260A
 0001:00021613       loc_422613
 0001:00021615       loc_422615
 0001:00021620       CMDataSource::SetupPrinterInfo(void)
 0001:00021678       loc_422678
 0001:00021898       loc_422898
 0001:00021AE2       loc_422AE2
 0001:00021AF6       loc_422AF6
 0001:00021B10       CPrinterSetup::~CPrinterSetup(void)
 0001:00021CE0       CMDataSource::GetPrintInfo(void)
 0001:00021CEA       loc_422CEA
 0001:00021CF0       CMDataSource::CreatePrinterDC(void)
 0001:00021D23       loc_422D23
 0001:00021D4D       loc_422D4D
 0001:00021DFC       loc_422DFC
 0001:00021EBB       loc_422EBB
 0001:00021EDB       loc_422EDB
 0001:00021EEE       loc_422EEE
 0001:00021F04       loc_422F04
 0001:00021F6C       loc_422F6C
 0001:00021FFF       loc_422FFF
 0001:0002201D       loc_42301D
 0001:00022076       loc_423076
 0001:000220D0       loc_4230D0
 0001:000220F0       CMDataSource::CalcutePrePage(int,int,CMPrintInfo const *,CMArray<PAGE_PRINT_INFO> &)
 0001:00022145       loc_423145
 0001:00022155       loc_423155
 0001:00022172       loc_423172
 0001:00022183       loc_423183
 0001:00022188       loc_423188
 0001:000221AE       loc_4231AE
 0001:000221C2       loc_4231C2
 0001:000221D8       loc_4231D8
 0001:000221EA       loc_4231EA
 0001:000221F4       loc_4231F4
 0001:000221FB       loc_4231FB
 0001:00022206       loc_423206
 0001:00022237       loc_423237
 0001:0002223D       loc_42323D
 0001:00022253       loc_423253
 0001:0002225D       loc_42325D
 0001:00022278       loc_423278
 0001:00022281       loc_423281
 0001:000222B3       loc_4232B3
 0001:000222B7       loc_4232B7
 0001:000222C7       loc_4232C7
 0001:000222CF       loc_4232CF
 0001:000222EF       loc_4232EF
 0001:000222F9       loc_4232F9
 0001:00022331       loc_423331
 0001:00022333       loc_423333
 0001:00022337       loc_423337
 0001:00022359       loc_423359
 0001:0002237C       loc_42337C
 0001:00022386       loc_423386
 0001:0002239D       loc_42339D
 0001:000223B1       loc_4233B1
 0001:000223DE       loc_4233DE
 0001:000223EB       loc_4233EB
 0001:0002240F       loc_42340F
 0001:0002241E       loc_42341E
 0001:0002243C       loc_42343C
 0001:00022448       loc_423448
 0001:00022452       loc_423452
 0001:000224A9       loc_4234A9
 0001:000224AD       loc_4234AD
 0001:000224D1       loc_4234D1
 0001:000224E2       loc_4234E2
 0001:000224FE       loc_4234FE
 0001:00022510       CMDataSource::FindColIndex(char *)
 0001:00022577       loc_423577
 0001:00022589       loc_423589
 0001:0002259D       loc_42359D
 0001:000225BD       loc_4235BD
 0001:000225C1       loc_4235C1
 0001:000225C6       loc_4235C6
 0001:000225D3       loc_4235D3
 0001:000225E4       loc_4235E4
 0001:000225E7       loc_4235E7
 0001:000225FC       loc_4235FC
 0001:00022620       CMArray<PAGE_PRINT_INFO>::SetSize(int,int)
 0001:00022631       loc_423631
 0001:0002264C       loc_42364C
 0001:00022658       loc_423658
 0001:00022679       loc_423679
 0001:00022689       loc_423689
 0001:000226A8       loc_4236A8
 0001:000226B4       loc_4236B4
 0001:000226BF       loc_4236BF
 0001:00022710       CProvider::StrToBOOL(char *)
 0001:0002271F       loc_42371F
 0001:0002273A       loc_42373A
 0001:0002273F       loc_42373F
 0001:00022750       CMPrintInfo::CMPrintInfo(void)
 0001:000227C0       CMPrintInfo::~CMPrintInfo(void)
 0001:00022820       CMPrintInfo::init(void)
 0001:000228A0       CMPrintInfo::GetPrintScale(void)
 0001:000228B5       loc_4238B5
 0001:000228BA       loc_4238BA
 0001:000228C0       loc_4238C0
 0001:000228CA       loc_4238CA
 0001:000228D6       locret_4238D6
 0001:000228E0       CMPrintInfo::CopyFrom(CMPrintInfo const *)
 0001:00022970       loc_423970
 0001:00022973       loc_423973
 0001:00022999       loc_423999
 0001:000229A0       CArchive::operator>>(ushort &)
 0001:000229BD       loc_4239BD
 0001:000229E0       CELL::CELL(void)
 0001:00022A10       CELL::FreeData(void)
 0001:00022A20       CELL::FreeData(void)
 0001:00022A3A       loc_423A3A
 0001:00022A60       loc_423A60
 0001:00022A73       loc_423A73
 0001:00022A7F       loc_423A7F
 0001:00022A90       CELL::GetType(void)
 0001:00022A9F       loc_423A9F
 0001:00022AAA       loc_423AAA
 0001:00022AC0       CELL::GetState(void)
 0001:00022AD0       sub_423AD0
 0001:00022AE0       CELL::GetFaceName(CString &)
 0001:00022AF8       loc_423AF8
 0001:00022B10       CELL::GetFontSize(void)
 0001:00022B20       CELL::GetExtra(void)
 0001:00022B30       CELL::GetPicInf(void)
 0001:00022B51       loc_423B51
 0001:00022B6A       loc_423B6A
 0001:00022B80       loc_423B80
 0001:00022B83       loc_423B83
 0001:00022BA9       loc_423BA9
 0001:00022BAB       loc_423BAB
 0001:00022BAE       loc_423BAE
 0001:00022BB9       loc_423BB9
 0001:00022BBB       loc_423BBB
 0001:00022BC0       CELL::GetShowText(CString &)
 0001:00022C3E       loc_423C3E
 0001:00022C5A       loc_423C5A
 0001:00022C80       CELL::GetText(CString &)
 0001:00022CA1       loc_423CA1
 0001:00022CB0       CELL::GetData(int *)
 0001:00022CC7       loc_423CC7
 0001:00022CE0       CELL::SetState(ulong)
 0001:00022CF0       CELL::Serialize(CArchive &)
 0001:00022D29       loc_423D29
 0001:00022D2E       loc_423D2E
 0001:00022D53       loc_423D53
 0001:00022D79       loc_423D79
 0001:00022DC7       loc_423DC7
 0001:00022DF5       loc_423DF5
 0001:00022E27       loc_423E27
 0001:00022E41       loc_423E41
 0001:00022E64       loc_423E64
 0001:00022E87       loc_423E87
 0001:00022EAB       loc_423EAB
 0001:00022ED4       loc_423ED4
 0001:00022F06       loc_423F06
 0001:00022F21       loc_423F21
 0001:00022F38       loc_423F38
 0001:00022F59       loc_423F59
 0001:00022F60       unknown_libname_227
 0001:00022FD8       loc_423FD8
 0001:00023000       CProvider::LoadCellsData(CArchive &,int,int,int,int *,int *,int)
 0001:0002303C       loc_42403C
 0001:00023062       loc_424062
 0001:0002307B       loc_42407B
 0001:00023085       loc_424085
 0001:000230CA       loc_4240CA
 0001:000230D7       loc_4240D7
 0001:000230F2       loc_4240F2
 0001:000230F6       loc_4240F6
 0001:00023111       loc_424111
 0001:00023134       loc_424134
 0001:00023144       loc_424144
 0001:0002318F       loc_42418F
 0001:000231A1       loc_4241A1
 0001:000231B5       loc_4241B5
 0001:000231CD       loc_4241CD
 0001:000231D6       loc_4241D6
 0001:000231E7       loc_4241E7
 0001:00023200       CProvider::SaveCellsData(CArchive &,int,int,int,int)
 0001:0002323A       loc_42423A
 0001:0002325E       loc_42425E
 0001:00023286       loc_424286
 0001:00023297       loc_424297
 0001:000232BC       loc_4242BC
 0001:000232D7       loc_4242D7
 0001:000232E0       loc_4242E0
 0001:00023310       CNormalProvider::MInitSize(int,int)
 0001:00023330       ATL::CAtlArray<void *,ATL::CElementTraits<void *>>::~CAtlArray<void *,ATL::CElementTraits<void *>>(void)
 0001:0002333D       locret_42433D
 0001:00023350       unknown_libname_228
 0001:00023370       CDCRemember::CDCRemember(CDC *)
 0001:00023390       CDCRemember::~CDCRemember(void)
 0001:000233A0       CMGrid::GetRowHeight(int)
 0001:000233D6       loc_4243D6
 0001:00023414       loc_424414
 0001:00023469       loc_424469
 0001:00023480       CMGrid::GetColWidth(int)
 0001:000234B6       loc_4244B6
 0001:000234F4       loc_4244F4
 0001:00023549       loc_424549
 0001:00023560       CMGrid::GetHeaderSize(void)
 0001:00023590       loc_424590
 0001:000235C4       loc_4245C4
 0001:00023619       loc_424619
 0001:00023627       loc_424627
 0001:00023640       CMGrid::AddCX(int,int)
 0001:000236CF       loc_4246CF
 0001:00023770       CMGrid::AddCY(int,int)
 0001:000237FF       loc_4247FF
 0001:000238A0       CMGrid::GetDrawMode(void)
 0001:000238B0       CMGrid::SetDrawMode(int)
 0001:000238C0       CMGrid::CloseEdit(int)
 0001:000238FA       loc_4248FA
 0001:00023906       loc_424906
 0001:00023910       CMGrid::GetDataSource(void)
 0001:00023920       CMGrid::SetDataSource(CMDataSource *)
 0001:00023960       CMGrid::CreateHeaderFont(CFont &)
 0001:000239D0       CMGrid::OnMouseWheel(uint,short,CPoint)
 0001:000239E1       loc_4249E1
 0001:00023A4C       loc_424A4C
 0001:00023A58       loc_424A58
 0001:00023A78       loc_424A78
 0001:00023A9F       loc_424A9F
 0001:00023AB0       CMGrid::IsCaretRowValid(int)
 0001:00023AC0       loc_424AC0
 0001:00023AE6       loc_424AE6
 0001:00023AF0       CMGrid::IsCaretColValid(int)
 0001:00023B00       loc_424B00
 0001:00023B26       loc_424B26
 0001:00023B30       CMGrid::IsSelectionValid(void)
 0001:00023B7E       loc_424B7E
 0001:00023B90       CMGrid::InitScrollBar(int)
 0001:00023BD7       loc_424BD7
 0001:00023BFB       loc_424BFB
 0001:00023C18       loc_424C18
 0001:00023C33       loc_424C33
 0001:00023C3B       loc_424C3B
 0001:00023C43       loc_424C43
 0001:00023C47       loc_424C47
 0001:00023C4E       loc_424C4E
 0001:00023C57       loc_424C57
 0001:00023C7B       loc_424C7B
 0001:00023C92       loc_424C92
 0001:00023CBC       loc_424CBC
 0001:00023CC4       loc_424CC4
 0001:00023CCC       loc_424CCC
 0001:00023CD0       loc_424CD0
 0001:00023CE0       loc_424CE0
 0001:00023CF0       CMGrid::OnCreate(tagCREATESTRUCTA *)
 0001:00023D03       loc_424D03
 0001:00023D30       CMGrid::OnPaint(void)
 0001:00023DBC       loc_424DBC
 0001:000242C4       loc_4252C4
 0001:000242F7       loc_4252F7
 0001:000242FA       loc_4252FA
 0001:00024357       loc_425357
 0001:0002438A       loc_42538A
 0001:000243A6       loc_4253A6
 0001:000243B2       loc_4253B2
 0001:000243CE       loc_4253CE
 0001:000244C3       loc_4254C3
 0001:000244E8       loc_4254E8
 0001:000244EC       loc_4254EC
 0001:00024514       loc_425514
 0001:000245D2       loc_4255D2
 0001:00024606       loc_425606
 0001:0002460A       loc_42560A
 0001:00024726       loc_425726
 0001:0002472F       loc_42572F
 0001:00024741       loc_425741
 0001:00024825       loc_425825
 0001:0002482B       loc_42582B
 0001:0002483C       loc_42583C
 0001:0002486C       loc_42586C
 0001:00024872       loc_425872
 0001:0002488F       loc_42588F
 0001:00024999       loc_425999
 0001:00024A9E       loc_425A9E
 0001:00024B03       loc_425B03
 0001:00024B1C       loc_425B1C
 0001:00024B25       loc_425B25
 0001:00024B6A       loc_425B6A
 0001:00024B7E       loc_425B7E
 0001:00024BE3       loc_425BE3
 0001:00024C1F       loc_425C1F
 0001:00024C33       loc_425C33
 0001:00024C98       loc_425C98
 0001:00024C9A       loc_425C9A
 0001:00024CDB       loc_425CDB
 0001:00024CDD       loc_425CDD
 0001:00024CFC       loc_425CFC
 0001:00024D51       loc_425D51
 0001:00024D5D       loc_425D5D
 0001:00024D69       loc_425D69
 0001:00024D7F       loc_425D7F
 0001:00024D88       loc_425D88
 0001:00024D9A       loc_425D9A
 0001:00024E1D       loc_425E1D
 0001:00024E6B       loc_425E6B
 0001:00024E7E       loc_425E7E
 0001:00024EBC       loc_425EBC
 0001:00024EE8       loc_425EE8
 0001:00024EEC       loc_425EEC
 0001:00024EF9       loc_425EF9
 0001:00024F0F       loc_425F0F
 0001:00024F5F       loc_425F5F
 0001:00024F8D       loc_425F8D
 0001:00024F92       loc_425F92
 0001:00024FAC       loc_425FAC
 0001:00024FB9       loc_425FB9
 0001:0002507D       loc_42607D
 0001:000250A3       loc_4260A3
 0001:000250F0       loc_4260F0
 0001:00025133       loc_426133
 0001:0002514F       loc_42614F
 0001:00025180       loc_426180
 0001:00025214       loc_426214
 0001:00025228       loc_426228
 0001:0002533D       loc_42633D
 0001:00025355       loc_426355
 0001:00025358       loc_426358
 0001:0002538E       loc_42638E
 0001:000253C0       CMGrid::GetHeaderAndFixedSize(void)
 0001:000253EB       loc_4263EB
 0001:00025411       loc_426411
 0001:0002542F       loc_42642F
 0001:00025440       loc_426440
 0001:00025458       loc_426458
 0001:00025470       CMGrid::DrawSelection(void)
 0001:000254C5       loc_4264C5
 0001:000254D1       loc_4264D1
 0001:00025697       loc_426697
 0001:000256B0       CMGrid::InvalidateCell(int,int)
 0001:0002571F       loc_42671F
 0001:00025730       CMGrid::GetCellsDPShowRect(int,int,int,int)
 0001:000257D9       loc_4267D9
 0001:000258A0       CMGrid::SelectTo(int,int,REFRUSH_MODE)
 0001:000258D2       loc_4268D2
 0001:000258D4       loc_4268D4
 0001:000258EC       loc_4268EC
 0001:000258FE       loc_4268FE
 0001:00025916       loc_426916
 0001:0002592C       loc_42692C
 0001:0002593E       loc_42693E
 0001:00025942       loc_426942
 0001:000259B8       loc_4269B8
 0001:000259C6       loc_4269C6
 0001:000259D4       loc_4269D4
 0001:000259E2       loc_4269E2
 0001:00025A13       loc_426A13
 0001:00025A1F       loc_426A1F
 0001:00025A38       loc_426A38
 0001:00025A44       loc_426A44
 0001:00025A5E       loc_426A5E
 0001:00025A77       loc_426A77
 0001:00025AF0       loc_426AF0
 0001:00025B00       CMGrid::Select(int,int,int,int)
 0001:00025B40       CMGrid::SetCaret(int,int,int,REFRUSH_MODE,int)
 0001:00025B95       loc_426B95
 0001:00025BAD       loc_426BAD
 0001:00025BB1       loc_426BB1
 0001:00025BCD       loc_426BCD
 0001:00025BDF       loc_426BDF
 0001:00025BF7       loc_426BF7
 0001:00025BFB       loc_426BFB
 0001:00025C17       loc_426C17
 0001:00025C29       loc_426C29
 0001:00025C86       loc_426C86
 0001:00025CA3       loc_426CA3
 0001:00025CC4       loc_426CC4
 0001:00025CFB       loc_426CFB
 0001:00025D10       CMGrid::_GetVisibleCells(int,int)
 0001:00025D69       loc_426D69
 0001:00025E0E       loc_426E0E
 0001:00025E30       loc_426E30
 0001:00025E34       loc_426E34
 0001:00025E38       loc_426E38
 0001:00025E3A       loc_426E3A
 0001:00025E4B       loc_426E4B
 0001:00025E51       loc_426E51
 0001:00025E56       loc_426E56
 0001:00025E6F       loc_426E6F
 0001:00025E95       loc_426E95
 0001:00025E9D       loc_426E9D
 0001:00025EA1       loc_426EA1
 0001:00025EA7       loc_426EA7
 0001:00025EB0       loc_426EB0
 0001:00025EB6       loc_426EB6
 0001:00025EB9       loc_426EB9
 0001:00025F10       CMGrid::ChkCellVisible(int,int,REFRUSH_MODE)
 0001:00025F8A       loc_426F8A
 0001:00025F9D       loc_426F9D
 0001:00025FB3       loc_426FB3
 0001:00025FC0       CMGrid::_ChkCellVisible(int,int,int &,int &)
 0001:00026071       loc_427071
 0001:00026079       loc_427079
 0001:00026106       loc_427106
 0001:0002612A       loc_42712A
 0001:00026132       loc_427132
 0001:00026133       loc_427133
 0001:0002613B       loc_42713B
 0001:00026147       loc_427147
 0001:0002614D       loc_42714D
 0001:0002617F       loc_42717F
 0001:00026199       loc_427199
 0001:00026224       loc_427224
 0001:00026248       loc_427248
 0001:00026249       loc_427249
 0001:00026251       loc_427251
 0001:0002625D       loc_42725D
 0001:00026263       loc_427263
 0001:0002628E       loc_42728E
 0001:000262B0       CMGrid::GetCellShowRect(int,int,int,int)
 0001:0002634E       loc_42734E
 0001:00026376       loc_427376
 0001:0002637C       loc_42737C
 0001:00026398       loc_427398
 0001:0002639C       loc_42739C
 0001:000263AA       loc_4273AA
 0001:000263D2       loc_4273D2
 0001:000263D8       loc_4273D8
 0001:000263F4       loc_4273F4
 0001:000263FC       loc_4273FC
 0001:0002641A       loc_42741A
 0001:00026424       loc_427424
 0001:00026444       loc_427444
 0001:0002645A       loc_42745A
 0001:00026464       loc_427464
 0001:00026480       loc_427480
 0001:00026486       loc_427486
 0001:000264B0       CMGrid::MCreateFont(CELL *,CFont *,int)
 0001:00026542       loc_427542
 0001:0002654C       loc_42754C
 0001:00026556       loc_427556
 0001:00026560       loc_427560
 0001:00026578       loc_427578
 0001:000265D7       loc_4275D7
 0001:00026620       CMGrid::DrawCell(CDC *,int,int,int,int,ulong,CRect *,CRect *)
 0001:000266A3       loc_4276A3
 0001:000266EE       loc_4276EE
 0001:0002670A       loc_42770A
 0001:00026774       loc_427774
 0001:00026791       loc_427791
 0001:000267C0       loc_4277C0
 0001:000267CA       loc_4277CA
 0001:000267CC       loc_4277CC
 0001:0002682F       loc_42782F
 0001:00026853       loc_427853
 0001:000268E8       loc_4278E8
 0001:00026924       loc_427924
 0001:0002695C       loc_42795C
 0001:0002695F       loc_42795F
 0001:0002698D       loc_42798D
 0001:00026994       loc_427994
 0001:00026A3C       loc_427A3C
 0001:00026A43       loc_427A43
 0001:00026A48       loc_427A48
 0001:00026A66       loc_427A66
 0001:00026A6B       loc_427A6B
 0001:00026A6E       loc_427A6E
 0001:00026AAD       loc_427AAD
 0001:00026AB0       loc_427AB0
 0001:00026AC7       loc_427AC7
 0001:00026B26       loc_427B26
 0001:00026B3C       loc_427B3C
 0001:00026B4A       loc_427B4A
 0001:00026BEF       loc_427BEF
 0001:00026C12       loc_427C12
 0001:00026C83       loc_427C83
 0001:00026CC5       loc_427CC5
 0001:00026CD1       loc_427CD1
 0001:00026CE4       loc_427CE4
 0001:00026D02       loc_427D02
 0001:00026D14       loc_427D14
 0001:00026D2B       loc_427D2B
 0001:00026D48       loc_427D48
 0001:00026D8A       loc_427D8A
 0001:00026DA6       loc_427DA6
 0001:00026DC4       loc_427DC4
 0001:00026DE6       loc_427DE6
 0001:00026DF6       loc_427DF6
 0001:00026E22       loc_427E22
 0001:00026E36       loc_427E36
 0001:00026E68       loc_427E68
 0001:00026E6D       loc_427E6D
 0001:00026E82       loc_427E82
 0001:00026E94       loc_427E94
 0001:00026E9D       loc_427E9D
 0001:00026ED5       loc_427ED5
 0001:00026EDC       loc_427EDC
 0001:00026F40       loc_427F40
 0001:00026F60       CMGrid::DrawCellLine(CDC *,int,int,int,int,CSize &,ulong,ulong)
 0001:00026FAE       loc_427FAE
 0001:00026FB2       loc_427FB2
 0001:00026FC5       loc_427FC5
 0001:00026FC9       loc_427FC9
 0001:0002700B       loc_42800B
 0001:00027010       loc_428010
 0001:000270D3       loc_4280D3
 0001:000270E0       loc_4280E0
 0001:000270E4       loc_4280E4
 0001:0002710F       loc_42810F
 0001:00027119       loc_428119
 0001:0002711D       loc_42811D
 0001:00027133       loc_428133
 0001:0002714E       loc_42814E
 0001:0002715B       loc_42815B
 0001:0002715F       loc_42815F
 0001:0002718E       loc_42818E
 0001:000271B0       loc_4281B0
 0001:000271BD       loc_4281BD
 0001:000271C1       loc_4281C1
 0001:000271EC       loc_4281EC
 0001:00027210       loc_428210
 0001:0002721D       loc_42821D
 0001:00027221       loc_428221
 0001:0002724C       loc_42824C
 0001:00027287       loc_428287
 0001:000272A0       CMGrid::GetCellSize(int,int)
 0001:000272DE       loc_4282DE
 0001:000272FA       loc_4282FA
 0001:00027306       loc_428306
 0001:00027322       loc_428322
 0001:00027340       CMGrid::GetCellAtRect(int,int)
 0001:00027397       loc_428397
 0001:00027408       loc_428408
 0001:00027418       loc_428418
 0001:00027439       loc_428439
 0001:00027449       loc_428449
 0001:0002746A       loc_42846A
 0001:00027481       loc_428481
 0001:000274A2       loc_4284A2
 0001:000274B2       loc_4284B2
 0001:000274D3       loc_4284D3
 0001:00027510       CMGrid::IsIndependCell(int,int)
 0001:00027540       CMGrid::OnHScroll(uint,uint,CScrollBar *)
 0001:0002755D       loc_42855D
 0001:00027560       loc_428560
 0001:00027563       loc_428563
 0001:00027568       loc_428568
 0001:0002756D       loc_42856D
 0001:00027571       loc_428571
 0001:000275C4       off_4285C4
 0001:000275E0       CMGrid::OnVScroll(uint,uint,CScrollBar *)
 0001:000275FD       loc_4285FD
 0001:00027600       loc_428600
 0001:00027603       loc_428603
 0001:00027608       loc_428608
 0001:0002760D       loc_42860D
 0001:00027611       loc_428611
 0001:00027664       off_428664
 0001:00027680       CMGrid::OnActivate(uint,CWnd *,int)
 0001:00027697       loc_428697
 0001:000276A0       CMGrid::FindSpecDPPointCell(CPoint &,int *,int *)
 0001:000277AD       loc_4287AD
 0001:000277CA       loc_4287CA
 0001:000277D5       loc_4287D5
 0001:000277EF       loc_4287EF
 0001:000277F1       loc_4287F1
 0001:00027806       loc_428806
 0001:0002781E       loc_42881E
 0001:0002783B       loc_42883B
 0001:00027848       loc_428848
 0001:00027870       CMGrid::OnKeyDown(uint,uint,uint)
 0001:000278EF       loc_4288EF
 0001:00027902       loc_428902
 0001:00027913       loc_428913
 0001:00027996       loc_428996
 0001:000279B9       loc_4289B9
 0001:000279D5       loc_4289D5
 0001:000279F3       loc_4289F3
 0001:00027A0C       loc_428A0C
 0001:00027A25       loc_428A25
 0001:00027A3E       loc_428A3E
 0001:00027A57       loc_428A57
 0001:00027A70       loc_428A70
 0001:00027A89       loc_428A89
 0001:00027AA2       loc_428AA2
 0001:00027ABB       loc_428ABB
 0001:00027ACB       loc_428ACB
 0001:00027ADC       loc_428ADC
 0001:00027AE8       loc_428AE8
 0001:00027AF4       loc_428AF4
 0001:00027B11       loc_428B11
 0001:00027B22       loc_428B22
 0001:00027B33       loc_428B33
 0001:00027B48       loc_428B48
 0001:00027B56       loc_428B56
 0001:00027B57       loc_428B57
 0001:00027B5E       loc_428B5E
 0001:00027B7C       loc_428B7C
 0001:00027B81       loc_428B81
 0001:00027B9F       loc_428B9F
 0001:00027BA4       loc_428BA4
 0001:00027BB3       loc_428BB3
 0001:00027BC2       loc_428BC2
 0001:00027BCC       off_428BCC
 0001:00027BFC       byte_428BFC
 0001:00027C40       CMGrid::OnLButtonDown(uint,CPoint)
 0001:00027DA0       loc_428DA0
 0001:00027DB0       loc_428DB0
 0001:00027DBE       loc_428DBE
 0001:00027DEC       loc_428DEC
 0001:00027E06       loc_428E06
 0001:00027E7E       loc_428E7E
 0001:00027E8A       loc_428E8A
 0001:00027EA2       loc_428EA2
 0001:00027EB0       loc_428EB0
 0001:00027EDF       loc_428EDF
 0001:00027EE9       loc_428EE9
 0001:00027EF0       loc_428EF0
 0001:00027F0C       loc_428F0C
 0001:00027F42       loc_428F42
 0001:00027F5A       loc_428F5A
 0001:00027F6D       loc_428F6D
 0001:00027F90       CMGrid::OnLButtonUp(uint,CPoint)
 0001:00027FD3       loc_428FD3
 0001:00028003       loc_429003
 0001:00028021       loc_429021
 0001:00028026       loc_429026
 0001:00028045       loc_429045
 0001:0002804A       loc_42904A
 0001:00028059       loc_429059
 0001:00028069       loc_429069
 0001:00028070       CMGrid::OnMouseMove(uint,CPoint)
 0001:000280C0       loc_4290C0
 0001:000280D0       CMGrid::ScrollTo(int,int,REFRUSH_MODE)
 0001:0002817F       loc_42917F
 0001:0002818B       loc_42918B
 0001:00028191       loc_429191
 0001:000281BA       loc_4291BA
 0001:000281C2       loc_4291C2
 0001:000281CC       loc_4291CC
 0001:000281F2       loc_4291F2
 0001:000281FC       loc_4291FC
 0001:00028200       loc_429200
 0001:0002820C       loc_42920C
 0001:00028243       loc_429243
 0001:0002824F       loc_42924F
 0001:00028255       loc_429255
 0001:0002825B       loc_42925B
 0001:00028284       loc_429284
 0001:0002828C       loc_42928C
 0001:00028296       loc_429296
 0001:000282BC       loc_4292BC
 0001:000282C6       loc_4292C6
 0001:000282D2       loc_4292D2
 0001:000282F2       loc_4292F2
 0001:0002835B       loc_42935B
 0001:00028379       loc_429379
 0001:0002839A       loc_42939A
 0001:000283B4       loc_4293B4
 0001:000283C3       loc_4293C3
 0001:000283DE       loc_4293DE
 0001:000283F2       loc_4293F2
 0001:00028400       CMGrid::OnSetCursor(CWnd *,uint,uint)
 0001:0002847A       loc_42947A
 0001:000284A0       loc_4294A0
 0001:000284B0       CMGrid::FindAdjustCell(CPoint &,int *,int *,int *)
 0001:0002860C       loc_42960C
 0001:0002861A       loc_42961A
 0001:00028647       loc_429647
 0001:00028659       loc_429659
 0001:00028663       loc_429663
 0001:0002866B       loc_42966B
 0001:00028687       loc_429687
 0001:00028695       loc_429695
 0001:000286C2       loc_4296C2
 0001:000286D1       loc_4296D1
 0001:000286DB       loc_4296DB
 0001:000286E1       loc_4296E1
 0001:000286FD       loc_4296FD
 0001:00028710       CMGrid::ResizeRowOrCol(CPoint &,int,int,int)
 0001:00028825       loc_429825
 0001:00028856       loc_429856
 0001:00028861       loc_429861
 0001:0002887C       loc_42987C
 0001:00028895       loc_429895
 0001:000288BD       loc_4298BD
 0001:000288CF       loc_4298CF
 0001:000288FC       loc_4298FC
 0001:00028910       loc_429910
 0001:00028945       loc_429945
 0001:0002895F       loc_42995F
 0001:00028974       loc_429974
 0001:00028980       loc_429980
 0001:00028A15       loc_429A15
 0001:00028A2E       loc_429A2E
 0001:00028A63       loc_429A63
 0001:00028AA8       loc_429AA8
 0001:00028AC0       loc_429AC0
 0001:00028AEC       loc_429AEC
 0001:00028B10       CMGrid::DrawResizeLine(CDC *,CPoint &,CSize &,int,int)
 0001:00028B54       loc_429B54
 0001:00028B85       loc_429B85
 0001:00028B90       CMGrid::GetCurAllShowSize(void)
 0001:00028BE0       CMGrid::GetCurGridShowSize(void)
 0001:00028C0B       loc_429C0B
 0001:00028C5F       loc_429C5F
 0001:00028C7D       loc_429C7D
 0001:00028C85       loc_429C85
 0001:00028CA3       loc_429CA3
 0001:00028CAD       loc_429CAD
 0001:00028CCB       loc_429CCB
 0001:00028CD7       loc_429CD7
 0001:00028CF5       loc_429CF5
 0001:00028D10       CMGrid::OnEndInPlaceEdit(tagNMHDR *,long *)
 0001:00028D5F       loc_429D5F
 0001:00028E07       loc_429E07
 0001:00028E15       loc_429E15
 0001:00028E31       loc_429E31
 0001:00028E50       CMGrid::OnChar(uint,uint,uint)
 0001:00028E9E       loc_429E9E
 0001:00028EAE       loc_429EAE
 0001:00028F45       loc_429F45
 0001:00028F4A       loc_429F4A
 0001:00028F81       loc_429F81
 0001:00028F98       loc_429F98
 0001:00028F9D       loc_429F9D
 0001:00028FA9       loc_429FA9
 0001:00028FC0       CMGrid::CopyIntoClipBoard(void)
 0001:00028FEE       loc_429FEE
 0001:00028FFA       loc_429FFA
 0001:00029010       CMGrid::CopyIntoClipBoard(int,int,int,int)
 0001:000290E1       loc_42A0E1
 0001:000290FF       loc_42A0FF
 0001:00029118       loc_42A118
 0001:00029130       CMGrid::PasteFromClipBoard(int)
 0001:0002913F       loc_42A13F
 0001:0002914B       loc_42A14B
 0001:00029160       CMGrid::PasteFromClipBoard(int,int,int)
 0001:000291C2       loc_42A1C2
 0001:00029235       loc_42A235
 0001:0002924F       loc_42A24F
 0001:00029260       CMGrid::edit(char *)
 0001:000292B3       loc_42A2B3
 0001:000292B9       loc_42A2B9
 0001:000292C5       loc_42A2C5
 0001:0002936C       loc_42A36C
 0001:00029374       loc_42A374
 0001:0002939E       loc_42A39E
 0001:000293AA       loc_42A3AA
 0001:000293EF       loc_42A3EF
 0001:0002946C       loc_42A46C
 0001:00029470       loc_42A470
 0001:00029473       loc_42A473
 0001:0002948F       loc_42A48F
 0001:000294A0       loc_42A4A0
 0001:000294B4       loc_42A4B4
 0001:000294D0       CMGrid::SelectAll(REFRUSH_MODE)
 0001:00029500       loc_42A500
 0001:00029502       loc_42A502
 0001:00029558       loc_42A558
 0001:00029560       CMGrid::DrawPageNum(CDC *,CRect &,int,int)
 0001:0002967B       loc_42A67B
 0001:0002969A       loc_42A69A
 0001:000296A3       loc_42A6A3
 0001:000296BA       loc_42A6BA
 0001:000296C6       loc_42A6C6
 0001:00029738       loc_42A738
 0001:00029750       CMGrid::DrawPage(CDC *,int,int,int,int,int)
 0001:000297D1       loc_42A7D1
 0001:000297F4       loc_42A7F4
 0001:000297FE       loc_42A7FE
 0001:00029828       loc_42A828
 0001:00029843       loc_42A843
 0001:0002984F       loc_42A84F
 0001:0002989F       loc_42A89F
 0001:000298A9       loc_42A8A9
 0001:000298E8       loc_42A8E8
 0001:000298F8       loc_42A8F8
 0001:00029920       CMGrid::DrawRow(CDC *,int,int,int,int,int,int)
 0001:00029953       loc_42A953
 0001:00029994       loc_42A994
 0001:000299AC       loc_42A9AC
 0001:000299BA       loc_42A9BA
 0001:00029A14       loc_42AA14
 0001:00029A30       CMGrid::Print(char *,int,CString *)
 0001:00029AC3       loc_42AAC3
 0001:00029B30       CMPrintStatusDlg::~CMPrintStatusDlg(void)
 0001:00029BB0       nullsub_12
 0001:00029BC0       unknown_libname_229
 0001:00029BD0       unknown_libname_230
 0001:00029BE0       MFreeObj(ulong *)
 0001:00029C01       loc_42AC01
 0001:00029C10       loc_42AC10
 0001:00029C24       loc_42AC24
 0001:00029C30       GetErrMsg(int)
 0001:00029C3B       loc_42AC3B
 0001:00029C50       loc_42AC50
 0001:00029C60       ConvertFileError(CFileException *)
 0001:00029C6C       loc_42AC6C
 0001:00029C75       loc_42AC75
 0001:00029C80       loc_42AC80
 0001:00029C8B       loc_42AC8B
 0001:00029C96       loc_42AC96
 0001:00029CA1       loc_42ACA1
 0001:00029CAC       loc_42ACAC
 0001:00029CB7       loc_42ACB7
 0001:00029CC2       loc_42ACC2
 0001:00029CCD       loc_42ACCD
 0001:00029CD8       loc_42ACD8
 0001:00029CE3       loc_42ACE3
 0001:00029CEE       loc_42ACEE
 0001:00029CF9       loc_42ACF9
 0001:00029D10       CEWorkSpace::CEWorkSpace(void)
 0001:00029D40       CEWorkSpace::`scalar deleting destructor'(uint)
 0001:00029D58       loc_42AD58
 0001:00029D60       CEWorkSpace::~CEWorkSpace(void)
 0001:00029DC0       CEWorkSpace::CloseAll(void)
 0001:00029DD3       loc_42ADD3
 0001:00029DE3       loc_42ADE3
 0001:00029DE8       loc_42ADE8
 0001:00029E00       CEDatabase::IsNeedRetry(CFileException *,ulong)
 0001:00029E36       loc_42AE36
 0001:00029E3C       loc_42AE3C
 0001:00029E40       nullsub_7
 0001:00029E50       CFileException::`scalar deleting destructor'(uint)
 0001:00029E68       loc_42AE68
 0001:00029E70       CFileException::~CFileException(void)
 0001:00029EB0       CEDatabase::RunLock(int,int)
 0001:00029EBF       loc_42AEBF
 0001:00029ED6       loc_42AED6
 0001:00029EF0       CEDatabase::RunLockFile(ulong,int)
 0001:00029F1F       loc_42AF1F
 0001:00029F40       loc_42AF40
 0001:00029F49       loc_42AF49
 0001:00029F6A       loc_42AF6A
 0001:00029F79       loc_42AF79
 0001:00029F7E       loc_42AF7E
 0001:00029F88       loc_42AF88
 0001:00029F9F       loc_42AF9F
 0001:00029FB4       loc_42AFB4
 0001:00029FC1       loc_42AFC1
 0001:00029FD8       loc_42AFD8
 0001:00029FF5       loc_42AFF5
 0001:0002A029       loc_42B029
 0001:0002A04D       loc_42B04D
 0001:0002A058       loc_42B058
 0001:0002A05C       loc_42B05C
 0001:0002A087       loc_42B087
 0001:0002A09E       loc_42B09E
 0001:0002A0B9       loc_42B0B9
 0001:0002A0FF       loc_42B0FF
 0001:0002A11E       loc_42B11E
 0001:0002A124       loc_42B124
 0001:0002A128       loc_42B128
 0001:0002A145       loc_42B145
 0001:0002A15A       loc_42B15A
 0001:0002A173       loc_42B173
 0001:0002A175       loc_42B175
 0001:0002A190       CEDatabase::_RunLockFile(CCryptFile *,ulong,int)
 0001:0002A1BD       loc_42B1BD
 0001:0002A1F3       loc_42B1F3
 0001:0002A201       loc_42B201
 0001:0002A214       loc_42B214
 0001:0002A217       loc_42B217
 0001:0002A21A       loc_42B21A
 0001:0002A232       sub_42B232
 0001:0002A25B       loc_42B25B
 0001:0002A26B       loc_42B26B
 0001:0002A27D       loc_42B27D
 0001:0002A29D       sub_42B29D
 0001:0002A2A9       loc_42B2A9
 0001:0002A2B5       sub_42B2B5
 0001:0002A2CF       loc_42B2CF
 0001:0002A2F0       CEDatabase::LockOffset(CCryptFile *,int,CFreqMem *)
 0001:0002A301       loc_42B301
 0001:0002A304       loc_42B304
 0001:0002A320       loc_42B320
 0001:0002A33F       loc_42B33F
 0001:0002A350       CEDatabase::UnlockOffset(CCryptFile *,int,CFreqMem *)
 0001:0002A362       loc_42B362
 0001:0002A365       loc_42B365
 0001:0002A3A3       loc_42B3A3
 0001:0002A3A5       loc_42B3A5
 0001:0002A3B0       CEDatabase::UnlockRemember(CCryptFile *,CFreqMem *,int)
 0001:0002A3C5       loc_42B3C5
 0001:0002A3C8       loc_42B3C8
 0001:0002A3E0       loc_42B3E0
 0001:0002A3F7       loc_42B3F7
 0001:0002A407       loc_42B407
 0001:0002A41B       loc_42B41B
 0001:0002A42E       loc_42B42E
 0001:0002A440       CEDatabase::ReplaceLock(CCryptFile *,int,CFreqMem *)
 0001:0002A476       loc_42B476
 0001:0002A494       loc_42B494
 0001:0002A4A0       loc_42B4A0
 0001:0002A4B0       std::locale::facet::facet(uint)
 0001:0002A4D0       sub_42B4D0
 0001:0002A4E8       loc_42B4E8
 0001:0002A4F0       sub_42B4F0
 0001:0002A500       CDatFile::WriteData(uchar *,int,int,int *)
 0001:0002A536       loc_42B536
 0001:0002A58C       loc_42B58C
 0001:0002A5F0       loc_42B5F0
 0001:0002A62C       loc_42B62C
 0001:0002A63B       loc_42B63B
 0001:0002A649       loc_42B649
 0001:0002A64E       loc_42B64E
 0001:0002A65C       loc_42B65C
 0001:0002A6AE       loc_42B6AE
 0001:0002A6B4       loc_42B6B4
 0001:0002A6F7       loc_42B6F7
 0001:0002A707       loc_42B707
 0001:0002A749       loc_42B749
 0001:0002A758       loc_42B758
 0001:0002A789       loc_42B789
 0001:0002A7AF       loc_42B7AF
 0001:0002A809       loc_42B809
 0001:0002A80C       loc_42B80C
 0001:0002A83C       loc_42B83C
 0001:0002A856       loc_42B856
 0001:0002A8A5       loc_42B8A5
 0001:0002A8B8       loc_42B8B8
 0001:0002A922       loc_42B922
 0001:0002A952       loc_42B952
 0001:0002A989       loc_42B989
 0001:0002A9BC       loc_42B9BC
 0001:0002AA12       loc_42BA12
 0001:0002AA39       loc_42BA39
 0001:0002AA7F       loc_42BA7F
 0001:0002AAC0       loc_42BAC0
 0001:0002AADB       loc_42BADB
 0001:0002AAE5       loc_42BAE5
 0001:0002AB0E       loc_42BB0E
 0001:0002AB15       loc_42BB15
 0001:0002AB37       loc_42BB37
 0001:0002AB4F       loc_42BB4F
 0001:0002AB62       loc_42BB62
 0001:0002AB65       loc_42BB65
 0001:0002AB87       loc_42BB87
 0001:0002ABC5       loc_42BBC5
 0001:0002ABE0       CEIndex::CEIndex(CCryptFile *,OPENED_INDEX_INF *)
 0001:0002AC50       CEIndex::~CEIndex(void)
 0001:0002AC8B       loc_42BC8B
 0001:0002AC92       loc_42BC92
 0001:0002ACA8       loc_42BCA8
 0001:0002ACE0       CEIndex::ChkAndPopupNodeData(void)
 0001:0002AD36       loc_42BD36
 0001:0002AD3C       loc_42BD3C
 0001:0002AD3F       loc_42BD3F
 0001:0002AD79       loc_42BD79
 0001:0002AD87       loc_42BD87
 0001:0002ADD2       loc_42BDD2
 0001:0002ADE1       loc_42BDE1
 0001:0002ADF2       sub_42BDF2
 0001:0002AE0A       sub_42BE0A
 0001:0002AE20       CEIndex::ReadNode(int,uchar *)
 0001:0002AE74       loc_42BE74
 0001:0002AE7A       loc_42BE7A
 0001:0002AEAD       loc_42BEAD
 0001:0002AF11       loc_42BF11
 0001:0002AF56       loc_42BF56
 0001:0002AF6E       loc_42BF6E
 0001:0002AF81       loc_42BF81
 0001:0002AF84       loc_42BF84
 0001:0002AFB0       CEIndex::WriteNode(int,uchar *)
 0001:0002AFEF       loc_42BFEF
 0001:0002AFF5       loc_42BFF5
 0001:0002B01C       loc_42C01C
 0001:0002B061       loc_42C061
 0001:0002B070       CEIndex::RemoveNode(int,uchar *)
 0001:0002B0BA       loc_42C0BA
 0001:0002B0F9       loc_42C0F9
 0001:0002B125       loc_42C125
 0001:0002B177       loc_42C177
 0001:0002B184       loc_42C184
 0001:0002B1BB       loc_42C1BB
 0001:0002B1F0       loc_42C1F0
 0001:0002B221       loc_42C221
 0001:0002B233       loc_42C233
 0001:0002B241       loc_42C241
 0001:0002B258       loc_42C258
 0001:0002B2BF       loc_42C2BF
 0001:0002B2CA       loc_42C2CA
 0001:0002B2EC       loc_42C2EC
 0001:0002B317       loc_42C317
 0001:0002B32F       loc_42C32F
 0001:0002B342       loc_42C342
 0001:0002B345       loc_42C345
 0001:0002B351       loc_42C351
 0001:0002B380       CEIndex::BeginWork(INDEX_HEADER *)
 0001:0002B3BD       loc_42C3BD
 0001:0002B3F4       loc_42C3F4
 0001:0002B3F6       loc_42C3F6
 0001:0002B409       loc_42C409
 0001:0002B43E       loc_42C43E
 0001:0002B462       loc_42C462
 0001:0002B487       sub_42C487
 0001:0002B49F       loc_42C49F
 0001:0002B4C1       sub_42C4C1
 0001:0002B4E0       CEIndex::EndWork(void)
 0001:0002B568       loc_42C568
 0001:0002B580       loc_42C580
 0001:0002B593       loc_42C593
 0001:0002B596       loc_42C596
 0001:0002B5A5       loc_42C5A5
 0001:0002B5C8       loc_42C5C8
 0001:0002B5E9       loc_42C5E9
 0001:0002B5EF       loc_42C5EF
 0001:0002B5F4       loc_42C5F4
 0001:0002B631       loc_42C631
 0001:0002B63F       loc_42C63F
 0001:0002B657       loc_42C657
 0001:0002B66A       loc_42C66A
 0001:0002B66D       loc_42C66D
 0001:0002B692       loc_42C692
 0001:0002B6B0       CEIndex::FreeNodeChain(NODE_INF *)
 0001:0002B6C9       loc_42C6C9
 0001:0002B6D7       loc_42C6D7
 0001:0002B6E9       loc_42C6E9
 0001:0002B6F2       loc_42C6F2
 0001:0002B704       loc_42C704
 0001:0002B710       CEIndex::NewNodeInf(void)
 0001:0002B726       loc_42C726
 0001:0002B736       loc_42C736
 0001:0002B754       loc_42C754
 0001:0002B760       CEIndex::CompareItem(uchar *,uchar *)
 0001:0002B780       CEIndex::CompareItem(uchar *,uchar *,OPENED_INDEX_INF *)
 0001:0002B7B3       loc_42C7B3
 0001:0002B7B5       loc_42C7B5
 0001:0002B7CA       loc_42C7CA
 0001:0002B7E3       loc_42C7E3
 0001:0002B803       loc_42C803
 0001:0002B820       loc_42C820
 0001:0002B83C       loc_42C83C
 0001:0002B84E       loc_42C84E
 0001:0002B859       loc_42C859
 0001:0002B882       loc_42C882
 0001:0002B8AB       loc_42C8AB
 0001:0002B8BE       loc_42C8BE
 0001:0002B8C7       loc_42C8C7
 0001:0002B8CB       loc_42C8CB
 0001:0002B90B       loc_42C90B
 0001:0002B91D       loc_42C91D
 0001:0002B936       loc_42C936
 0001:0002B956       loc_42C956
 0001:0002B95F       loc_42C95F
 0001:0002B96B       loc_42C96B
 0001:0002B978       off_42C978
 0001:0002B9A0       CEIndex::ConvertKeyData(uchar *,CFreqMem &)
 0001:0002B9C0       CEIndex::ConvertKeyData(uchar *,CFreqMem &,OPENED_INDEX_INF *)
 0001:0002B9EB       loc_42C9EB
 0001:0002B9F9       loc_42C9F9
 0001:0002BA06       loc_42CA06
 0001:0002BA11       loc_42CA11
 0001:0002BA1E       loc_42CA1E
 0001:0002BA35       loc_42CA35
 0001:0002BA4A       loc_42CA4A
 0001:0002BA5F       loc_42CA5F
 0001:0002BA74       loc_42CA74
 0001:0002BA86       loc_42CA86
 0001:0002BA9B       loc_42CA9B
 0001:0002BAAE       loc_42CAAE
 0001:0002BACA       loc_42CACA
 0001:0002BACD       loc_42CACD
 0001:0002BADE       loc_42CADE
 0001:0002BB13       loc_42CB13
 0001:0002BB26       loc_42CB26
 0001:0002BB36       loc_42CB36
 0001:0002BBAE       loc_42CBAE
 0001:0002BBC4       loc_42CBC4
 0001:0002BBF3       loc_42CBF3
 0001:0002BC05       loc_42CC05
 0001:0002BC0D       loc_42CC0D
 0001:0002BC20       loc_42CC20
 0001:0002BC21       loc_42CC21
 0001:0002BC29       loc_42CC29
 0001:0002BC2F       loc_42CC2F
 0001:0002BC5A       loc_42CC5A
 0001:0002BC64       off_42CC64
 0001:0002BCA0       CEIndex::GetItemBegin(uchar *,int)
 0001:0002BCC0       CEIndex::GetItemData(uchar *,int)
 0001:0002BCE0       CEIndex::GetLeftInt(uchar *,int)
 0001:0002BD00       CEIndex::_ReadNodeData(int,uchar *,NODE_INF * *,NODE_INF * *)
 0001:0002BD3A       loc_42CD3A
 0001:0002BD47       loc_42CD47
 0001:0002BD49       loc_42CD49
 0001:0002BD50       CEIndex::GetLastKey(NODE_INF * *,NODE_INF * *,int,uchar *)
 0001:0002BD9E       loc_42CD9E
 0001:0002BDC9       loc_42CDC9
 0001:0002BDCB       loc_42CDCB
 0001:0002BDFE       loc_42CDFE
 0001:0002BE37       loc_42CE37
 0001:0002BE5D       loc_42CE5D
 0001:0002BE62       loc_42CE62
 0001:0002BE80       CEIndex::GetNextKey(NODE_INF * *,NODE_INF * *,uchar *)
 0001:0002BEB9       loc_42CEB9
 0001:0002BECD       loc_42CECD
 0001:0002BEDE       loc_42CEDE
 0001:0002BEF7       loc_42CEF7
 0001:0002BF0B       loc_42CF0B
 0001:0002BF3C       loc_42CF3C
 0001:0002BF6F       loc_42CF6F
 0001:0002BF85       loc_42CF85
 0001:0002BFB3       loc_42CFB3
 0001:0002BFCC       loc_42CFCC
 0001:0002BFCE       loc_42CFCE
 0001:0002BFE3       loc_42CFE3
 0001:0002C000       CEIndex::InsertItemIntoSpecTreeNode(int,int,SPLIT_INF *,uchar *)
 0001:0002C08A       loc_42D08A
 0001:0002C0CA       loc_42D0CA
 0001:0002C140       CEIndex::InsertItemIntoSpecLeafNode(int,int,uchar *,int,uchar *)
 0001:0002C1CA       loc_42D1CA
 0001:0002C203       loc_42D203
 0001:0002C270       CEIndex::NewNode(int *,uchar *)
 0001:0002C2AA       loc_42D2AA
 0001:0002C2BC       loc_42D2BC
 0001:0002C2D0       CEIndex::SplitLeafNode(SPLIT_INF *,uchar *,int,uchar *,int,uchar *)
 0001:0002C315       loc_42D315
 0001:0002C3A1       loc_42D3A1
 0001:0002C3A5       loc_42D3A5
 0001:0002C41F       loc_42D41F
 0001:0002C430       CEIndex::SplitTreeNode(SPLIT_INF *,int,SPLIT_INF *,uchar *,uchar *)
 0001:0002C491       loc_42D491
 0001:0002C56C       loc_42D56C
 0001:0002C570       loc_42D570
 0001:0002C5B9       loc_42D5B9
 0001:0002C5C0       CEIndex::_FindIndexItem(uchar *,int *,NODE_INF * *,NODE_INF * *,uchar *)
 0001:0002C62B       loc_42D62B
 0001:0002C634       loc_42D634
 0001:0002C638       loc_42D638
 0001:0002C69C       loc_42D69C
 0001:0002C6A5       loc_42D6A5
 0001:0002C6D0       loc_42D6D0
 0001:0002C6DE       loc_42D6DE
 0001:0002C6FB       loc_42D6FB
 0001:0002C704       loc_42D704
 0001:0002C72C       loc_42D72C
 0001:0002C736       loc_42D736
 0001:0002C754       loc_42D754
 0001:0002C770       CEIndex::_AddIndexItem(uchar *,int,NODE_INF * *,NODE_INF * *)
 0001:0002C7E9       loc_42D7E9
 0001:0002C80C       loc_42D80C
 0001:0002C82A       loc_42D82A
 0001:0002C842       loc_42D842
 0001:0002C8AE       loc_42D8AE
 0001:0002C8B3       loc_42D8B3
 0001:0002C907       loc_42D907
 0001:0002C953       loc_42D953
 0001:0002C98E       loc_42D98E
 0001:0002C9D3       loc_42D9D3
 0001:0002CA34       loc_42DA34
 0001:0002CA3C       loc_42DA3C
 0001:0002CAB1       loc_42DAB1
 0001:0002CAE7       loc_42DAE7
 0001:0002CAF0       loc_42DAF0
 0001:0002CB06       loc_42DB06
 0001:0002CB2F       loc_42DB2F
 0001:0002CB3A       loc_42DB3A
 0001:0002CB60       CEIndex::UpdateLeafNodeParentKey(NODE_INF *,uchar *)
 0001:0002CB8C       loc_42DB8C
 0001:0002CBA1       loc_42DBA1
 0001:0002CBFA       loc_42DBFA
 0001:0002CC63       loc_42DC63
 0001:0002CC7C       loc_42DC7C
 0001:0002CC7E       loc_42DC7E
 0001:0002CCA0       CEIndex::DeleteItemFromLeafNode(NODE_INF *,uchar *)
 0001:0002CD08       loc_42DD08
 0001:0002CD1B       loc_42DD1B
 0001:0002CD56       loc_42DD56
 0001:0002CD8A       loc_42DD8A
 0001:0002CE16       loc_42DE16
 0001:0002CE30       CEIndex::DeleteItemFromTreeNode(NODE_INF *,uchar *,uchar *,uchar *)
 0001:0002CE4D       loc_42DE4D
 0001:0002CEAC       loc_42DEAC
 0001:0002CEBF       loc_42DEBF
 0001:0002CF01       loc_42DF01
 0001:0002CF62       loc_42DF62
 0001:0002CF6E       loc_42DF6E
 0001:0002CFA4       loc_42DFA4
 0001:0002D154       loc_42E154
 0001:0002D16C       loc_42E16C
 0001:0002D1ED       loc_42E1ED
 0001:0002D1FD       loc_42E1FD
 0001:0002D28D       loc_42E28D
 0001:0002D291       loc_42E291
 0001:0002D425       loc_42E425
 0001:0002D447       loc_42E447
 0001:0002D4D9       loc_42E4D9
 0001:0002D5D6       loc_42E5D6
 0001:0002D5DB       loc_42E5DB
 0001:0002D5F0       CEIndex::AddIndexItem(uchar *,int,int)
 0001:0002D647       loc_42E647
 0001:0002D64B       loc_42E64B
 0001:0002D67E       loc_42E67E
 0001:0002D69A       loc_42E69A
 0001:0002D6B0       CEIndex::RemoveIndexItem(uchar *,int,int)
 0001:0002D710       loc_42E710
 0001:0002D766       loc_42E766
 0001:0002D7B9       loc_42E7B9
 0001:0002D7BE       loc_42E7BE
 0001:0002D7C5       loc_42E7C5
 0001:0002D7C7       loc_42E7C7
 0001:0002D7D0       loc_42E7D0
 0001:0002D7DF       loc_42E7DF
 0001:0002D7F8       loc_42E7F8
 0001:0002D829       loc_42E829
 0001:0002D840       CEIndex::ModifyIndexItem(uchar *,uchar *,int)
 0001:0002D87B       loc_42E87B
 0001:0002D909       loc_42E909
 0001:0002D90D       loc_42E90D
 0001:0002D944       loc_42E944
 0001:0002D972       loc_42E972
 0001:0002D990       CRgnBtn::OnLButtonDown(uint,CPoint)
 0001:0002D9F3       loc_42E9F3
 0001:0002DA00       CRgnBtn::OnLButtonUp(uint,CPoint)
 0001:0002DA68       loc_42EA68
 0001:0002DA7B       loc_42EA7B
 0001:0002DA90       CRgnBtn::SetPressState(int)
 0001:0002DAAD       locret_42EAAD
 0001:0002DAB0       CRgnBtn::OnMouseMove(uint,CPoint)
 0001:0002DB20       loc_42EB20
 0001:0002DB2D       loc_42EB2D
 0001:0002DB3E       loc_42EB3E
 0001:0002DB58       loc_42EB58
 0001:0002DB70       loc_42EB70
 0001:0002DB81       loc_42EB81
 0001:0002DB90       CRgnBtn::OnPaint(void)
 0001:0002DCD8       loc_42ECD8
 0001:0002DD10       loc_42ED10
 0001:0002DD70       CRgnBtn::GetHBitmap(void)
 0001:0002DD88       loc_42ED88
 0001:0002DD93       loc_42ED93
 0001:0002DD96       loc_42ED96
 0001:0002DDB5       loc_42EDB5
 0001:0002DDB9       loc_42EDB9
 0001:0002DDC3       loc_42EDC3
 0001:0002DDC9       loc_42EDC9
 0001:0002DDD0       CRgnBtn::draw(int)
 0001:0002DDF3       loc_42EDF3
 0001:0002DE00       CRgnBtn::OnEnable(int)
 0001:0002DE20       CColourPicker::CColourPicker(void)
 0001:0002DED0       sub_42EED0
 0001:0002DEE8       loc_42EEE8
 0001:0002DEF0       sub_42EEF0
 0001:0002DF50       CColourPicker::CreateObject(void)
 0001:0002DF96       loc_42EF96
 0001:0002DFB0       sub_42EFB0
 0001:0002DFC0       sub_42EFC0
 0001:0002DFD0       CMFCRibbonBaseElement::HitTest(CPoint)
 0001:0002DFE0       CColourPicker::OnSelEndOK(uint,long)
 0001:0002E03B       loc_42F03B
 0001:0002E05E       loc_42F05E
 0001:0002E070       CColourPicker::OnSelEndCancel(uint,long)
 0001:0002E0D7       loc_42F0D7
 0001:0002E0F0       CColourPicker::OnSelChange(uint,long)
 0001:0002E106       loc_42F106
 0001:0002E134       loc_42F134
 0001:0002E140       CColourPicker::OnCreate(tagCREATESTRUCTA *)
 0001:0002E153       loc_42F153
 0001:0002E160       CColourPicker::OnLButtonUp(uint,CPoint)
 0001:0002E1D5       loc_42F1D5
 0001:0002E214       loc_42F214
 0001:0002E230       CColourPicker::DrawItem(tagDRAWITEMSTRUCT *)
 0001:0002E29A       loc_42F29A
 0001:0002E2EC       loc_42F2EC
 0001:0002E39C       loc_42F39C
 0001:0002E3AB       loc_42F3AB
 0001:0002E415       loc_42F415
 0001:0002E421       loc_42F421
 0001:0002E493       loc_42F493
 0001:0002E4AB       loc_42F4AB
 0001:0002E4C2       loc_42F4C2
 0001:0002E4E7       loc_42F4E7
 0001:0002E530       CColourPicker::PreSubclassWindow(void)
 0001:0002E550       CColourPicker::GetColour(void)
 0001:0002E55A       loc_42F55A
 0001:0002E560       CColourPicker::SetColour(ulong)
 0001:0002E573       loc_42F573
 0001:0002E580       CColourPicker::SetBkColour(ulong)
 0001:0002E5AB       loc_42F5AB
 0001:0002E5B0       CColourPicker::SetTextColour(ulong)
 0001:0002E5DB       loc_42F5DB
 0001:0002E5E0       CColourPicker::SetWindowSize(void)
 0001:0002E610       loc_42F610
 0001:0002E614       loc_42F614
 0001:0002E626       loc_42F626
 0001:0002E628       loc_42F628
 0001:0002E638       loc_42F638
 0001:0002E669       loc_42F669
 0001:0002E6C0       sub_42F6C0
 0001:0002E6D0       CProcessor::SetDataSource(CMDataSource *)
 0001:0002E6E9       loc_42F6E9
 0001:0002E6F8       loc_42F6F8
 0001:0002E700       MReflectLastMsg(HWND__ *,long *)
 0001:0002E70E       loc_42F70E
 0001:0002E733       loc_42F733
 0001:0002E750       MProcessNotify(CWnd *,uint,long,long *)
 0001:0002E78C       loc_42F78C
 0001:0002E7AB       loc_42F7AB
 0001:0002E7E0       ProcessCommand(CWnd *,uint,long)
 0001:0002E817       loc_42F817
 0001:0002E844       loc_42F844
 0001:0002E86D       loc_42F86D
 0001:0002E8D3       loc_42F8D3
 0001:0002E8E5       loc_42F8E5
 0001:0002E8F1       loc_42F8F1
 0001:0002E921       loc_42F921
 0001:0002E937       loc_42F937
 0001:0002E943       loc_42F943
 0001:0002E94D       loc_42F94D
 0001:0002E95F       loc_42F95F
 0001:0002E970       unknown_libname_231
 0001:0002E980       ProcessDrawItem(int,tagDRAWITEMSTRUCT *)
 0001:0002E9A6       loc_42F9A6
 0001:0002E9BF       loc_42F9BF
 0001:0002E9D0       ProcesssScroll(CWnd *)
 0001:0002E9F2       loc_42F9F2
 0001:0002EA06       loc_42FA06
 0001:0002EA10       CGifWnd::CGifWnd(void)
 0001:0002EA90       sub_42FA90
 0001:0002EAA8       loc_42FAA8
 0001:0002EAB0       stdiobuf::~stdiobuf(void)
 0001:0002EAF1       loc_42FAF1
 0001:0002EB04       loc_42FB04
 0001:0002EB17       loc_42FB17
 0001:0002EB40       CGifWnd::EmptyGif(void)
 0001:0002EB59       loc_42FB59
 0001:0002EB6C       loc_42FB6C
 0001:0002EB7F       loc_42FB7F
 0001:0002EB90       CGifWnd::init(void)
 0001:0002EC10       sub_42FC10
 0001:0002EC20       CGifWnd::OnPaint(void)
 0001:0002EC80       CGifWnd::GetShowPos(int &,int &,int &,int &)
 0001:0002ED13       loc_42FD13
 0001:0002ED3D       loc_42FD3D
 0001:0002ED53       loc_42FD53
 0001:0002ED7A       loc_42FD7A
 0001:0002EDD4       loc_42FDD4
 0001:0002EDEE       loc_42FDEE
 0001:0002EE06       loc_42FE06
 0001:0002EE10       CGifWnd::PaintGif(CPaintDC &)
 0001:0002EE3E       loc_42FE3E
 0001:0002EE45       loc_42FE45
 0001:0002EEA5       loc_42FEA5
 0001:0002EEA8       loc_42FEA8
 0001:0002EED5       loc_42FED5
 0001:0002EEE1       loc_42FEE1
 0001:0002EF11       loc_42FF11
 0001:0002EF14       loc_42FF14
 0001:0002EF3E       loc_42FF3E
 0001:0002EF58       loc_42FF58
 0001:0002EF62       loc_42FF62
 0001:0002EF8A       loc_42FF8A
 0001:0002EF8D       loc_42FF8D
 0001:0002EFBE       loc_42FFBE
 0001:0002F008       loc_430008
 0001:0002F04C       loc_43004C
 0001:0002F079       loc_430079
 0001:0002F08E       loc_43008E
 0001:0002F0B0       CGifWnd::Play(void)
 0001:0002F110       loc_430110
 0001:0002F120       CGifWnd::Stop(void)
 0001:0002F144       loc_430144
 0001:0002F14E       locret_43014E
 0001:0002F150       ThreadFunc(void *)
 0001:0002F160       CGifWnd::Play1(void)
 0001:0002F1C7       loc_4301C7
 0001:0002F1D1       loc_4301D1
 0001:0002F299       loc_430299
 0001:0002F29F       loc_43029F
 0001:0002F2C2       loc_4302C2
 0001:0002F2DA       loc_4302DA
 0001:0002F2E4       loc_4302E4
 0001:0002F310       loc_430310
 0001:0002F35C       loc_43035C
 0001:0002F389       loc_430389
 0001:0002F3D5       loc_4303D5
 0001:0002F54A       loc_43054A
 0001:0002F56F       loc_43056F
 0001:0002F582       loc_430582
 0001:0002F5F2       loc_4305F2
 0001:0002F61A       loc_43061A
 0001:0002F645       loc_430645
 0001:0002F64F       loc_43064F
 0001:0002F65C       loc_43065C
 0001:0002F660       loc_430660
 0001:0002F68B       loc_43068B
 0001:0002F69A       loc_43069A
 0001:0002F6A9       loc_4306A9
 0001:0002F6F0       CGifWnd::load(uchar *,int)
 0001:0002F710       loc_430710
 0001:0002F723       loc_430723
 0001:0002F73A       loc_43073A
 0001:0002F799       loc_430799
 0001:0002F80F       loc_43080F
 0001:0002F818       loc_430818
 0001:0002F83E       loc_43083E
 0001:0002F841       loc_430841
 0001:0002F8F4       loc_4308F4
 0001:0002F906       loc_430906
 0001:0002F920       CGifWnd::FirstImage(void)
 0001:0002F940       loc_430940
 0001:0002F966       loc_430966
 0001:0002F99A       loc_43099A
 0001:0002F9CA       loc_4309CA
 0001:0002FA21       loc_430A21
 0001:0002FA2F       loc_430A2F
 0001:0002FA73       loc_430A73
 0001:0002FA93       loc_430A93
 0001:0002FAD4       loc_430AD4
 0001:0002FAF0       loc_430AF0
 0001:0002FB2B       loc_430B2B
 0001:0002FB4D       loc_430B4D
 0001:0002FB5F       loc_430B5F
 0001:0002FB6D       loc_430B6D
 0001:0002FB7F       loc_430B7F
 0001:0002FB87       loc_430B87
 0001:0002FB94       off_430B94
 0001:0002FBA4       byte_430BA4
 0001:0002FBE0       off_430BE0
 0001:0002FBF4       byte_430BF4
 0001:0002FD00       CGifWnd::TakeIt(void)
 0001:0002FDC0       loc_430DC0
 0001:0002FE4D       loc_430E4D
 0001:0002FE66       loc_430E66
 0001:0002FEB0       loc_430EB0
 0001:0002FEE3       loc_430EE3
 0001:0002FEEF       loc_430EEF
 0001:0002FF13       loc_430F13
 0001:0002FF74       loc_430F74
 0001:0002FFAF       loc_430FAF
 0001:0003000A       loc_43100A
 0001:00030025       loc_431025
 0001:0003003F       loc_43103F
 0001:00030090       loc_431090
 0001:000300EC       loc_4310EC
 0001:00030105       loc_431105
 0001:0003011F       loc_43111F
 0001:00030162       loc_431162
 0001:000301BF       loc_4311BF
 0001:00030213       loc_431213
 0001:0003022E       loc_43122E
 0001:00030249       loc_431249
 0001:0003029A       loc_43129A
 0001:000302F7       loc_4312F7
 0001:00030332       loc_431332
 0001:0003033B       loc_43133B
 0001:00030344       loc_431344
 0001:0003034D       loc_43134D
 0001:00030367       loc_431367
 0001:00030381       loc_431381
 0001:00030399       loc_431399
 0001:000303A5       loc_4313A5
 0001:000303C5       loc_4313C5
 0001:000303DF       loc_4313DF
 0001:00030411       loc_431411
 0001:00030434       loc_431434
 0001:0003043D       loc_43143D
 0001:00030446       loc_431446
 0001:0003044F       loc_43144F
 0001:00030467       loc_431467
 0001:00030481       loc_431481
 0001:00030499       loc_431499
 0001:000304A5       loc_4314A5
 0001:000304BC       loc_4314BC
 0001:000304C5       loc_4314C5
 0001:000304F8       loc_4314F8
 0001:00030501       loc_431501
 0001:0003050A       loc_43150A
 0001:00030513       loc_431513
 0001:0003052B       loc_43152B
 0001:00030545       loc_431545
 0001:0003055D       loc_43155D
 0001:00030569       loc_431569
 0001:00030580       loc_431580
 0001:0003058D       loc_43158D
 0001:000305BA       loc_4315BA
 0001:000305C9       loc_4315C9
 0001:000305D6       loc_4315D6
 0001:000305F4       loc_4315F4
 0001:00030620       loc_431620
 0001:00030647       loc_431647
 0001:0003064F       loc_43164F
 0001:00030658       loc_431658
 0001:00030661       loc_431661
 0001:00030679       loc_431679
 0001:0003067E       loc_43167E
 0001:0003069C       loc_43169C
 0001:000306B4       loc_4316B4
 0001:000306C9       loc_4316C9
 0001:000306DA       loc_4316DA
 0001:000306E5       loc_4316E5
 0001:00030711       loc_431711
 0001:00030719       loc_431719
 0001:00030722       loc_431722
 0001:0003072B       loc_43172B
 0001:00030743       loc_431743
 0001:0003075D       loc_43175D
 0001:0003076C       loc_43176C
 0001:00030778       loc_431778
 0001:0003078F       loc_43178F
 0001:000307A2       loc_4317A2
 0001:000307C5       loc_4317C5
 0001:000307CD       loc_4317CD
 0001:000307D6       loc_4317D6
 0001:000307DF       loc_4317DF
 0001:000307F9       loc_4317F9
 0001:00030813       loc_431813
 0001:00030825       loc_431825
 0001:00030831       loc_431831
 0001:00030848       loc_431848
 0001:00030875       loc_431875
 0001:00030895       loc_431895
 0001:000308AC       loc_4318AC
 0001:000308C3       loc_4318C3
 0001:000308DA       loc_4318DA
 0001:0003090A       loc_43190A
 0001:00030960       CGifWnd::PostNcDestroy(void)
 0001:00030975       loc_431975
 0001:00030980       CGifWnd::put_GifData(uchar *,int)
 0001:0003099C       loc_43199C
 0001:000309B0       loc_4319B0
 0001:000309C0       CGifWnd::put_DrawWay(int)
 0001:000309DB       loc_4319DB
 0001:000309E0       loc_4319E0
 0001:00030A05       loc_431A05
 0001:00030A0F       loc_431A0F
 0001:00030A35       loc_431A35
 0001:00030A40       CGifWnd::AutoSizeWnd(void)
 0001:00030A8B       loc_431A8B
 0001:00030AD5       loc_431AD5
 0001:00030AE0       CGifWnd::GetByte(void)
 0001:00030B31       loc_431B31
 0001:00030B47       loc_431B47
 0001:00030B70       unknown_libname_232
 0001:00030B90       unknown_libname_233
 0001:00030BA0       unknown_libname_234
 0001:00030BD0       allocateBlocks(int,int)
 0001:00030BF7       loc_431BF7
 0001:00030C06       loc_431C06
 0001:00030C13       loc_431C13
 0001:00030C20       freeBlocks(wavehdr_tag *)
 0001:00030C40       AddInterface(HWAVEOUT__ * *,tWAVEFORMATEX *,int volatile *,ulong)
 0001:00030C4E       loc_431C4E
 0001:00030C80       RemoveInterface(HWAVEOUT__ *)
 0001:00030CA0       MyStopPlaySound(int)
 0001:00030CD8       loc_431CD8
 0001:00030CFF       loc_431CFF
 0001:00030D31       loc_431D31
 0001:00030D49       loc_431D49
 0001:00030D69       loc_431D69
 0001:00030D90       GlobalStopPlay(void)
 0001:00030DA5       loc_431DA5
 0001:00030DC9       loc_431DC9
 0001:00030DE0       MyPlaySound(void *,int,int)
 0001:00030E5F       loc_431E5F
 0001:00030E83       loc_431E83
 0001:00030EA2       loc_431EA2
 0001:00030EBA       loc_431EBA
 0001:00030EBE       loc_431EBE
 0001:00030EFD       loc_431EFD
 0001:00030F07       loc_431F07
 0001:00031012       loc_432012
 0001:00031017       loc_432017
 0001:0003101F       loc_43201F
 0001:00031024       loc_432024
 0001:00031030       loc_432030
 0001:0003104E       loc_43204E
 0001:00031062       loc_432062
 0001:0003107D       loc_43207D
 0001:00031091       loc_432091
 0001:000310E3       loc_4320E3
 0001:0003112F       loc_43212F
 0001:0003113D       loc_43213D
 0001:0003115B       loc_43215B
 0001:00031167       loc_432167
 0001:0003116E       loc_43216E
 0001:0003117A       loc_43217A
 0001:00031180       loc_432180
 0001:000311C0       GlobalPlayThread(void *)
 0001:000311C8       loc_4321C8
 0001:000311F4       loc_4321F4
 0001:0003122E       loc_43222E
 0001:00031244       loc_432244
 0001:00031248       loc_432248
 0001:000312B0       loc_4322B0
 0001:000312E9       loc_4322E9
 0001:000312F5       loc_4322F5
 0001:0003130B       loc_43230B
 0001:00031327       loc_432327
 0001:00031334       loc_432334
 0001:0003134C       loc_43234C
 0001:00031357       loc_432357
 0001:00031370       loc_432370
 0001:00031387       loc_432387
 0001:00031395       loc_432395
 0001:000313A7       loc_4323A7
 0001:000313B3       loc_4323B3
 0001:00031410       globalWaveOutProc(HWAVEOUT__ *,uint,ulong,ulong,ulong)
 0001:0003144C       loc_43244C
 0001:00031450       std::vector<GWAVE *,std::allocator<GWAVE *>>::size(void)
 0001:0003145A       loc_43245A
 0001:00031470       std::vector<GWAVE *,std::allocator<GWAVE *>>::_Ucopy(GWAVE * const *,GWAVE * const *,GWAVE * *)
 0001:00031481       loc_432481
 0001:00031489       loc_432489
 0001:00031497       loc_432497
 0001:000314A0       std::vector<GWAVE *,std::allocator<GWAVE *>>::_Ufill(GWAVE * *,uint,GWAVE * const &)
 0001:000314B3       loc_4324B3
 0001:000314BB       loc_4324BB
 0001:000314C2       locret_4324C2
 0001:000314D0       std::_Construct(GWAVE * *,GWAVE * const &)
 0001:000314E0       locret_4324E0
 0001:000314F0       CKrnlApp::LibInitUserProgram(void)
 0001:00031565       loc_432565
 0001:000315AB       loc_4325AB
 0001:000315BF       loc_4325BF
 0001:000316A7       loc_4326A7
 0001:00031702       loc_432702
 0001:0003171F       loc_43271F
 0001:00031724       loc_432724
 0001:0003172A       loc_43272A
 0001:00031750       loc_432750
 0001:00031755       loc_432755
 0001:00031767       loc_432767
 0001:0003178A       loc_43278A
 0001:0003178F       loc_43278F
 0001:000317C1       loc_4327C1
 0001:0003189B       loc_43289B
 0001:000318B0       loc_4328B0
 0001:000318F9       loc_4328F9
 0001:00031901       loc_432901
 0001:0003193E       loc_43293E
 0001:0003194E       loc_43294E
 0001:00031954       loc_432954
 0001:0003195A       loc_43295A
 0001:00031966       loc_432966
 0001:0003197C       loc_43297C
 0001:000319BC       loc_4329BC
 0001:000319D7       loc_4329D7
 0001:00031A04       loc_432A04
 0001:00031A22       loc_432A22
 0001:00031A40       GetMD5(uchar *,uint,char *)
 0001:00031AA0       loc_432AA0
 0001:00031AB0       std::locale::facet::`scalar deleting destructor'(uint)
 0001:00031ACA       loc_432ACA
 0001:00031AD0       CMD5Checksum::ByteToDWord(ulong *,uchar *,uint)
 0001:00031AED       loc_432AED
 0001:00031B1A       loc_432B1A
 0001:00031B20       CMD5Checksum::Transform(uchar * const)
 0001:000324F0       CMD5Checksum::II(ulong &,ulong,ulong,ulong,ulong,ulong,ulong)
 0001:00032540       CMD5Checksum::CMD5Checksum(void)
 0001:00032580       CMD5Checksum::DWordToByte(uchar *,ulong *,uint)
 0001:0003259A       loc_43359A
 0001:000325C7       loc_4335C7
 0001:000325D0       CMD5Checksum::Final(char *)
 0001:00032600       loc_433600
 0001:00032644       loc_433644
 0001:00032657       loc_433657
 0001:00032668       loc_433668
 0001:00032673       loc_433673
 0001:00032681       loc_433681
 0001:000326C0       CMD5Checksum::Update(uchar *,ulong)
 0001:000326E9       loc_4336E9
 0001:00032731       loc_433731
 0001:0003274B       loc_43374B
 0001:00032753       loc_433753
 0001:00032755       loc_433755
 0001:00032780       ReadJpeg(CBaseStream *,uint *,uint *,uchar * (*)(int))
 0001:000327A0       JpegFile::JpegFileToRGB(CBaseStream *,uint *,uint *,uchar * (*)(int))
 0001:00032807       loc_433807
 0001:00032879       loc_433879
 0001:000328C2       loc_4338C2
 0001:000328F5       loc_4338F5
 0001:0003290E       loc_43390E
 0001:00032911       loc_433911
 0001:00032921       loc_433921
 0001:00032950       my_error_exit(jpeg_common_struct *)
 0001:00032970       j_putRGBScanline(uchar *,int,uchar *,int)
 0001:00032993       loc_433993
 0001:000329B5       loc_4339B5
 0001:000329C0       j_putGrayScanlineToRGB(uchar *,int,uchar *,int)
 0001:000329E2       loc_4339E2
 0001:000329F6       loc_4339F6
 0001:00032A00       ReadFile(CFile *,uchar *,int)
 0001:00032A65       sub_433A65
 0001:00032A71       loc_433A71
 0001:00032AA0       ReadBMP(CFile *,uint *,uint *)
 0001:00032B16       loc_433B16
 0001:00032B5B       loc_433B5B
 0001:00032B83       loc_433B83
 0001:00032BAE       loc_433BAE
 0001:00032C02       loc_433C02
 0001:00032C1C       loc_433C1C
 0001:00032C25       loc_433C25
 0001:00032C5F       loc_433C5F
 0001:00032C9B       loc_433C9B
 0001:00032CF2       loc_433CF2
 0001:00032D2A       loc_433D2A
 0001:00032D47       loc_433D47
 0001:00032D8B       loc_433D8B
 0001:00032DA1       loc_433DA1
 0001:00032DA7       loc_433DA7
 0001:00032DC6       loc_433DC6
 0001:00032DDF       loc_433DDF
 0001:00032DEC       loc_433DEC
 0001:00032E1C       loc_433E1C
 0001:00032E33       loc_433E33
 0001:00032E48       loc_433E48
 0001:00032E54       loc_433E54
 0001:00032E5B       loc_433E5B
 0001:00032E5C       loc_433E5C
 0001:00032E64       loc_433E64
 0001:00032E77       loc_433E77
 0001:00032E87       loc_433E87
 0001:00032EB0       loc_433EB0
 0001:00032ECE       loc_433ECE
 0001:00032EEF       loc_433EEF
 0001:00032F0A       loc_433F0A
 0001:00032F27       loc_433F27
 0001:00032F52       loc_433F52
 0001:00032F58       loc_433F58
 0001:00032F76       loc_433F76
 0001:00032F83       loc_433F83
 0001:00032F93       loc_433F93
 0001:00032FA8       off_433FA8
 0001:00032FB4       byte_433FB4
 0001:00032FE0       CPrinterSetup::CPrinterSetup(CWnd *)
 0001:00033270       CPrinterSetup::`scalar deleting destructor'(uint)
 0001:00033288       loc_434288
 0001:00033290       CPrinterSetup::DoDataExchange(CDataExchange *)
 0001:00033440       byte_434440
 0001:00033443       sub_434443
 0001:000334E5       loc_4344E5
 0001:0003352A       loc_43452A
 0001:0003353E       loc_43453E
 0001:0003355A       loc_43455A
 0001:000335B2       loc_4345B2
 0001:000335E5       loc_4345E5
 0001:00033600       CPrinterSetup::OnEnableControl(void)
 0001:00033610       CPrinterSetup::OnSetPrintIntoFile(void)
 0001:000336D6       loc_4346D6
 0001:00033720       AddEditboxInt(CEdit *,int,int,_NM_UPDOWN *)
 0001:0003378A       loc_43478A
 0001:000337A8       loc_4347A8
 0001:000337B4       loc_4347B4
 0001:000337DA       loc_4347DA
 0001:000337F8       loc_4347F8
 0001:00033870       CPrinterSetup::OnDeltaposSpinPrintCopies(tagNMHDR *,long *)
 0001:000338A0       CPrinterSetup::OnDeltaposSpinTopExtra(tagNMHDR *,long *)
 0001:000338D0       CPrinterSetup::OnDeltaposSpinBottomExtra(tagNMHDR *,long *)
 0001:00033900       CPrinterSetup::OnDeltaposSpinLeftExtra(tagNMHDR *,long *)
 0001:00033930       CPrinterSetup::OnDeltaposSpinRightExtra(tagNMHDR *,long *)
 0001:00033960       CPrinterSetup::OnDeltaposSpinFirstPageNum(tagNMHDR *,long *)
 0001:00033990       CPrinterSetup::OnDeltaposSpinBegin(tagNMHDR *,long *)
 0001:000339C0       CPrinterSetup::OnDeltaposSpinEnd(tagNMHDR *,long *)
 0001:000339F0       CPrinterSetup::OnDeltaposPrintScale(tagNMHDR *,long *)
 0001:00033A20       CPrinterSetup::OnDeltaposLinesPrePage(tagNMHDR *,long *)
 0001:00033A50       CPrinterSetup::OnInitDialog(void)
 0001:00033AFC       loc_434AFC
 0001:00033BA3       loc_434BA3
 0001:00033BC2       loc_434BC2
 0001:00033BF6       loc_434BF6
 0001:00033C03       loc_434C03
 0001:00033C19       loc_434C19
 0001:00033C2A       loc_434C2A
 0001:00033D65       loc_434D65
 0001:00033D90       loc_434D90
 0001:00033DA6       loc_434DA6
 0001:00033DDF       loc_434DDF
 0001:00033DF0       loc_434DF0
 0001:00033DFF       loc_434DFF
 0001:00033E01       loc_434E01
 0001:00033E53       loc_434E53
 0001:00033E64       loc_434E64
 0001:00033E7D       loc_434E7D
 0001:00033E8E       loc_434E8E
 0001:00033EC9       loc_434EC9
 0001:00033EE0       CPrinterSetup::EnableControls(void)
 0001:00033F57       loc_434F57
 0001:00033F5C       loc_434F5C
 0001:00033FA5       loc_434FA5
 0001:00033FA7       loc_434FA7
 0001:00033FE8       loc_434FE8
 0001:00034015       loc_435015
 0001:00034070       CPrinterSetup::ToDivTenStr(int,char *)
 0001:000340A8       loc_4350A8
 0001:000340C1       loc_4350C1
 0001:000340E0       CPrinterSetup::OnOK(void)
 0001:00034143       loc_435143
 0001:00034156       loc_435156
 0001:00034199       loc_435199
 0001:000341AC       loc_4351AC
 0001:000341EF       loc_4351EF
 0001:00034202       loc_435202
 0001:00034245       loc_435245
 0001:00034258       loc_435258
 0001:00034283       loc_435283
 0001:00034295       loc_435295
 0001:000342C4       loc_4352C4
 0001:000342D1       loc_4352D1
 0001:000342FC       loc_4352FC
 0001:00034309       loc_435309
 0001:00034338       loc_435338
 0001:00034345       loc_435345
 0001:000343D4       loc_4353D4
 0001:000343E6       loc_4353E6
 0001:0003440B       loc_43540B
 0001:0003442E       loc_43542E
 0001:00034438       loc_435438
 0001:00034461       loc_435461
 0001:0003446E       loc_43546E
 0001:000344BA       loc_4354BA
 0001:000344CF       loc_4354CF
 0001:000344D9       loc_4354D9
 0001:00034507       loc_435507
 0001:00034512       loc_435512
 0001:0003453E       loc_43553E
 0001:0003456A       loc_43556A
 0001:0003459E       loc_43559E
 0001:000345D0       sub_4355D0
 0001:000345FA       loc_4355FA
 0001:00034600       sub_435600
 0001:0003462A       loc_43562A
 0001:00034630       ChgUnit(double,int,int)
 0001:00034641       loc_435641
 0001:00034658       loc_435658
 0001:00034669       loc_435669
 0001:00034676       loc_435676
 0001:00034683       loc_435683
 0001:00034690       loc_435690
 0001:0003469D       loc_43569D
 0001:000346B0       loc_4356B0
 0001:000346BD       loc_4356BD
 0001:000346CA       loc_4356CA
 0001:000346D7       loc_4356D7
 0001:000346E8       loc_4356E8
 0001:000346F5       loc_4356F5
 0001:00034702       loc_435702
 0001:0003470F       loc_43570F
 0001:0003471C       loc_43571C
 0001:00034729       loc_435729
 0001:00034736       loc_435736
 0001:00034743       loc_435743
 0001:00034750       loc_435750
 0001:0003475D       loc_43575D
 0001:0003476A       loc_43576A
 0001:00034776       locret_435776
 0001:00034778       off_435778
 0001:0003478C       off_43578C
 0001:0003479C       off_43579C
 0001:000347AC       off_4357AC
 0001:000347C0       off_4357C0
 0001:000347D4       off_4357D4
 0001:000347F0       GetPrinterInfo(HDC__ *,int *,int *,int *,int *,int *,int *,int *,int *)
 0001:000349C0       SetDCMapMode(CDC *,int,int)
 0001:00034A50       CPreviewDlg::OnCancel(void)
 0001:00034A60       CPreviewDlg::OnPaint(void)
 0001:00034B30       CPreviewDlg::OnSize(uint,int,int)
 0001:00034BA1       loc_435BA1
 0001:00034BB0       CPreviewDlg::OnPrint(void)
 0001:00034BEA       loc_435BEA
 0001:00034C00       CPreviewDlg::OnPrinterSetup(void)
 0001:00034C29       loc_435C29
 0001:00034C40       CPreviewDlg::OnZoomIn(void)
 0001:00034C70       CPreviewDlg::OnZoomOut(void)
 0001:00034CA0       CPreviewDlg::OnAllWidth(void)
 0001:00034CD0       CPreviewDlg::OnAllHeight(void)
 0001:00034D00       CPreviewDlg::OnPrevPage(void)
 0001:00034D20       CPreviewDlg::OnNextPage(void)
 0001:00034D40       CPreviewDlg::OnGotoSpecPage(void)
 0001:00034DB1       loc_435DB1
 0001:00034E10       CGotoPageDlg::~CGotoPageDlg(void)
 0001:00034E70       CPreviewDlg::RefrushLabel(void)
 0001:00034EC0       CPreviewWnd::OnCreate(tagCREATESTRUCTA *)
 0001:00034ED3       loc_435ED3
 0001:00034EE0       CPreviewWnd::OnSize(uint,int,int)
 0001:00034EFA       loc_435EFA
 0001:00034F10       CPreviewWnd::ReLayout(void)
 0001:00034F47       loc_435F47
 0001:00034F4E       loc_435F4E
 0001:00034F8B       loc_435F8B
 0001:00034FBF       loc_435FBF
 0001:00035015       loc_436015
 0001:00035020       CPreviewWnd::InitScrollRange(void)
 0001:00035150       CPreviewWnd::ChangeRate(int)
 0001:00035174       loc_436174
 0001:0003517B       loc_43617B
 0001:00035180       loc_436180
 0001:000351A0       CPreviewWnd::SetRate(int,int)
 0001:00035262       loc_436262
 0001:00035264       loc_436264
 0001:00035270       loc_436270
 0001:000352B0       CPreviewWnd::OnHScroll(uint,uint,CScrollBar *)
 0001:000352EA       loc_4362EA
 0001:000352EE       loc_4362EE
 0001:000352F6       loc_4362F6
 0001:000352F9       loc_4362F9
 0001:000352FC       loc_4362FC
 0001:00035301       loc_436301
 0001:00035306       loc_436306
 0001:0003530A       loc_43630A
 0001:00035314       loc_436314
 0001:00035316       loc_436316
 0001:0003531E       loc_43631E
 0001:00035324       loc_436324
 0001:00035342       loc_436342
 0001:0003534C       off_43634C
 0001:00035370       CPreviewWnd::OnVScroll(uint,uint,CScrollBar *)
 0001:000353AA       loc_4363AA
 0001:000353AE       loc_4363AE
 0001:000353B6       loc_4363B6
 0001:000353B9       loc_4363B9
 0001:000353BC       loc_4363BC
 0001:000353C1       loc_4363C1
 0001:000353C6       loc_4363C6
 0001:000353CA       loc_4363CA
 0001:000353D4       loc_4363D4
 0001:000353D6       loc_4363D6
 0001:000353DE       loc_4363DE
 0001:000353E4       loc_4363E4
 0001:00035402       loc_436402
 0001:0003540C       off_43640C
 0001:00035430       CPreviewWnd::OnPaint(void)
 0001:000354A2       loc_4364A2
 0001:000354B9       loc_4364B9
 0001:000354DD       loc_4364DD
 0001:000354F8       loc_4364F8
 0001:000354FD       loc_4364FD
 0001:000355B2       loc_4365B2
 0001:00035855       loc_436855
 0001:00035857       loc_436857
 0001:000358E1       loc_4368E1
 0001:00035912       loc_436912
 0001:00035930       Concurrency::details::UMSThreadVirtualProcessor::GetDefaultDestination(void)
 0001:00035940       Concurrency::details::UMSSchedulerProxy::GetCompletionListEvent(void)
 0001:00035950       CPreviewWnd::GoPrevPage(void)
 0001:00035960       CPreviewWnd::GoNextPage(void)
 0001:00035970       CPreviewWnd::GoPage(int)
 0001:0003598E       loc_43698E
 0001:000359D0       loc_4369D0
 0001:000359F0       CInPlaceEdit::CInPlaceEdit(CWnd *,CRect &,uint,int,int,char *,int,CFont *,ulong,ulong)
 0001:00035AD0       loc_436AD0
 0001:00035B05       loc_436B05
 0001:00035B0C       loc_436B0C
 0001:00035B30       CInPlaceEdit::`scalar deleting destructor'(uint)
 0001:00035B48       loc_436B48
 0001:00035B50       CInPlaceEdit::~CInPlaceEdit(void)
 0001:00035BC0       sub_436BC0
 0001:00035BD0       CInPlaceEdit::OnKeyDown(uint,uint,uint)
 0001:00035BE9       loc_436BE9
 0001:00035BFF       loc_436BFF
 0001:00035C16       loc_436C16
 0001:00035C30       CInPlaceEdit::OnKeyUp(uint,uint,uint)
 0001:00035C46       loc_436C46
 0001:00035C50       CInPlaceEdit::OnKillFocus(CWnd *)
 0001:00035C70       CInPlaceEdit::AdjustRect(void)
 0001:00035D60       loc_436D60
 0001:00035D8C       loc_436D8C
 0001:00035D96       loc_436D96
 0001:00035DB1       loc_436DB1
 0001:00035DB9       loc_436DB9
 0001:00035DC7       loc_436DC7
 0001:00035DCE       loc_436DCE
 0001:00035DDE       loc_436DDE
 0001:00035DE6       loc_436DE6
 0001:00035DEA       loc_436DEA
 0001:00035E07       loc_436E07
 0001:00035E0B       loc_436E0B
 0001:00035E15       loc_436E15
 0001:00035E1E       loc_436E1E
 0001:00035E20       loc_436E20
 0001:00035E2F       loc_436E2F
 0001:00035E42       loc_436E42
 0001:00035E84       loc_436E84
 0001:00035E96       loc_436E96
 0001:00035EBB       loc_436EBB
 0001:00035EE0       loc_436EE0
 0001:00035F15       loc_436F15
 0001:00035F50       CInPlaceEdit::OnChar(uint,uint,uint)
 0001:00035F72       loc_436F72
 0001:00035F80       CInPlaceEdit::PreTranslateMessage(tagMSG *)
 0001:00035FA7       loc_436FA7
 0001:00035FB5       loc_436FB5
 0001:00035FC0       unknown_libname_92
 0001:00035FD5       loc_436FD5
 0001:00035FE0       CInPlaceEdit::OnEndEdit(void)
 0001:00035FF0       CInPlaceEdit::EndEdit(void)
 0001:00036044       loc_437044
 0001:0003604B       loc_43704B
 0001:00036086       loc_437086
 0001:000360A7       loc_4370A7
 0001:000360B9       loc_4370B9
 0001:000360E0       CInPlaceEdit::CtlColor(CDC *,uint)
 0001:0003610A       loc_43710A
 0001:00036110       CWnd::OnCreate(tagCREATESTRUCTA *)
 0001:00036120       CMPrintStatusDlg::CMPrintStatusDlg(CWnd *)
 0001:000361B0       CMPrintStatusDlg::`scalar deleting destructor'(uint)
 0001:000361C8       loc_4371C8
 0001:000361D0       CMPrintStatusDlg::DoDataExchange(CDataExchange *)
 0001:00036200       sub_437200
 0001:00036210       CMPrintStatusDlg::OnInitDialog(void)
 0001:00036252       loc_437252
 0001:000362AF       loc_4372AF
 0001:000362E3       loc_4372E3
 0001:00036314       loc_437314
 0001:00036354       loc_437354
 0001:00036366       loc_437366
 0001:0003637A       loc_43737A
 0001:0003638F       loc_43738F
 0001:00036451       loc_437451
 0001:00036478       loc_437478
 0001:00036496       loc_437496
 0001:000364AB       loc_4374AB
 0001:000364B0       loc_4374B0
 0001:0003655B       loc_43755B
 0001:0003658A       loc_43758A
 0001:0003662F       loc_43762F
 0001:00036645       loc_437645
 0001:0003676F       loc_43776F
 0001:000367A8       loc_4377A8
 0001:000367AA       loc_4377AA
 0001:000367EB       loc_4377EB
 0001:00036811       loc_437811
 0001:00036840       loc_437840
 0001:00036892       loc_437892
 0001:000368B6       loc_4378B6
 0001:000368DE       loc_4378DE
 0001:00036903       loc_437903
 0001:0003694A       loc_43794A
 0001:00036977       loc_437977
 0001:00036990       loc_437990
 0001:0003699B       loc_43799B
 0001:000369C7       loc_4379C7
 0001:000369ED       loc_4379ED
 0001:00036A22       loc_437A22
 0001:00036A2B       loc_437A2B
 0001:00036A60       CMPrintStatusDlg::OnDestroy(void)
 0001:00036A70       sub_437A70
 0001:00036A80       sub_437A80
 0001:00036A98       loc_437A98
 0001:00036AA0       CColourPopup::`scalar deleting destructor'(uint)
 0001:00036AB8       loc_437AB8
 0001:00036AC0       CColourPopup::CColourPopup(CPoint,ulong,CWnd *,char const *,char const *)
 0001:00036B5F       loc_437B5F
 0001:00036B62       loc_437B62
 0001:00036B77       loc_437B77
 0001:00036B8E       loc_437B8E
 0001:00036BD0       CColourPopup::Initialise(void)
 0001:00036C38       loc_437C38
 0001:00036C93       loc_437C93
 0001:00036CB4       loc_437CB4
 0001:00036CE0       CColourPopup::~CColourPopup(void)
 0001:00036DA0       CColourPopup::Create(CPoint,ulong,CWnd *,char const *,char const *)
 0001:00036DC6       loc_437DC6
 0001:00036DC9       loc_437DC9
 0001:00036E08       loc_437E08
 0001:00036E5E       loc_437E5E
 0001:00036E6F       loc_437E6F
 0001:00036E80       loc_437E80
 0001:00036ED0       sub_437ED0
 0001:00036EE0       CColourPopup::WindowProc(uint,uint,long)
 0001:00036F10       loc_437F10
 0001:00036F17       loc_437F17
 0001:00036F51       loc_437F51
 0001:00036F70       CColourPopup::OnKeyDown(uint,uint,uint)
 0001:00036FBE       loc_437FBE
 0001:00036FE6       loc_437FE6
 0001:00037000       loc_438000
 0001:00037024       loc_438024
 0001:00037041       loc_438041
 0001:0003704B       loc_43804B
 0001:00037061       loc_438061
 0001:0003707B       loc_43807B
 0001:00037085       loc_438085
 0001:0003708B       loc_43808B
 0001:000370A3       loc_4380A3
 0001:000370AE       loc_4380AE
 0001:000370B1       loc_4380B1
 0001:000370D9       loc_4380D9
 0001:000370EF       loc_4380EF
 0001:000370F8       loc_4380F8
 0001:00037119       loc_438119
 0001:0003711E       loc_43811E
 0001:00037133       loc_438133
 0001:0003713A       loc_43813A
 0001:00037145       loc_438145
 0001:00037158       loc_438158
 0001:0003716B       loc_43816B
 0001:0003717E       loc_43817E
 0001:00037187       loc_438187
 0001:000371A5       loc_4381A5
 0001:000371C8       loc_4381C8
 0001:000371DF       loc_4381DF
 0001:00037200       CColourPopup::OnPaint(void)
 0001:00037245       loc_438245
 0001:0003724F       loc_43824F
 0001:00037264       loc_438264
 0001:0003727D       loc_43827D
 0001:000372D0       CColourPopup::OnMouseMove(uint,CPoint)
 0001:00037308       loc_438308
 0001:00037325       loc_438325
 0001:00037339       loc_438339
 0001:00037358       loc_438358
 0001:00037365       loc_438365
 0001:00037380       CColourPopup::OnLButtonDown(uint,CPoint)
 0001:000373A0       CColourPopup::OnLButtonUp(uint,CPoint)
 0001:000373EF       loc_4383EF
 0001:000373FB       loc_4383FB
 0001:00037400       CColourPopup::GetIndex(int,int)
 0001:00037414       loc_438414
 0001:00037428       loc_438428
 0001:00037432       loc_438432
 0001:00037446       loc_438446
 0001:00037466       loc_438466
 0001:00037469       loc_438469
 0001:00037470       CColourPopup::GetRow(int)
 0001:0003748B       loc_43848B
 0001:000374A2       loc_4384A2
 0001:000374B2       loc_4384B2
 0001:000374C0       CColourPopup::GetColumn(int)
 0001:000374DB       loc_4384DB
 0001:000374F2       loc_4384F2
 0001:00037504       loc_438504
 0001:00037510       CColourPopup::FindCellFromColour(ulong)
 0001:00037539       loc_438539
 0001:00037547       loc_438547
 0001:00037553       loc_438553
 0001:00037569       loc_438569
 0001:00037571       loc_438571
 0001:00037580       CColourPopup::GetCellRect(int,tagRECT * const &)
 0001:0003759E       loc_43859E
 0001:000375B2       loc_4385B2
 0001:000375CA       loc_4385CA
 0001:00037624       loc_438624
 0001:00037648       loc_438648
 0001:00037650       CColourPopup::SetWindowSize(void)
 0001:00037686       loc_438686
 0001:000376D9       loc_4386D9
 0001:00037700       loc_438700
 0001:0003770A       loc_43870A
 0001:0003773D       loc_43873D
 0001:00037741       loc_438741
 0001:00037775       loc_438775
 0001:000377D8       loc_4387D8
 0001:0003781B       loc_43881B
 0001:00037838       loc_438838
 0001:0003788E       loc_43888E
 0001:000378B6       loc_4388B6
 0001:000378C4       loc_4388C4
 0001:000378D6       loc_4388D6
 0001:00037910       CColourPopup::CreateToolTips(void)
 0001:0003793B       loc_43893B
 0001:00037966       loc_438966
 0001:00037972       loc_438972
 0001:00037980       CColourPopup::ChangeSelection(int)
 0001:000379BE       loc_4389BE
 0001:000379C9       loc_4389C9
 0001:000379D3       loc_4389D3
 0001:000379E7       loc_4389E7
 0001:00037A14       loc_438A14
 0001:00037A2C       loc_438A2C
 0001:00037A3C       loc_438A3C
 0001:00037A48       loc_438A48
 0001:00037A70       CColourPopup::EndSelection(int)
 0001:00037AEF       loc_438AEF
 0001:00037AF4       loc_438AF4
 0001:00037B12       loc_438B12
 0001:00037B1A       loc_438B1A
 0001:00037B26       loc_438B26
 0001:00037B4E       loc_438B4E
 0001:00037B70       sub_438B70
 0001:00037B80       CColourPopup::DrawCell(CDC *,int)
 0001:00037C99       loc_438C99
 0001:00037CA7       loc_438CA7
 0001:00037CC2       loc_438CC2
 0001:00037CD4       loc_438CD4
 0001:00037CDA       loc_438CDA
 0001:00037D16       loc_438D16
 0001:00037D90       loc_438D90
 0001:00037D9A       loc_438D9A
 0001:00037E47       loc_438E47
 0001:00037E59       loc_438E59
 0001:00037E5F       loc_438E5F
 0001:00037EAF       loc_438EAF
 0001:00037F07       loc_438F07
 0001:00037F23       loc_438F23
 0001:00037F33       loc_438F33
 0001:00037F4E       loc_438F4E
 0001:00037F60       loc_438F60
 0001:00037F66       loc_438F66
 0001:0003806C       loc_43906C
 0001:00038093       loc_439093
 0001:00038098       loc_439098
 0001:000380B0       CColourPopup::OnQueryNewPalette(void)
 0001:000380D0       CColourPopup::OnPaletteChanged(CWnd *)
 0001:000380E4       loc_4390E4
 0001:000380E7       loc_4390E7
 0001:000380EF       loc_4390EF
 0001:000380F2       loc_4390F2
 0001:00038104       loc_439104
 0001:00038110       CColourPopup::OnKillFocus(CWnd *)
 0001:00038120       CColourPopup::OnActivateApp(int,HTASK__ *)
 0001:00038146       loc_439146
 0001:00038150       jpeg_CreateDecompress(jpeg_decompress_struct *,int,uint)
 0001:0003816C       loc_43916C
 0001:0003817E       loc_43917E
 0001:000381CA       loc_4391CA
 0001:000381F0       unknown_libname_372
 0001:00038200       jpeg_read_header(jpeg_decompress_struct *,int)
 0001:0003821E       loc_43921E
 0001:0003823F       loc_43923F
 0001:0003824F       loc_43924F
 0001:00038254       loc_439254
 0001:00038260       jpeg_consume_input(jpeg_decompress_struct *)
 0001:00038284       loc_439284
 0001:0003829F       loc_43929F
 0001:000382C7       loc_4392C7
 0001:000382CF       loc_4392CF
 0001:000382DE       loc_4392DE
 0001:000382E6       loc_4392E6
 0001:000382EC       off_4392EC
 0001:00038300       byte_439300
 0001:00038310       default_decompress_parms(jpeg_decompress_struct *)
 0001:0003833F       loc_43933F
 0001:0003836A       loc_43936A
 0001:00038379       loc_439379
 0001:00038384       loc_439384
 0001:0003839F       loc_43939F
 0001:000383C1       loc_4393C1
 0001:000383D1       loc_4393D1
 0001:000383FC       loc_4393FC
 0001:0003840B       loc_43940B
 0001:0003841B       loc_43941B
 0001:00038431       loc_439431
 0001:00038437       loc_439437
 0001:00038480       jpeg_finish_decompress(jpeg_decompress_struct *)
 0001:00038496       loc_439496
 0001:000384B2       loc_4394B2
 0001:000384C8       loc_4394C8
 0001:000384D8       loc_4394D8
 0001:000384E7       loc_4394E7
 0001:000384F4       loc_4394F4
 0001:0003850B       loc_43950B
 0001:00038522       loc_439522
 0001:00038530       jpeg_start_decompress(jpeg_decompress_struct *)
 0001:0003855C       loc_43955C
 0001:00038563       loc_439563
 0001:0003857A       loc_43957A
 0001:00038587       loc_439587
 0001:000385AD       loc_4395AD
 0001:000385CE       loc_4395CE
 0001:000385D2       loc_4395D2
 0001:000385E9       loc_4395E9
 0001:000385F8       loc_4395F8
 0001:00038610       output_pass_setup(jpeg_decompress_struct *)
 0001:0003863A       loc_43963A
 0001:0003864D       loc_43964D
 0001:00038656       loc_439656
 0001:00038672       loc_439672
 0001:00038691       loc_439691
 0001:000386BA       loc_4396BA
 0001:000386D5       loc_4396D5
 0001:000386E0       jpeg_read_scanlines(jpeg_decompress_struct *,uchar * *,uint)
 0001:000386F6       loc_4396F6
 0001:00038712       loc_439712
 0001:0003872E       loc_43972E
 0001:00038770       jpeg_stdio_src(jpeg_decompress_struct *,CBaseStream *)
 0001:000387A0       loc_4397A0
 0001:000387E0       init_source(jpeg_decompress_struct *)
 0001:000387F0       fill_input_buffer(jpeg_decompress_struct *)
 0001:0003881D       loc_43981D
 0001:0003883A       loc_43983A
 0001:00038860       skip_input_data(jpeg_decompress_struct *,long)
 0001:00038879       loc_439879
 0001:0003888B       loc_43988B
 0001:00038899       loc_439899
 0001:000388A0       jpeg_std_error(jpeg_error_mgr *)
 0001:000388F0       unknown_libname_373
 0001:00038900       reset_error_mgr(jpeg_common_struct *)
 0001:00038920       CGotoPageDlg::CGotoPageDlg(CWnd *)
 0001:000389A0       CGotoPageDlg::`scalar deleting destructor'(uint)
 0001:000389B8       loc_4399B8
 0001:000389C0       CGotoPageDlg::DoDataExchange(CDataExchange *)
 0001:000389F0       sub_4399F0
 0001:00038A00       CGotoPageDlg::OnInitDialog(void)
 0001:00038A50       CGotoPageDlg::OnOK(void)
 0001:00038AA3       loc_439AA3
 0001:00038AB0       loc_439AB0
 0001:00038ABE       loc_439ABE
 0001:00038AD9       loc_439AD9
 0001:00038AE6       loc_439AE6
 0001:00038B20       jinit_input_controller(jpeg_decompress_struct *)
 0001:00038B70       start_input_pass(jpeg_decompress_struct *)
 0001:00038BB0       per_scan_setup(jpeg_decompress_struct *)
 0001:00038C01       loc_439C01
 0001:00038C19       loc_439C19
 0001:00038C24       loc_439C24
 0001:00038C2C       loc_439C2C
 0001:00038C84       loc_439C84
 0001:00038CB4       loc_439CB4
 0001:00038CC4       loc_439CC4
 0001:00038CDC       loc_439CDC
 0001:00038CE6       loc_439CE6
 0001:00038D07       loc_439D07
 0001:00038D2A       loc_439D2A
 0001:00038D30       latch_quant_tables(jpeg_decompress_struct *)
 0001:00038D55       loc_439D55
 0001:00038D79       loc_439D79
 0001:00038D81       loc_439D81
 0001:00038DA4       loc_439DA4
 0001:00038DC5       loc_439DC5
 0001:00038DD0       finish_input_pass(jpeg_decompress_struct *)
 0001:00038DF0       consume_markers(jpeg_decompress_struct *)
 0001:00038E0B       loc_439E0B
 0001:00038E4A       loc_439E4A
 0001:00038E66       loc_439E66
 0001:00038E83       loc_439E83
 0001:00038E92       loc_439E92
 0001:00038E9B       loc_439E9B
 0001:00038EB0       initial_setup(jpeg_decompress_struct *)
 0001:00038EC4       loc_439EC4
 0001:00038ECC       loc_439ECC
 0001:00038EDD       loc_439EDD
 0001:00038EEB       loc_439EEB
 0001:00038F10       loc_439F10
 0001:00038F27       loc_439F27
 0001:00038F2F       loc_439F2F
 0001:00038F3E       loc_439F3E
 0001:00038F52       loc_439F52
 0001:00038F63       loc_439F63
 0001:00038F83       loc_439F83
 0001:0003900B       loc_43A00B
 0001:0003904F       loc_43A04F
 0001:00039060       reset_input_controller(jpeg_decompress_struct *)
 0001:000390B0       jpeg_resync_to_restart(jpeg_decompress_struct *,int)
 0001:000390CE       loc_43A0CE
 0001:000390D6       loc_43A0D6
 0001:000390DD       loc_43A0DD
 0001:00039133       loc_43A133
 0001:00039138       loc_43A138
 0001:00039152       loc_43A152
 0001:0003916A       loc_43A16A
 0001:00039171       loc_43A171
 0001:0003917B       loc_43A17B
 0001:00039190       next_marker(jpeg_decompress_struct *)
 0001:000391A0       loc_43A1A0
 0001:000391B8       loc_43A1B8
 0001:000391C5       loc_43A1C5
 0001:000391EB       loc_43A1EB
 0001:000391FA       loc_43A1FA
 0001:000391FE       loc_43A1FE
 0001:00039212       loc_43A212
 0001:00039247       loc_43A247
 0001:0003924E       loc_43A24E
 0001:0003927D       loc_43A27D
 0001:000392A0       jinit_marker_reader(jpeg_decompress_struct *)
 0001:000392EA       loc_43A2EA
 0001:00039330       get_app0(jpeg_decompress_struct *)
 0001:0003935D       loc_43A35D
 0001:00039380       loc_43A380
 0001:000393A2       loc_43A3A2
 0001:000393BB       loc_43A3BB
 0001:00039424       loc_43A424
 0001:0003942E       loc_43A42E
 0001:0003943D       loc_43A43D
 0001:00039440       loc_43A440
 0001:000394A8       loc_43A4A8
 0001:000394CF       loc_43A4CF
 0001:000394D9       loc_43A4D9
 0001:000394E1       loc_43A4E1
 0001:000394E4       loc_43A4E4
 0001:000394FD       loc_43A4FD
 0001:00039510       get_app14(jpeg_decompress_struct *)
 0001:0003953B       loc_43A53B
 0001:0003955F       loc_43A55F
 0001:00039579       loc_43A579
 0001:00039591       loc_43A591
 0001:000395F8       loc_43A5F8
 0001:00039602       loc_43A602
 0001:00039617       loc_43A617
 0001:00039626       loc_43A626
 0001:0003963E       loc_43A63E
 0001:00039650       skip_variable(jpeg_decompress_struct *)
 0001:00039674       loc_43A674
 0001:00039692       loc_43A692
 0001:000396CC       loc_43A6CC
 0001:000396E0       read_markers(jpeg_decompress_struct *)
 0001:000396E8       loc_43A6E8
 0001:0003970E       loc_43A70E
 0001:0003971E       loc_43A71E
 0001:00039742       loc_43A742
 0001:0003974D       loc_43A74D
 0001:00039751       loc_43A751
 0001:00039754       loc_43A754
 0001:00039759       loc_43A759
 0001:0003975B       loc_43A75B
 0001:0003975D       loc_43A75D
 0001:00039766       loc_43A766
 0001:00039779       loc_43A779
 0001:0003978C       loc_43A78C
 0001:000397A8       loc_43A7A8
 0001:000397C4       loc_43A7C4
 0001:000397E0       loc_43A7E0
 0001:000397FC       loc_43A7FC
 0001:00039820       loc_43A820
 0001:00039840       loc_43A840
 0001:00039856       loc_43A856
 0001:0003986E       loc_43A86E
 0001:00039881       loc_43A881
 0001:0003989C       loc_43A89C
 0001:000398B5       loc_43A8B5
 0001:000398BC       off_43A8BC
 0001:00039900       byte_43A900
 0001:00039A00       get_soi(jpeg_decompress_struct *)
 0001:00039A27       loc_43AA27
 0001:00039A36       loc_43AA36
 0001:00039AA0       get_sof(jpeg_decompress_struct *,int,int)
 0001:00039ADE       loc_43AADE
 0001:00039B01       loc_43AB01
 0001:00039B2A       loc_43AB2A
 0001:00039B4F       loc_43AB4F
 0001:00039B71       loc_43AB71
 0001:00039B98       loc_43AB98
 0001:00039BBA       loc_43ABBA
 0001:00039BE1       loc_43ABE1
 0001:00039C15       loc_43AC15
 0001:00039C2A       loc_43AC2A
 0001:00039C32       loc_43AC32
 0001:00039C48       loc_43AC48
 0001:00039C76       loc_43AC76
 0001:00039C95       loc_43AC95
 0001:00039C99       loc_43AC99
 0001:00039CBD       loc_43ACBD
 0001:00039CE2       loc_43ACE2
 0001:00039D12       loc_43AD12
 0001:00039D45       loc_43AD45
 0001:00039D5E       loc_43AD5E
 0001:00039D70       get_sos(jpeg_decompress_struct *)
 0001:00039D9C       loc_43AD9C
 0001:00039DB4       loc_43ADB4
 0001:00039DD6       loc_43ADD6
 0001:00039DFE       loc_43ADFE
 0001:00039E1E       loc_43AE1E
 0001:00039E26       loc_43AE26
 0001:00039E55       loc_43AE55
 0001:00039E6D       loc_43AE6D
 0001:00039E8F       loc_43AE8F
 0001:00039EA8       loc_43AEA8
 0001:00039EBB       loc_43AEBB
 0001:00039EC7       loc_43AEC7
 0001:00039F0D       loc_43AF0D
 0001:00039F25       loc_43AF25
 0001:00039F45       loc_43AF45
 0001:00039F65       loc_43AF65
 0001:00039FB9       loc_43AFB9
 0001:00039FD0       get_dac(jpeg_decompress_struct *)
 0001:0003A003       loc_43B003
 0001:0003A029       loc_43B029
 0001:0003A040       loc_43B040
 0001:0003A05E       loc_43B05E
 0001:0003A084       loc_43B084
 0001:0003A0AD       loc_43B0AD
 0001:0003A0B5       loc_43B0B5
 0001:0003A0C3       loc_43B0C3
 0001:0003A0EA       loc_43B0EA
 0001:0003A0FE       loc_43B0FE
 0001:0003A110       loc_43B110
 0001:0003A120       get_dht(jpeg_decompress_struct *)
 0001:0003A155       loc_43B155
 0001:0003A17C       loc_43B17C
 0001:0003A196       loc_43B196
 0001:0003A19D       loc_43B19D
 0001:0003A1B5       loc_43B1B5
 0001:0003A1DD       loc_43B1DD
 0001:0003A1FC       loc_43B1FC
 0001:0003A250       loc_43B250
 0001:0003A25C       loc_43B25C
 0001:0003A266       loc_43B266
 0001:0003A286       loc_43B286
 0001:0003A298       loc_43B298
 0001:0003A2B6       loc_43B2B6
 0001:0003A2BD       loc_43B2BD
 0001:0003A2C6       loc_43B2C6
 0001:0003A2CE       loc_43B2CE
 0001:0003A2DE       loc_43B2DE
 0001:0003A322       loc_43B322
 0001:0003A337       loc_43B337
 0001:0003A350       get_dqt(jpeg_decompress_struct *)
 0001:0003A37D       loc_43B37D
 0001:0003A3A0       loc_43B3A0
 0001:0003A3B7       loc_43B3B7
 0001:0003A3D4       loc_43B3D4
 0001:0003A406       loc_43B406
 0001:0003A42B       loc_43B42B
 0001:0003A43E       loc_43B43E
 0001:0003A463       loc_43B463
 0001:0003A482       loc_43B482
 0001:0003A48B       loc_43B48B
 0001:0003A4A4       loc_43B4A4
 0001:0003A4A9       loc_43B4A9
 0001:0003A4DD       loc_43B4DD
 0001:0003A4E1       loc_43B4E1
 0001:0003A4EF       loc_43B4EF
 0001:0003A50B       loc_43B50B
 0001:0003A517       loc_43B517
 0001:0003A52A       loc_43B52A
 0001:0003A540       get_dri(jpeg_decompress_struct *)
 0001:0003A568       loc_43B568
 0001:0003A58E       loc_43B58E
 0001:0003A5A4       loc_43B5A4
 0001:0003A5B8       loc_43B5B8
 0001:0003A5D6       loc_43B5D6
 0001:0003A60B       loc_43B60B
 0001:0003A620       first_marker(jpeg_decompress_struct *)
 0001:0003A645       loc_43B645
 0001:0003A663       loc_43B663
 0001:0003A67E       loc_43B67E
 0001:0003A68A       loc_43B68A
 0001:0003A6A4       loc_43B6A4
 0001:0003A6B0       read_restart_marker(jpeg_decompress_struct *)
 0001:0003A6CE       loc_43B6CE
 0001:0003A6FC       loc_43B6FC
 0001:0003A713       loc_43B713
 0001:0003A730       reset_marker_reader(jpeg_decompress_struct *)
 0001:0003A770       jinit_memory_mgr(jpeg_common_struct *)
 0001:0003A7A6       loc_43B7A6
 0001:0003A801       loc_43B801
 0001:0003A85A       loc_43B85A
 0001:0003A87E       loc_43B87E
 0001:0003A891       loc_43B891
 0001:0003A8A0       alloc_small(jpeg_common_struct *,int,uint)
 0001:0003A8C6       loc_43B8C6
 0001:0003A8DA       loc_43B8DA
 0001:0003A8E7       loc_43B8E7
 0001:0003A8F0       loc_43B8F0
 0001:0003A8FE       loc_43B8FE
 0001:0003A90D       loc_43B90D
 0001:0003A915       loc_43B915
 0001:0003A925       loc_43B925
 0001:0003A92C       loc_43B92C
 0001:0003A939       loc_43B939
 0001:0003A94A       loc_43B94A
 0001:0003A95C       loc_43B95C
 0001:0003A96D       loc_43B96D
 0001:0003A9A0       loc_43B9A0
 0001:0003A9A2       loc_43B9A2
 0001:0003A9A6       loc_43B9A6
 0001:0003A9D0       alloc_large(jpeg_common_struct *,int,uint)
 0001:0003A9F2       loc_43B9F2
 0001:0003AA02       loc_43BA02
 0001:0003AA0F       loc_43BA0F
 0001:0003AA17       loc_43BA17
 0001:0003AA39       loc_43BA39
 0001:0003AA60       alloc_sarray(jpeg_common_struct *,int,uint,uint)
 0001:0003AA86       loc_43BA86
 0001:0003AA90       loc_43BA90
 0001:0003AAB7       loc_43BAB7
 0001:0003AAC1       loc_43BAC1
 0001:0003AAE8       loc_43BAE8
 0001:0003AAF2       loc_43BAF2
 0001:0003AAFA       loc_43BAFA
 0001:0003AB00       alloc_barray(jpeg_common_struct *,int,uint,uint)
 0001:0003AB29       loc_43BB29
 0001:0003AB33       loc_43BB33
 0001:0003AB5A       loc_43BB5A
 0001:0003AB64       loc_43BB64
 0001:0003AB90       loc_43BB90
 0001:0003AB9A       loc_43BB9A
 0001:0003ABA2       loc_43BBA2
 0001:0003ABB0       request_virt_sarray(jpeg_common_struct *,int,int,uint,uint,uint)
 0001:0003ABCB       loc_43BBCB
 0001:0003AC10       request_virt_barray(jpeg_common_struct *,int,int,uint,uint,uint)
 0001:0003AC2B       loc_43BC2B
 0001:0003AC70       realize_virt_arrays(jpeg_common_struct *)
 0001:0003AC86       loc_43BC86
 0001:0003AC9E       loc_43BC9E
 0001:0003ACA5       loc_43BCA5
 0001:0003ACAC       loc_43BCAC
 0001:0003ACCA       loc_43BCCA
 0001:0003ACD1       loc_43BCD1
 0001:0003ACF3       loc_43BCF3
 0001:0003AD01       loc_43BD01
 0001:0003AD08       loc_43BD08
 0001:0003AD23       loc_43BD23
 0001:0003AD48       loc_43BD48
 0001:0003AD6E       loc_43BD6E
 0001:0003AD75       loc_43BD75
 0001:0003AD7C       loc_43BD7C
 0001:0003AD97       loc_43BD97
 0001:0003ADBF       loc_43BDBF
 0001:0003ADE5       loc_43BDE5
 0001:0003ADEC       loc_43BDEC
 0001:0003AE00       access_virt_sarray(jpeg_common_struct *,jvirt_sarray_control *,uint,uint,int)
 0001:0003AE22       loc_43BE22
 0001:0003AE30       loc_43BE30
 0001:0003AE34       loc_43BE34
 0001:0003AE44       loc_43BE44
 0001:0003AE53       loc_43BE53
 0001:0003AE6D       loc_43BE6D
 0001:0003AE77       loc_43BE77
 0001:0003AE82       loc_43BE82
 0001:0003AE85       loc_43BE85
 0001:0003AE91       loc_43BE91
 0001:0003AEB0       loc_43BEB0
 0001:0003AEB4       loc_43BEB4
 0001:0003AEBB       loc_43BEBB
 0001:0003AED0       loc_43BED0
 0001:0003AEE4       loc_43BEE4
 0001:0003AEE8       loc_43BEE8
 0001:0003AEF2       loc_43BEF2
 0001:0003AF15       loc_43BF15
 0001:0003AF19       loc_43BF19
 0001:0003AF20       loc_43BF20
 0001:0003AF30       do_sarray_io(jpeg_common_struct *,jvirt_sarray_control *,int)
 0001:0003AF50       loc_43BF50
 0001:0003AF54       loc_43BF54
 0001:0003AF5F       loc_43BF5F
 0001:0003AF6F       loc_43BF6F
 0001:0003AF7A       loc_43BF7A
 0001:0003AFA1       loc_43BFA1
 0001:0003AFB4       loc_43BFB4
 0001:0003AFC5       loc_43BFC5
 0001:0003AFD0       access_virt_barray(jpeg_common_struct *,jvirt_barray_control *,uint,uint,int)
 0001:0003AFF2       loc_43BFF2
 0001:0003B000       loc_43C000
 0001:0003B004       loc_43C004
 0001:0003B014       loc_43C014
 0001:0003B023       loc_43C023
 0001:0003B03D       loc_43C03D
 0001:0003B047       loc_43C047
 0001:0003B052       loc_43C052
 0001:0003B055       loc_43C055
 0001:0003B061       loc_43C061
 0001:0003B080       loc_43C080
 0001:0003B084       loc_43C084
 0001:0003B08B       loc_43C08B
 0001:0003B0A3       loc_43C0A3
 0001:0003B0B7       loc_43C0B7
 0001:0003B0BB       loc_43C0BB
 0001:0003B0C5       loc_43C0C5
 0001:0003B0E8       loc_43C0E8
 0001:0003B0EC       loc_43C0EC
 0001:0003B0F3       loc_43C0F3
 0001:0003B110       do_barray_io(jpeg_common_struct *,jvirt_barray_control *,int)
 0001:0003B133       loc_43C133
 0001:0003B137       loc_43C137
 0001:0003B142       loc_43C142
 0001:0003B154       loc_43C154
 0001:0003B15F       loc_43C15F
 0001:0003B186       loc_43C186
 0001:0003B199       loc_43C199
 0001:0003B1AA       loc_43C1AA
 0001:0003B1B0       free_pool(jpeg_common_struct *,int)
 0001:0003B1CA       loc_43C1CA
 0001:0003B1D3       loc_43C1D3
 0001:0003B1DF       loc_43C1DF
 0001:0003B1F2       loc_43C1F2
 0001:0003B1F9       loc_43C1F9
 0001:0003B203       loc_43C203
 0001:0003B216       loc_43C216
 0001:0003B21D       loc_43C21D
 0001:0003B224       loc_43C224
 0001:0003B230       loc_43C230
 0001:0003B25B       loc_43C25B
 0001:0003B267       loc_43C267
 0001:0003B28C       loc_43C28C
 0001:0003B2A0       self_destruct(jpeg_common_struct *)
 0001:0003B2AB       loc_43C2AB
 0001:0003B2E0       jpeg_abort(jpeg_common_struct *)
 0001:0003B310       jpeg_destroy(jpeg_common_struct *)
 0001:0003B326       loc_43C326
 0001:0003B330       jpeg_alloc_quant_table(jpeg_common_struct *)
 0001:0003B350       jpeg_alloc_huff_table(jpeg_common_struct *)
 0001:0003B370       jpeg_calc_output_dimensions(jpeg_decompress_struct *)
 0001:0003B387       loc_43C387
 0001:0003B3C4       loc_43C3C4
 0001:0003B3FA       loc_43C3FA
 0001:0003B42C       loc_43C42C
 0001:0003B442       loc_43C442
 0001:0003B45C       loc_43C45C
 0001:0003B472       loc_43C472
 0001:0003B499       loc_43C499
 0001:0003B4B4       loc_43C4B4
 0001:0003B4C6       loc_43C4C6
 0001:0003B50E       loc_43C50E
 0001:0003B520       loc_43C520
 0001:0003B525       loc_43C525
 0001:0003B52E       loc_43C52E
 0001:0003B537       loc_43C537
 0001:0003B53D       loc_43C53D
 0001:0003B549       loc_43C549
 0001:0003B568       loc_43C568
 0001:0003B574       off_43C574
 0001:0003B590       use_merged_upsample(jpeg_decompress_struct *)
 0001:0003B60F       loc_43C60F
 0001:0003B611       loc_43C611
 0001:0003B620       jinit_master_decompress(jpeg_decompress_struct *)
 0001:0003B660       master_selection(jpeg_decompress_struct *)
 0001:0003B69D       loc_43C69D
 0001:0003B6A6       loc_43C6A6
 0001:0003B6BC       loc_43C6BC
 0001:0003B6D3       loc_43C6D3
 0001:0003B6E0       loc_43C6E0
 0001:0003B6EA       loc_43C6EA
 0001:0003B6ED       loc_43C6ED
 0001:0003B704       loc_43C704
 0001:0003B70E       loc_43C70E
 0001:0003B720       loc_43C720
 0001:0003B737       loc_43C737
 0001:0003B745       loc_43C745
 0001:0003B752       loc_43C752
 0001:0003B76C       loc_43C76C
 0001:0003B77E       loc_43C77E
 0001:0003B783       loc_43C783
 0001:0003B79A       loc_43C79A
 0001:0003B79C       loc_43C79C
 0001:0003B7B7       loc_43C7B7
 0001:0003B7F3       loc_43C7F3
 0001:0003B825       loc_43C825
 0001:0003B830       prepare_range_limit_table(jpeg_decompress_struct *)
 0001:0003B863       loc_43C863
 0001:0003B8B0       prepare_for_output_pass(jpeg_decompress_struct *)
 0001:0003B8F3       loc_43C8F3
 0001:0003B924       loc_43C924
 0001:0003B936       loc_43C936
 0001:0003B93E       loc_43C93E
 0001:0003B96E       loc_43C96E
 0001:0003B991       loc_43C991
 0001:0003B9B3       loc_43C9B3
 0001:0003BA00       loc_43CA00
 0001:0003BA10       finish_output_pass(jpeg_decompress_struct *)
 0001:0003BA2F       loc_43CA2F
 0001:0003BA40       jdiv_round_up(long,long)
 0001:0003BA50       jround_up(long,long)
 0001:0003BA70       jcopy_sample_rows(uchar * *,int,uchar * *,int,int,uint)
 0001:0003BA92       loc_43CA92
 0001:0003BAB4       loc_43CAB4
 0001:0003BAC0       jcopy_block_row(short (*)[64],short (*)[64],uint)
 0001:0003BAF0       jzero_far(void *,uint)
 0001:0003BB10       unknown_libname_235
 0001:0003BB20       unknown_libname_236
 0001:0003BB30       jpeg_mem_available(jpeg_common_struct *,long,long,long)
 0001:0003BB40       unknown_libname_237
 0001:0003BB50       sub_43CB50
 0001:0003BB60       jinit_d_main_controller(jpeg_decompress_struct *,int)
 0001:0003BB92       loc_43CB92
 0001:0003BBB0       loc_43CBB0
 0001:0003BBC8       loc_43CBC8
 0001:0003BBD2       loc_43CBD2
 0001:0003BBE8       loc_43CBE8
 0001:0003BC21       loc_43CC21
 0001:0003BC30       alloc_funny_pointers(jpeg_decompress_struct *)
 0001:0003BC82       loc_43CC82
 0001:0003BCD5       loc_43CCD5
 0001:0003BCE0       start_pass_main(jpeg_decompress_struct *,J_BUF_MODE)
 0001:0003BD06       loc_43CD06
 0001:0003BD10       loc_43CD10
 0001:0003BD3D       loc_43CD3D
 0001:0003BD50       make_funny_pointers(jpeg_decompress_struct *)
 0001:0003BD96       loc_43CD96
 0001:0003BDA2       loc_43CDA2
 0001:0003BDE3       loc_43CDE3
 0001:0003BE05       loc_43CE05
 0001:0003BE2A       loc_43CE2A
 0001:0003BE46       loc_43CE46
 0001:0003BE55       loc_43CE55
 0001:0003BE64       loc_43CE64
 0001:0003BE90       loc_43CE90
 0001:0003BEA0       process_data_simple_main(jpeg_decompress_struct *,uchar * *,uint *,uint)
 0001:0003BED0       loc_43CED0
 0001:0003BF10       loc_43CF10
 0001:0003BF20       process_data_context_main(jpeg_decompress_struct *,uchar * *,uint *,uint)
 0001:0003BF60       loc_43CF60
 0001:0003BFBE       loc_43CFBE
 0001:0003BFE5       loc_43CFE5
 0001:0003BFEC       loc_43CFEC
 0001:0003C032       loc_43D032
 0001:0003C05D       loc_43D05D
 0001:0003C070       set_wraparound_pointers(jpeg_decompress_struct *)
 0001:0003C0AF       loc_43D0AF
 0001:0003C0B3       loc_43D0B3
 0001:0003C108       loc_43D108
 0001:0003C10C       loc_43D10C
 0001:0003C15F       loc_43D15F
 0001:0003C177       loc_43D177
 0001:0003C180       set_bottom_pointers(jpeg_decompress_struct *)
 0001:0003C1A7       loc_43D1A7
 0001:0003C1AB       loc_43D1AB
 0001:0003C1CB       loc_43D1CB
 0001:0003C1E1       loc_43D1E1
 0001:0003C1E5       loc_43D1E5
 0001:0003C1FB       loc_43D1FB
 0001:0003C206       loc_43D206
 0001:0003C214       loc_43D214
 0001:0003C220       process_data_crank_post(jpeg_decompress_struct *,uchar * *,uint *,uint)
 0001:0003C250       jinit_d_coef_controller(jpeg_decompress_struct *,int)
 0001:0003C2A7       loc_43D2A7
 0001:0003C2B8       loc_43D2B8
 0001:0003C302       loc_43D302
 0001:0003C31C       loc_43D31C
 0001:0003C335       loc_43D335
 0001:0003C360       start_input_pass(jpeg_decompress_struct *)
 0001:0003C380       start_iMCU_row(jpeg_decompress_struct *)
 0001:0003C3C1       loc_43D3C1
 0001:0003C3C4       loc_43D3C4
 0001:0003C3E0       start_output_pass(jpeg_decompress_struct *)
 0001:0003C41B       loc_43D41B
 0001:0003C422       loc_43D422
 0001:0003C430       decompress_onepass(jpeg_decompress_struct *,uchar * * *)
 0001:0003C46D       loc_43D46D
 0001:0003C47C       loc_43D47C
 0001:0003C4D4       loc_43D4D4
 0001:0003C4D8       loc_43D4D8
 0001:0003C4F1       loc_43D4F1
 0001:0003C513       loc_43D513
 0001:0003C51A       loc_43D51A
 0001:0003C544       loc_43D544
 0001:0003C55B       loc_43D55B
 0001:0003C56F       loc_43D56F
 0001:0003C5A4       loc_43D5A4
 0001:0003C5C0       loc_43D5C0
 0001:0003C5F8       loc_43D5F8
 0001:0003C60F       loc_43D60F
 0001:0003C626       loc_43D626
 0001:0003C662       loc_43D662
 0001:0003C676       loc_43D676
 0001:0003C690       sub_43D690
 0001:0003C6A0       consume_data(jpeg_decompress_struct *)
 0001:0003C6D3       loc_43D6D3
 0001:0003C71E       loc_43D71E
 0001:0003C730       loc_43D730
 0001:0003C745       loc_43D745
 0001:0003C76B       loc_43D76B
 0001:0003C79C       loc_43D79C
 0001:0003C7B3       loc_43D7B3
 0001:0003C7CA       loc_43D7CA
 0001:0003C7E1       loc_43D7E1
 0001:0003C815       loc_43D815
 0001:0003C841       loc_43D841
 0001:0003C858       loc_43D858
 0001:0003C887       loc_43D887
 0001:0003C89B       loc_43D89B
 0001:0003C8C0       decompress_data(jpeg_decompress_struct *,uchar * * *)
 0001:0003C8DA       loc_43D8DA
 0001:0003C8FC       loc_43D8FC
 0001:0003C912       loc_43D912
 0001:0003C947       loc_43D947
 0001:0003C985       loc_43D985
 0001:0003C995       loc_43D995
 0001:0003C9BA       loc_43D9BA
 0001:0003C9CA       loc_43D9CA
 0001:0003C9F5       loc_43D9F5
 0001:0003CA1D       loc_43DA1D
 0001:0003CA47       loc_43DA47
 0001:0003CA6A       loc_43DA6A
 0001:0003CA80       smoothing_ok(jpeg_decompress_struct *)
 0001:0003CACE       loc_43DACE
 0001:0003CAED       loc_43DAED
 0001:0003CB45       loc_43DB45
 0001:0003CB58       loc_43DB58
 0001:0003CB86       loc_43DB86
 0001:0003CB92       loc_43DB92
 0001:0003CBA0       decompress_smooth_data(jpeg_decompress_struct *,uchar * * *)
 0001:0003CBDC       loc_43DBDC
 0001:0003CC0C       loc_43DC0C
 0001:0003CC2A       loc_43DC2A
 0001:0003CC69       loc_43DC69
 0001:0003CC9A       loc_43DC9A
 0001:0003CCA7       loc_43DCA7
 0001:0003CCBC       loc_43DCBC
 0001:0003CCC6       loc_43DCC6
 0001:0003CCF5       loc_43DCF5
 0001:0003CD15       loc_43DD15
 0001:0003CDA4       loc_43DDA4
 0001:0003CDAC       loc_43DDAC
 0001:0003CDC1       loc_43DDC1
 0001:0003CDC5       loc_43DDC5
 0001:0003CDDA       loc_43DDDA
 0001:0003CDDE       loc_43DDDE
 0001:0003CE2A       loc_43DE2A
 0001:0003CE6E       loc_43DE6E
 0001:0003CEBC       loc_43DEBC
 0001:0003CED9       loc_43DED9
 0001:0003CEDB       loc_43DEDB
 0001:0003CEE7       loc_43DEE7
 0001:0003CF39       loc_43DF39
 0001:0003CF56       loc_43DF56
 0001:0003CF58       loc_43DF58
 0001:0003CF64       loc_43DF64
 0001:0003CFC0       loc_43DFC0
 0001:0003CFDD       loc_43DFDD
 0001:0003CFDF       loc_43DFDF
 0001:0003CFEB       loc_43DFEB
 0001:0003D043       loc_43E043
 0001:0003D060       loc_43E060
 0001:0003D062       loc_43E062
 0001:0003D06A       loc_43E06A
 0001:0003D0C7       loc_43E0C7
 0001:0003D0E4       loc_43E0E4
 0001:0003D0E6       loc_43E0E6
 0001:0003D0EE       loc_43E0EE
 0001:0003D1AA       loc_43E1AA
 0001:0003D1E2       loc_43E1E2
 0001:0003D210       jpeg_make_d_derived_tbl(jpeg_decompress_struct *,JHUFF_TBL *,d_derived_tbl * *)
 0001:0003D23F       loc_43E23F
 0001:0003D25D       loc_43E25D
 0001:0003D29E       loc_43E29E
 0001:0003D2B8       loc_43E2B8
 0001:0003D2C8       loc_43E2C8
 0001:0003D2D8       loc_43E2D8
 0001:0003D2E3       loc_43E2E3
 0001:0003D2ED       loc_43E2ED
 0001:0003D312       loc_43E312
 0001:0003D318       loc_43E318
 0001:0003D34C       loc_43E34C
 0001:0003D37D       loc_43E37D
 0001:0003D39D       loc_43E39D
 0001:0003D3AE       loc_43E3AE
 0001:0003D3E2       loc_43E3E2
 0001:0003D400       jpeg_fill_bit_buffer(bitread_working_state *,int,int,int)
 0001:0003D41A       loc_43E41A
 0001:0003D445       loc_43E445
 0001:0003D452       loc_43E452
 0001:0003D472       loc_43E472
 0001:0003D48A       loc_43E48A
 0001:0003D48D       loc_43E48D
 0001:0003D4B2       loc_43E4B2
 0001:0003D4B4       loc_43E4B4
 0001:0003D4CD       loc_43E4CD
 0001:0003D4E6       loc_43E4E6
 0001:0003D4F0       jpeg_huff_decode(bitread_working_state *,int,int,d_derived_tbl *,int)
 0001:0003D51C       loc_43E51C
 0001:0003D524       loc_43E524
 0001:0003D52C       loc_43E52C
 0001:0003D530       loc_43E530
 0001:0003D552       loc_43E552
 0001:0003D570       loc_43E570
 0001:0003D592       loc_43E592
 0001:0003D5B6       loc_43E5B6
 0001:0003D5E0       jinit_huff_decoder(jpeg_decompress_struct *)
 0001:0003D610       loc_43E610
 0001:0003D620       start_pass_huff_decoder(jpeg_decompress_struct *)
 0001:0003D655       loc_43E655
 0001:0003D660       loc_43E660
 0001:0003D684       loc_43E684
 0001:0003D6A4       loc_43E6A4
 0001:0003D6AC       loc_43E6AC
 0001:0003D6C0       loc_43E6C0
 0001:0003D6C8       loc_43E6C8
 0001:0003D727       loc_43E727
 0001:0003D740       decode_mcu(jpeg_decompress_struct *,short (* *)[64])
 0001:0003D773       loc_43E773
 0001:0003D77D       loc_43E77D
 0001:0003D7EF       loc_43E7EF
 0001:0003D84E       loc_43E84E
 0001:0003D875       loc_43E875
 0001:0003D87A       loc_43E87A
 0001:0003D89D       loc_43E89D
 0001:0003D8C5       loc_43E8C5
 0001:0003D8EF       loc_43E8EF
 0001:0003D8F1       loc_43E8F1
 0001:0003D8F5       loc_43E8F5
 0001:0003D928       loc_43E928
 0001:0003D95A       loc_43E95A
 0001:0003D981       loc_43E981
 0001:0003D986       loc_43E986
 0001:0003D9A9       loc_43E9A9
 0001:0003D9D9       loc_43E9D9
 0001:0003DA03       loc_43EA03
 0001:0003DA05       loc_43EA05
 0001:0003DA1A       loc_43EA1A
 0001:0003DA26       loc_43EA26
 0001:0003DA35       loc_43EA35
 0001:0003DA3A       loc_43EA3A
 0001:0003DA6C       loc_43EA6C
 0001:0003DA93       loc_43EA93
 0001:0003DA98       loc_43EA98
 0001:0003DABB       loc_43EABB
 0001:0003DAEB       loc_43EAEB
 0001:0003DAEF       loc_43EAEF
 0001:0003DAF7       loc_43EAF7
 0001:0003DB01       loc_43EB01
 0001:0003DB3B       loc_43EB3B
 0001:0003DB90       process_restart(jpeg_decompress_struct *)
 0001:0003DBD1       loc_43EBD1
 0001:0003DBE0       loc_43EBE0
 0001:0003DBF4       loc_43EBF4
 0001:0003DC10       jinit_phuff_decoder(jpeg_decompress_struct *)
 0001:0003DC60       loc_43EC60
 0001:0003DC7B       loc_43EC7B
 0001:0003DC80       start_pass_phuff_decoder(jpeg_decompress_struct *)
 0001:0003DCB8       loc_43ECB8
 0001:0003DCC7       loc_43ECC7
 0001:0003DCCC       loc_43ECCC
 0001:0003DCD5       loc_43ECD5
 0001:0003DCDA       loc_43ECDA
 0001:0003DCF4       loc_43ECF4
 0001:0003DD01       loc_43ED01
 0001:0003DD09       loc_43ED09
 0001:0003DD21       loc_43ED21
 0001:0003DD46       loc_43ED46
 0001:0003DD59       loc_43ED59
 0001:0003DD7A       loc_43ED7A
 0001:0003DD90       loc_43ED90
 0001:0003DDB4       loc_43EDB4
 0001:0003DDC9       loc_43EDC9
 0001:0003DDD2       loc_43EDD2
 0001:0003DDDF       loc_43EDDF
 0001:0003DDE6       loc_43EDE6
 0001:0003DE05       loc_43EE05
 0001:0003DE31       loc_43EE31
 0001:0003DE39       loc_43EE39
 0001:0003DE55       loc_43EE55
 0001:0003DE6C       loc_43EE6C
 0001:0003DE74       loc_43EE74
 0001:0003DE97       loc_43EE97
 0001:0003DEC8       loc_43EEC8
 0001:0003DEF0       decode_mcu_DC_first(jpeg_decompress_struct *,short (* *)[64])
 0001:0003DF2D       loc_43EF2D
 0001:0003DF37       loc_43EF37
 0001:0003DF3B       loc_43EF3B
 0001:0003DF9C       loc_43EF9C
 0001:0003DFF0       loc_43EFF0
 0001:0003E017       loc_43F017
 0001:0003E01C       loc_43F01C
 0001:0003E03F       loc_43F03F
 0001:0003E067       loc_43F067
 0001:0003E091       loc_43F091
 0001:0003E093       loc_43F093
 0001:0003E0E4       loc_43F0E4
 0001:0003E130       process_restart(jpeg_decompress_struct *)
 0001:0003E171       loc_43F171
 0001:0003E180       loc_43F180
 0001:0003E194       loc_43F194
 0001:0003E1C0       decode_mcu_AC_first(jpeg_decompress_struct *,short (* *)[64])
 0001:0003E20F       loc_43F20F
 0001:0003E220       loc_43F220
 0001:0003E270       loc_43F270
 0001:0003E2A2       loc_43F2A2
 0001:0003E2C9       loc_43F2C9
 0001:0003E2CE       loc_43F2CE
 0001:0003E2F1       loc_43F2F1
 0001:0003E329       loc_43F329
 0001:0003E353       loc_43F353
 0001:0003E355       loc_43F355
 0001:0003E370       loc_43F370
 0001:0003E379       loc_43F379
 0001:0003E390       loc_43F390
 0001:0003E3B7       loc_43F3B7
 0001:0003E3C1       loc_43F3C1
 0001:0003E3C9       loc_43F3C9
 0001:0003E3D6       loc_43F3D6
 0001:0003E3DB       loc_43F3DB
 0001:0003E3E7       loc_43F3E7
 0001:0003E40A       loc_43F40A
 0001:0003E430       decode_mcu_DC_refine(jpeg_decompress_struct *,short (* *)[64])
 0001:0003E470       loc_43F470
 0001:0003E47A       loc_43F47A
 0001:0003E4B9       loc_43F4B9
 0001:0003E4E1       loc_43F4E1
 0001:0003E4F4       loc_43F4F4
 0001:0003E50A       loc_43F50A
 0001:0003E550       decode_mcu_AC_refine(jpeg_decompress_struct *,short (* *)[64])
 0001:0003E5B8       loc_43F5B8
 0001:0003E62A       loc_43F62A
 0001:0003E65C       loc_43F65C
 0001:0003E686       loc_43F686
 0001:0003E68B       loc_43F68B
 0001:0003E6B2       loc_43F6B2
 0001:0003E6D7       loc_43F6D7
 0001:0003E6FD       loc_43F6FD
 0001:0003E722       loc_43F722
 0001:0003E73B       loc_43F73B
 0001:0003E755       loc_43F755
 0001:0003E759       loc_43F759
 0001:0003E793       loc_43F793
 0001:0003E7B9       loc_43F7B9
 0001:0003E7C4       loc_43F7C4
 0001:0003E7CB       loc_43F7CB
 0001:0003E7EB       loc_43F7EB
 0001:0003E814       loc_43F814
 0001:0003E835       loc_43F835
 0001:0003E868       loc_43F868
 0001:0003E881       loc_43F881
 0001:0003E88C       loc_43F88C
 0001:0003E8B3       loc_43F8B3
 0001:0003E8ED       loc_43F8ED
 0001:0003E90F       loc_43F90F
 0001:0003E914       loc_43F914
 0001:0003E937       loc_43F937
 0001:0003E93B       loc_43F93B
 0001:0003E97C       loc_43F97C
 0001:0003E988       loc_43F988
 0001:0003E99B       loc_43F99B
 0001:0003E9B0       jinit_inverse_dct(jpeg_decompress_struct *)
 0001:0003E9EA       loc_43F9EA
 0001:0003EA26       loc_43FA26
 0001:0003EA30       start_pass(jpeg_decompress_struct *)
 0001:0003EA6E       loc_43FA6E
 0001:0003EA82       loc_43FA82
 0001:0003EA92       loc_43FA92
 0001:0003EAA2       loc_43FAA2
 0001:0003EAB2       loc_43FAB2
 0001:0003EAC7       loc_43FAC7
 0001:0003EADA       loc_43FADA
 0001:0003EAED       loc_43FAED
 0001:0003EAFD       loc_43FAFD
 0001:0003EB02       loc_43FB02
 0001:0003EB05       loc_43FB05
 0001:0003EB4C       loc_43FB4C
 0001:0003EB55       loc_43FB55
 0001:0003EB64       loc_43FB64
 0001:0003EBA2       loc_43FBA2
 0001:0003EBAB       loc_43FBAB
 0001:0003EBD6       loc_43FBD6
 0001:0003EBDF       loc_43FBDF
 0001:0003EBF0       loc_43FBF0
 0001:0003EC18       loc_43FC18
 0001:0003EC20       off_43FC20
 0001:0003EC40       jinit_d_post_controller(jpeg_decompress_struct *,int)
 0001:0003ECB4       loc_43FCB4
 0001:0003ECCC       loc_43FCCC
 0001:0003ECD0       start_pass_dpost(jpeg_decompress_struct *,J_BUF_MODE)
 0001:0003ED04       loc_43FD04
 0001:0003ED13       loc_43FD13
 0001:0003ED2A       loc_43FD2A
 0001:0003ED39       loc_43FD39
 0001:0003ED50       loc_43FD50
 0001:0003ED8E       loc_43FD8E
 0001:0003ED9A       loc_43FD9A
 0001:0003EDB0       post_process_1pass(jpeg_decompress_struct *,uchar * * *,uint *,uint,uchar * *,uint *,uint)
 0001:0003EDD2       loc_43FDD2
 0001:0003EE30       post_process_prepass(jpeg_decompress_struct *,uchar * * *,uint *,uint,uchar * *,uint *,uint)
 0001:0003EE62       loc_43FE62
 0001:0003EEB7       loc_43FEB7
 0001:0003EECF       loc_43FECF
 0001:0003EEE0       post_process_2pass(jpeg_decompress_struct *,uchar * * *,uint *,uint,uchar * *,uint *,uint)
 0001:0003EF10       loc_43FF10
 0001:0003EF2B       loc_43FF2B
 0001:0003EF39       loc_43FF39
 0001:0003EF81       loc_43FF81
 0001:0003EF90       jinit_upsampler(jpeg_decompress_struct *)
 0001:0003EFDF       loc_43FFDF
 0001:0003EFF2       loc_43FFF2
 0001:0003EFF6       loc_43FFF6
 0001:0003F005       loc_440005
 0001:0003F011       loc_440011
 0001:0003F05B       loc_44005B
 0001:0003F072       loc_440072
 0001:0003F095       loc_440095
 0001:0003F0A0       loc_4400A0
 0001:0003F0D0       loc_4400D0
 0001:0003F0D8       loc_4400D8
 0001:0003F11E       loc_44011E
 0001:0003F126       loc_440126
 0001:0003F150       loc_440150
 0001:0003F16A       loc_44016A
 0001:0003F180       start_pass_upsample(jpeg_decompress_struct *)
 0001:0003F1A0       sep_upsample(jpeg_decompress_struct *,uchar * * *,uint *,uint,uchar * *,uint *,uint)
 0001:0003F1DC       loc_4401DC
 0001:0003F21B       loc_44021B
 0001:0003F222       loc_440222
 0001:0003F236       loc_440236
 0001:0003F249       loc_440249
 0001:0003F295       loc_440295
 0001:0003F2A0       fullsize_upsample(jpeg_decompress_struct *,jpeg_component_info *,uchar * *,uchar * * *)
 0001:0003F2B0       noop_upsample(jpeg_decompress_struct *,jpeg_component_info *,uchar * *,uchar * * *)
 0001:0003F2C0       int_upsample(jpeg_decompress_struct *,jpeg_component_info *,uchar * *,uchar * * *)
 0001:0003F31E       loc_44031E
 0001:0003F333       loc_440333
 0001:0003F36E       loc_44036E
 0001:0003F376       loc_440376
 0001:0003F39C       loc_44039C
 0001:0003F3CD       loc_4403CD
 0001:0003F3E0       h2v1_upsample(jpeg_decompress_struct *,jpeg_component_info *,uchar * *,uchar * * *)
 0001:0003F406       loc_440406
 0001:0003F414       loc_440414
 0001:0003F421       loc_440421
 0001:0003F439       loc_440439
 0001:0003F440       h2v2_upsample(jpeg_decompress_struct *,jpeg_component_info *,uchar * *,uchar * * *)
 0001:0003F466       loc_440466
 0001:0003F47B       loc_44047B
 0001:0003F488       loc_440488
 0001:0003F4C1       loc_4404C1
 0001:0003F4D0       h2v1_fancy_upsample(jpeg_decompress_struct *,jpeg_component_info *,uchar * *,uchar * * *)
 0001:0003F4FE       loc_4404FE
 0001:0003F52A       loc_44052A
 0001:0003F556       loc_440556
 0001:0003F58F       loc_44058F
 0001:0003F5A0       h2v2_fancy_upsample(jpeg_decompress_struct *,jpeg_component_info *,uchar * *,uchar * * *)
 0001:0003F5D3       loc_4405D3
 0001:0003F5E2       loc_4405E2
 0001:0003F5E6       loc_4405E6
 0001:0003F5F3       loc_4405F3
 0001:0003F5F7       loc_4405F7
 0001:0003F659       loc_440659
 0001:0003F69C       loc_44069C
 0001:0003F6A4       loc_4406A4
 0001:0003F6ED       loc_4406ED
 0001:0003F700       jinit_color_deconverter(jpeg_decompress_struct *)
 0001:0003F731       loc_440731
 0001:0003F739       loc_440739
 0001:0003F746       loc_440746
 0001:0003F753       loc_440753
 0001:0003F759       loc_440759
 0001:0003F75E       loc_44075E
 0001:0003F761       loc_440761
 0001:0003F790       loc_440790
 0001:0003F7B4       loc_4407B4
 0001:0003F7C5       loc_4407C5
 0001:0003F7D2       loc_4407D2
 0001:0003F7F3       loc_4407F3
 0001:0003F801       loc_440801
 0001:0003F80B       loc_44080B
 0001:0003F81F       loc_44081F
 0001:0003F829       loc_440829
 0001:0003F83E       loc_44083E
 0001:0003F857       loc_440857
 0001:0003F868       loc_440868
 0001:0003F874       off_440874
 0001:0003F890       build_ycc_rgb_table(jpeg_decompress_struct *)
 0001:0003F8FA       loc_4408FA
 0001:0003F950       ycc_rgb_convert(jpeg_decompress_struct *,uchar * * *,uint,uchar * *,int)
 0001:0003F9AD       loc_4409AD
 0001:0003F9FB       loc_4409FB
 0001:0003FA03       loc_440A03
 0001:0003FA69       loc_440A69
 0001:0003FA7C       loc_440A7C
 0001:0003FA80       null_convert(jpeg_decompress_struct *,uchar * * *,uint,uchar * *,int)
 0001:0003FAAA       loc_440AAA
 0001:0003FAB4       loc_440AB4
 0001:0003FACA       loc_440ACA
 0001:0003FAD8       loc_440AD8
 0001:0003FAE0       loc_440AE0
 0001:0003FB04       loc_440B04
 0001:0003FB10       grayscale_convert(jpeg_decompress_struct *,uchar * * *,uint,uchar * *,int)
 0001:0003FB40       ycck_cmyk_convert(jpeg_decompress_struct *,uchar * * *,uint,uchar * *,int)
 0001:0003FB9D       loc_440B9D
 0001:0003FC00       loc_440C00
 0001:0003FC08       loc_440C08
 0001:0003FC8D       loc_440C8D
 0001:0003FCA0       loc_440CA0
 0001:0003FCB0       jinit_merged_upsampler(jpeg_decompress_struct *)
 0001:0003FD18       loc_440D18
 0001:0003FD40       build_ycc_rgb_table(jpeg_decompress_struct *)
 0001:0003FDAA       loc_440DAA
 0001:0003FE00       start_pass_merged_upsample(jpeg_decompress_struct *)
 0001:0003FE20       merged_2v_upsample(jpeg_decompress_struct *,uchar * * *,uint *,uint,uchar * *,uint *,uint)
 0001:0003FE6E       loc_440E6E
 0001:0003FE7C       loc_440E7C
 0001:0003FE8E       loc_440E8E
 0001:0003FEA8       loc_440EA8
 0001:0003FEB6       loc_440EB6
 0001:0003FECF       loc_440ECF
 0001:0003FEE7       loc_440EE7
 0001:0003FEF0       merged_1v_upsample(jpeg_decompress_struct *,uchar * * *,uint *,uint,uchar * *,uint *,uint)
 0001:0003FF30       h2v1_merged_upsample(jpeg_decompress_struct *,uchar * * *,uint,uchar * *)
 0001:0003FF91       loc_440F91
 0001:00040030       loc_441030
 0001:0004007D       loc_44107D
 0001:00040090       h2v2_merged_upsample(jpeg_decompress_struct *,uchar * * *,uint,uchar * *)
 0001:00040104       loc_441104
 0001:0004010C       loc_44110C
 0001:0004021B       loc_44121B
 0001:00040298       loc_441298
 0001:000402A0       jinit_2pass_quantizer(jpeg_decompress_struct *)
 0001:000402E4       loc_4412E4
 0001:000402FA       loc_4412FA
 0001:0004033B       loc_44133B
 0001:0004034B       loc_44134B
 0001:00040362       loc_441362
 0001:00040369       loc_441369
 0001:00040379       loc_441379
 0001:0004039E       loc_44139E
 0001:000403B0       init_error_limit(jpeg_decompress_struct *)
 0001:000403E5       loc_4413E5
 0001:000403FA       loc_4413FA
 0001:00040436       loc_441436
 0001:00040443       loc_441443
 0001:00040450       start_pass_2_quant(jpeg_decompress_struct *,int)
 0001:00040472       loc_441472
 0001:00040494       loc_441494
 0001:000404A3       loc_4414A3
 0001:000404AA       loc_4414AA
 0001:000404C4       loc_4414C4
 0001:000404D4       loc_4414D4
 0001:000404FC       loc_4414FC
 0001:00040519       loc_441519
 0001:00040520       loc_441520
 0001:00040530       loc_441530
 0001:0004054D       loc_44154D
 0001:00040560       prescan_quantize(jpeg_decompress_struct *,uchar * *,uchar * *,int)
 0001:00040584       loc_441584
 0001:0004058C       loc_44158C
 0001:000405BE       loc_4415BE
 0001:000405C4       loc_4415C4
 0001:000405D4       loc_4415D4
 0001:000405E0       pass2_no_dither(jpeg_decompress_struct *,uchar * *,uchar * *,int)
 0001:00040621       loc_441621
 0001:0004062E       loc_44162E
 0001:0004066F       loc_44166F
 0001:0004068E       loc_44168E
 0001:000406A3       loc_4416A3
 0001:000406B0       fill_inverse_cmap(jpeg_decompress_struct *,int,int,int)
 0001:00040778       loc_441778
 0001:00040792       loc_441792
 0001:0004079C       loc_44179C
 0001:000407D0       find_nearby_colors(jpeg_decompress_struct *,int,int,int,uchar * const)
 0001:00040860       loc_441860
 0001:0004086B       loc_44186B
 0001:00040888       loc_441888
 0001:0004088A       loc_44188A
 0001:000408B2       loc_4418B2
 0001:000408C4       loc_4418C4
 0001:000408CE       loc_4418CE
 0001:000408E0       loc_4418E0
 0001:000408E2       loc_4418E2
 0001:0004091D       loc_44191D
 0001:00040927       loc_441927
 0001:0004094C       loc_44194C
 0001:00040956       loc_441956
 0001:00040958       loc_441958
 0001:00040971       loc_441971
 0001:00040991       loc_441991
 0001:000409A4       loc_4419A4
 0001:000409B2       loc_4419B2
 0001:000409BA       loc_4419BA
 0001:000409D0       find_best_colors(jpeg_decompress_struct *,int,int,int,int,uchar * const,uchar * const)
 0001:000409FF       loc_4419FF
 0001:00040A98       loc_441A98
 0001:00040A9C       loc_441A9C
 0001:00040AAE       loc_441AAE
 0001:00040AB7       loc_441AB7
 0001:00040ABF       loc_441ABF
 0001:00040B26       loc_441B26
 0001:00040B30       pass2_fs_dither(jpeg_decompress_struct *,uchar * *,uchar * *,int)
 0001:00040BA6       loc_441BA6
 0001:00040BAA       loc_441BAA
 0001:00040BF3       loc_441BF3
 0001:00040C0A       loc_441C0A
 0001:00040C38       loc_441C38
 0001:00040C3C       loc_441C3C
 0001:00040CFD       loc_441CFD
 0001:00040DCE       loc_441DCE
 0001:00040DD2       loc_441DD2
 0001:00040E0A       loc_441E0A
 0001:00040E10       finish_pass1(jpeg_decompress_struct *)
 0001:00040E40       select_colors(jpeg_decompress_struct *,int)
 0001:00040E92       loc_441E92
 0001:00040EA5       loc_441EA5
 0001:00040EC0       update_box(jpeg_decompress_struct *,box *)
 0001:00040F22       loc_441F22
 0001:00040F36       loc_441F36
 0001:00040F3E       loc_441F3E
 0001:00040F52       loc_441F52
 0001:00040F66       loc_441F66
 0001:00040F84       loc_441F84
 0001:00040FA0       loc_441FA0
 0001:00040FB3       loc_441FB3
 0001:00040FC3       loc_441FC3
 0001:00040FCB       loc_441FCB
 0001:00040FDF       loc_441FDF
 0001:00040FEF       loc_441FEF
 0001:00041009       loc_442009
 0001:00041020       loc_442020
 0001:00041035       loc_442035
 0001:0004104A       loc_44204A
 0001:00041058       loc_442058
 0001:00041068       loc_442068
 0001:00041078       loc_442078
 0001:0004108E       loc_44208E
 0001:000410A1       loc_4420A1
 0001:000410A9       loc_4420A9
 0001:000410BA       loc_4420BA
 0001:000410CF       loc_4420CF
 0001:000410DD       loc_4420DD
 0001:000410ED       loc_4420ED
 0001:000410FD       loc_4420FD
 0001:00041113       loc_442113
 0001:00041126       loc_442126
 0001:00041136       loc_442136
 0001:0004115A       loc_44215A
 0001:00041166       loc_442166
 0001:00041174       loc_442174
 0001:00041188       loc_442188
 0001:00041193       loc_442193
 0001:000411A6       loc_4421A6
 0001:000411B0       loc_4421B0
 0001:000411D4       loc_4421D4
 0001:000411E2       loc_4421E2
 0001:000411F0       loc_4421F0
 0001:00041204       loc_442204
 0001:0004120F       loc_44220F
 0001:0004121E       loc_44221E
 0001:00041286       loc_442286
 0001:000412A7       loc_4422A7
 0001:000412B4       loc_4422B4
 0001:000412BB       loc_4422BB
 0001:000412C1       loc_4422C1
 0001:000412CF       loc_4422CF
 0001:000412F4       loc_4422F4
 0001:00041310       median_cut(jpeg_decompress_struct *,box *,int,int)
 0001:0004133B       loc_44233B
 0001:0004133F       loc_44233F
 0001:00041350       loc_442350
 0001:00041355       loc_442355
 0001:000413B6       loc_4423B6
 0001:000413BF       loc_4423BF
 0001:000413E0       loc_4423E0
 0001:000413F6       loc_4423F6
 0001:00041408       loc_442408
 0001:00041440       loc_442440
 0001:00041450       find_biggest_color_pop(box *,int)
 0001:00041468       loc_442468
 0001:0004147A       loc_44247A
 0001:00041482       loc_442482
 0001:00041490       find_biggest_volume(box *,int)
 0001:000414A7       loc_4424A7
 0001:000414B2       loc_4424B2
 0001:000414B9       loc_4424B9
 0001:000414C0       compute_color(jpeg_decompress_struct *,box *,int)
 0001:00041530       loc_442530
 0001:0004155E       loc_44255E
 0001:00041572       loc_442572
 0001:000415BB       loc_4425BB
 0001:000415C9       loc_4425C9
 0001:000415E2       loc_4425E2
 0001:00041607       loc_442607
 0001:00041660       new_color_map_2_quant(jpeg_decompress_struct *)
 0001:00041680       jinit_1pass_quantizer(jpeg_decompress_struct *)
 0001:000416C4       loc_4426C4
 0001:000416D5       loc_4426D5
 0001:000416F5       loc_4426F5
 0001:00041700       create_colormap(jpeg_decompress_struct *)
 0001:0004173A       loc_44273A
 0001:00041742       loc_442742
 0001:00041779       loc_442779
 0001:0004179A       loc_44279A
 0001:000417BF       loc_4427BF
 0001:000417C5       loc_4427C5
 0001:000417D5       loc_4427D5
 0001:000417E3       loc_4427E3
 0001:000417FA       loc_4427FA
 0001:00041836       loc_442836
 0001:00041850       select_ncolors(jpeg_decompress_struct *,int * const)
 0001:0004186E       loc_44286E
 0001:00041879       loc_442879
 0001:0004187F       loc_44287F
 0001:00041891       loc_442891
 0001:000418A6       loc_4428A6
 0001:000418AE       loc_4428AE
 0001:000418B2       loc_4428B2
 0001:000418C4       loc_4428C4
 0001:000418D6       loc_4428D6
 0001:000418D8       loc_4428D8
 0001:00041919       loc_442919
 0001:00041921       loc_442921
 0001:00041930       output_value(jpeg_decompress_struct *,int,int,int)
 0001:00041950       create_colorindex(jpeg_decompress_struct *)
 0001:0004197D       loc_44297D
 0001:00041986       loc_442986
 0001:000419BD       loc_4429BD
 0001:000419C9       loc_4429C9
 0001:000419EF       loc_4429EF
 0001:00041A0C       loc_442A0C
 0001:00041A10       loc_442A10
 0001:00041A27       loc_442A27
 0001:00041A4F       loc_442A4F
 0001:00041A69       loc_442A69
 0001:00041A85       loc_442A85
 0001:00041A90       largest_input_value(jpeg_decompress_struct *,int,int,int)
 0001:00041AB0       alloc_fs_workspace(jpeg_decompress_struct *)
 0001:00041AD1       loc_442AD1
 0001:00041AEC       loc_442AEC
 0001:00041AF0       start_pass_1_quant(jpeg_decompress_struct *,int)
 0001:00041B30       loc_442B30
 0001:00041B4D       loc_442B4D
 0001:00041B5D       loc_442B5D
 0001:00041B79       loc_442B79
 0001:00041B88       loc_442B88
 0001:00041B8F       loc_442B8F
 0001:00041BA2       loc_442BA2
 0001:00041BB5       loc_442BB5
 0001:00041BC7       loc_442BC7
 0001:00041BCE       loc_442BCE
 0001:00041BE0       create_odither_tables(jpeg_decompress_struct *)
 0001:00041BFA       loc_442BFA
 0001:00041C06       loc_442C06
 0001:00041C14       loc_442C14
 0001:00041C1C       loc_442C1C
 0001:00041C26       loc_442C26
 0001:00041C34       loc_442C34
 0001:00041C40       make_odither_array(jpeg_decompress_struct *,int)
 0001:00041C6E       loc_442C6E
 0001:00041C70       loc_442C70
 0001:00041CB0       color_quantize(jpeg_decompress_struct *,uchar * *,uchar * *,int)
 0001:00041CFA       loc_442CFA
 0001:00041D0B       loc_442D0B
 0001:00041D15       loc_442D15
 0001:00041D2F       loc_442D2F
 0001:00041D51       loc_442D51
 0001:00041D65       loc_442D65
 0001:00041D70       color_quantize3(jpeg_decompress_struct *,uchar * *,uchar * *,int)
 0001:00041DBD       loc_442DBD
 0001:00041DC6       loc_442DC6
 0001:00041E08       loc_442E08
 0001:00041E1D       loc_442E1D
 0001:00041E30       quantize_ord_dither(jpeg_decompress_struct *,uchar * *,uchar * *,int)
 0001:00041E75       loc_442E75
 0001:00041EAE       loc_442EAE
 0001:00041EB6       loc_442EB6
 0001:00041EDF       loc_442EDF
 0001:00041F0F       loc_442F0F
 0001:00041F2F       loc_442F2F
 0001:00041F4F       loc_442F4F
 0001:00041F60       quantize3_ord_dither(jpeg_decompress_struct *,uchar * *,uchar * *,int)
 0001:00041FB7       loc_442FB7
 0001:00041FBB       loc_442FBB
 0001:00041FF5       loc_442FF5
 0001:00041FF9       loc_442FF9
 0001:0004205D       loc_44305D
 0001:00042081       loc_443081
 0001:00042090       quantize_fs_dither(jpeg_decompress_struct *,uchar * *,uchar * *,int)
 0001:000420DF       loc_4430DF
 0001:00042104       loc_443104
 0001:00042147       loc_443147
 0001:00042156       loc_443156
 0001:00042188       loc_443188
 0001:00042202       loc_443202
 0001:0004222B       loc_44322B
 0001:00042250       loc_443250
 0001:00042260       nullsub_6
 0001:00042270       unknown_libname_238
 0001:00042280       jpeg_idct_islow(jpeg_decompress_struct *,jpeg_component_info *,short *,uchar * *,uint)
 0001:000422C2       loc_4432C2
 0001:00042355       loc_443355
 0001:000425BA       loc_4435BA
 0001:000425E4       loc_4435E4
 0001:0004265F       loc_44365F
 0001:000428B3       loc_4438B3
 0001:000428E0       jpeg_idct_ifast(jpeg_decompress_struct *,jpeg_component_info *,short *,uchar * *,uint)
 0001:00042922       loc_443922
 0001:000429B6       loc_4439B6
 0001:00042B2C       loc_443B2C
 0001:00042B56       loc_443B56
 0001:00042BD2       loc_443BD2
 0001:00042D5B       loc_443D5B
 0001:00042D90       jpeg_idct_float(jpeg_decompress_struct *,jpeg_component_info *,short *,uchar * *,uint)
 0001:00042DCA       loc_443DCA
 0001:00042E2C       loc_443E2C
 0001:00042FE7       loc_443FE7
 0001:00043012       loc_444012
 0001:000431F0       jpeg_idct_4x4(jpeg_decompress_struct *,jpeg_component_info *,short *,uchar * *,uint)
 0001:0004323E       loc_44423E
 0001:000432A6       loc_4442A6
 0001:000433F6       loc_4443F6
 0001:00043433       loc_444433
 0001:00043491       loc_444491
 0001:000435BF       loc_4445BF
 0001:000435F0       jpeg_idct_2x2(jpeg_decompress_struct *,jpeg_component_info *,short *,uchar * *,uint)
 0001:00043627       loc_444627
 0001:00043670       loc_444670
 0001:00043704       loc_444704
 0001:0004370C       loc_44470C
 0001:00043733       loc_444733
 0001:0004376C       loc_44476C
 0001:000437E8       loc_4447E8
 0001:00043810       jpeg_idct_1x1(jpeg_decompress_struct *,jpeg_component_info *,short *,uchar * *,uint)
 0001:00043850       ClosePrinter
 0001:00043856       DocumentPropertiesA
 0001:0004385C       OpenPrinterA
 0001:00043862       sub_444862
 0001:000438B3       loc_4448B3
 0001:000438C7       loc_4448C7
 0001:000438CB       loc_4448CB
 0001:000438D7       loc_4448D7
 0001:00043954       loc_444954
 0001:00043985       loc_444985
 0001:00043996       loc_444996
 0001:00043998       loc_444998
 0001:0004399F       sub_44499F
 0001:000439E6       loc_4449E6
 0001:000439EC       loc_4449EC
 0001:00043A9A       loc_444A9A
 0001:00043A9F       loc_444A9F
 0001:00043ADD       loc_444ADD
 0001:00043AEC       loc_444AEC
 0001:00043B0E       loc_444B0E
 0001:00043B13       loc_444B13
 0001:00043B1D       loc_444B1D
 0001:00043B2E       loc_444B2E
 0001:00043B3B       loc_444B3B
 0001:00043B4A       loc_444B4A
 0001:00043B6C       loc_444B6C
 0001:00043B74       loc_444B74
 0001:00043B76       locret_444B76
 0001:00043B7A       CArchive::operator<<(uchar)
 0001:00043B8B       loc_444B8B
 0001:00043B9D       CArchive::operator<<(ushort)
 0001:00043BAF       loc_444BAF
 0001:00043BC4       sub_444BC4
 0001:00043BE7       locret_444BE7
 0001:00043BEA       COleDateTime::GetTickCount(void)
 0001:00043C0C       sub_444C0C
 0001:00043C6F       loc_444C6F
 0001:00043C76       sub_444C76
 0001:00043C93       loc_444C93
 0001:00043CA8       sub_444CA8
 0001:00043CCD       loc_444CCD
 0001:00043CD2       sub_444CD2
 0001:00043CF7       loc_444CF7
 0001:00043CFC       sub_444CFC
 0001:00043D21       loc_444D21
 0001:00043D26       sub_444D26
 0001:00043D4B       loc_444D4B
 0001:00043D50       sub_444D50
 0001:00043D75       loc_444D75
 0001:00043D7A       sub_444D7A
 0001:00043D9F       loc_444D9F
 0001:00043DA4       sub_444DA4
 0001:00043DB3       sub_444DB3
 0001:00043DF7       loc_444DF7
 0001:00043DFE       loc_444DFE
 0001:00043E04       sub_444E04
 0001:00043E34       loc_444E34
 0001:00043E36       locret_444E36
 0001:00043E3A       sub_444E3A
 0001:00043E6A       loc_444E6A
 0001:00043E6C       locret_444E6C
 0001:00043E70       sub_444E70
 0001:00043E9B       sub_444E9B
 0001:00043EC5       sub_444EC5
 0001:00043EDB       loc_444EDB
 0001:00043EE1       sub_444EE1
 0001:00043EE8       sub_444EE8
 0001:00043F12       sub_444F12
 0001:00043F28       loc_444F28
 0001:00043F2E       sub_444F2E
 0001:00043F35       sub_444F35
 0001:00043F5F       sub_444F5F
 0001:00043F75       loc_444F75
 0001:00043F7B       sub_444F7B
 0001:00043F82       sub_444F82
 0001:00043FAC       sub_444FAC
 0001:00043FC2       loc_444FC2
 0001:00043FC8       sub_444FC8
 0001:00043FCF       sub_444FCF
 0001:00043FE3       sub_444FE3
 0001:00043FF3       sub_444FF3
 0001:0004400F       CDC::ExtTextOutA(int,int,uint,tagRECT const *,char const *,uint,int *)
 0001:00044034       CDC::TabbedTextOutA(int,int,char const *,int,int,int *,int)
 0001:0004406C       sub_44506C
 0001:00044088       CDC::GrayStringA(CBrush *,int (*)(HDC__ *,long,int),long,int,int,int,int,int)
 0001:00044095       loc_445095
 0001:000440B8       sub_4450B8
 0001:000440D4       sub_4450D4
 0001:000440E5       loc_4450E5
 0001:000440F0       [thunk]: `vcall'{200,{flat}}
 0001:000440F8       sub_4450F8
 0001:00044115       loc_445115
 0001:0004419C       loc_44519C
 0001:000441CC       loc_4451CC
 0001:000441D0       sub_4451D0
 0001:000441EB       loc_4451EB
 0001:00044218       loc_445218
 0001:0004421C       loc_44521C
 0001:00044221       loc_445221
 0001:00044226       xMonitorFromWindow(x,x)
 0001:00044243       loc_445243
 0001:00044250       loc_445250
 0001:0004426C       loc_44526C
 0001:00044279       loc_445279
 0001:0004428B       loc_44528B
 0001:0004428D       locret_44528D
 0001:00044291       sub_445291
 0001:000442B0       loc_4452B0
 0001:00044318       loc_445318
 0001:0004431C       loc_44531C
 0001:0004431E       loc_44531E
 0001:00044324       CWnd::GetOwner(void)
 0001:00044334       loc_445334
 0001:0004433B       loc_44533B
 0001:00044348       nullsub_28
 0001:00044349       CBitmap::LoadBitmapA(uint)
 0001:0004436D       CWnd::GetFont(void)
 0001:00044383       sub_445383
 0001:00044399       loc_445399
 0001:0004439F       sub_44539F
 0001:000443CB       sub_4453CB
 0001:000443F0       loc_4453F0
 0001:00044409       sub_445409
 0001:0004441F       loc_44541F
 0001:00044425       sub_445425
 0001:0004444E       sub_44544E
 0001:00044476       loc_445476
 0001:0004448A       sub_44548A
 0001:000444B2       sub_4454B2
 0001:000444FE       loc_4454FE
 0001:0004450B       loc_44550B
 0001:0004452B       sub_44552B
 0001:00044541       sub_445541
 0001:00044568       loc_445568
 0001:0004456D       sub_44556D
 0001:00044583       loc_445583
 0001:00044589       sub_445589
 0001:000445D1       start
 0001:0004463C       loc_44563C
 0001:0004464D       loc_44564D
 0001:0004469C       loc_44569C
 0001:0004469F       loc_44569F
 0001:000446BA       loc_4456BA
 0001:000446CE       loc_4456CE
 0001:000446D9       __amsg_exit
 0001:000446E7       loc_4456E7
 0001:000446FE       _fast_error_exit
 0001:0004470C       loc_44570C
 0001:00044722       __fpmath
 0001:00044739       nullsub_27
 0001:0004473A       __cfltcvt_init
 0001:00044780       __CIpow
 0001:00044799       _pow
 0001:000447A2       sub_4457A2
 0001:000447B6       loc_4457B6
 0001:000447E2       loc_4457E2
 0001:000447EF       loc_4457EF
 0001:000447FD       loc_4457FD
 0001:0004481A       loc_44581A
 0001:00044839       loc_445839
 0001:0004484C       loc_44584C
 0001:00044855       loc_445855
 0001:0004485C       loc_44585C
 0001:00044865       loc_445865
 0001:00044869       loc_445869
 0001:0004487F       loc_44587F
 0001:0004489D       loc_44589D
 0001:000448D8       loc_4458D8
 0001:0004491A       loc_44591A
 0001:00044924       loc_445924
 0001:00044935       loc_445935
 0001:00044949       loc_445949
 0001:00044950       loc_445950
 0001:00044975       sub_445975
 0001:00044999       locret_445999
 0001:0004499A       loc_44599A
 0001:0004499D       _modf
 0001:00044A1A       loc_445A1A
 0001:00044A42       loc_445A42
 0001:00044A72       loc_445A72
 0001:00044A8D       loc_445A8D
 0001:00044AAA       loc_445AAA
 0001:00044AB6       loc_445AB6
 0001:00044AB9       loc_445AB9
 0001:00044AC0       _fmod
 0001:00044ACA       __CIfmod
 0001:00044AD4       fFMOD
 0001:00044AD6       remloop
 0001:00044AE3       badP5_fprem
 0001:00044AE8       fprem_done
 0001:00044B00       _strncmp
 0001:00044B1A       okay
 0001:00044B2D       firstbig
 0001:00044B2F       lastbig
 0001:00044B31       toend
 0001:00044B38       _floor
 0001:00044B93       loc_445B93
 0001:00044BA1       loc_445BA1
 0001:00044BBE       loc_445BBE
 0001:00044BD3       loc_445BD3
 0001:00044BE1       loc_445BE1
 0001:00044BFB       loc_445BFB
 0001:00044C03       loc_445C03
 0001:00044C08       __ftol
 0001:00044C2F       __copysign
 0001:00044C50       __fpclass
 0001:00044C7E       loc_445C7E
 0001:00044C81       loc_445C81
 0001:00044C85       loc_445C85
 0001:00044C89       loc_445C89
 0001:00044C90       loc_445C90
 0001:00044CAB       loc_445CAB
 0001:00044CBA       loc_445CBA
 0001:00044CD5       loc_445CD5
 0001:00044CE2       sub_445CE2
 0001:00044D03       _getenv
 0001:00044D34       loc_445D34
 0001:00044D45       loc_445D45
 0001:00044D6D       loc_445D6D
 0001:00044D72       loc_445D72
 0001:00044D7A       loc_445D7A
 0001:00044D7C       loc_445D7C
 0001:00044D80       _JumpToContinuation(void *,EHRegistrationNode *)
 0001:00044DB4       sub_445DB4
 0001:00044DBB       sub_445DBB
 0001:00044DC2       _UnwindNestedFrames(EHRegistrationNode *,EHExceptionRecord *)
 0001:00044DEA       $ReturnPoint$16567
 0001:00044E11       ___CxxFrameHandler
 0001:00044E47       _CallCatchBlock2(EHRegistrationNode *,_s_FuncInfo const *,void *,int,ulong)
 0001:00044E9B       CatchGuardHandler(EHExceptionRecord *,CatchGuardRN *,void *,void *)
 0001:00044EC0       _CallSETranslator(EHExceptionRecord *,EHRegistrationNode *,void *,void *,_s_FuncInfo const *,int,EHRegistrationNode *)
 0001:00044F48       $ExceptionContinuation$16750
 0001:00044F65       loc_445F65
 0001:00044F6E       loc_445F6E
 0001:00044F76       TranslatorGuardHandler(EHExceptionRecord *,TranslatorGuardRN *,void *,void *)
 0001:00044F99       loc_445F99
 0001:00044FD7       loc_445FD7
 0001:00044FE6       loc_445FE6
 0001:00044FEB       _GetRangeOfTrysToCheck(_s_FuncInfo const *,int,int,uint *,uint *)
 0001:00045009       loc_446009
 0001:00045013       loc_446013
 0001:00045028       loc_446028
 0001:0004502D       loc_44602D
 0001:00045039       loc_446039
 0001:00045042       loc_446042
 0001:00045056       loc_446056
 0001:0004505B       loc_44605B
 0001:00045068       __global_unwind2
 0001:00045080       _gu_return
 0001:00045088       __unwind_handler
 0001:000450A9       _uh_return
 0001:000450AA       __local_unwind2
 0001:000450C7       _lu_top
 0001:00045102       __NLG_Return2
 0001:00045104       _lu_done
 0001:00045112       __abnormal_termination
 0001:00045134       _at_done
 0001:00045135       __NLG_Notify1
 0001:0004513E       __NLG_Notify
 0001:00045148       __NLG_Go
 0001:00045151       __NLG_Dispatch
 0001:00045156       _atof
 0001:00045160       loc_446160
 0001:00045178       loc_446178
 0001:00045187       loc_446187
 0001:0004518E       loc_44618E
 0001:000451AD       _atol
 0001:000451B5       loc_4461B5
 0001:000451CD       loc_4461CD
 0001:000451DC       loc_4461DC
 0001:000451E3       loc_4461E3
 0001:000451F3       loc_4461F3
 0001:000451F7       loc_4461F7
 0001:000451F9       loc_4461F9
 0001:0004520E       loc_44620E
 0001:00045219       loc_446219
 0001:0004522A       loc_44622A
 0001:00045233       loc_446233
 0001:00045238       _atoi
 0001:00045243       __atoi64
 0001:0004524C       loc_44624C
 0001:00045264       loc_446264
 0001:00045273       loc_446273
 0001:0004527A       loc_44627A
 0001:0004528C       loc_44628C
 0001:00045290       loc_446290
 0001:00045294       loc_446294
 0001:000452A9       loc_4462A9
 0001:000452B4       loc_4462B4
 0001:000452E1       loc_4462E1
 0001:000452F5       loc_4462F5
 0001:000452F7       loc_4462F7
 0001:000452FD       _isspace
 0001:00045314       loc_446314
 0001:00045330       __allmul
 0001:00045349       hard
 0001:00045364       __mbscmp
 0001:00045385       loc_446385
 0001:00045393       loc_446393
 0001:000453B3       loc_4463B3
 0001:000453BD       loc_4463BD
 0001:000453D8       loc_4463D8
 0001:000453E1       loc_4463E1
 0001:000453F0       loc_4463F0
 0001:00045404       loc_446404
 0001:0004540E       loc_44640E
 0001:00045413       __mbsicmp
 0001:00045437       loc_446437
 0001:00045456       loc_446456
 0001:00045476       loc_446476
 0001:000454A4       loc_4464A4
 0001:000454BC       loc_4464BC
 0001:000454C4       loc_4464C4
 0001:000454DF       loc_4464DF
 0001:000454E1       loc_4464E1
 0001:00045501       loc_446501
 0001:0004552F       loc_44652F
 0001:00045543       loc_446543
 0001:0004554B       loc_44654B
 0001:00045562       loc_446562
 0001:00045577       loc_446577
 0001:00045586       loc_446586
 0001:00045599       loc_446599
 0001:000455A3       loc_4465A3
 0001:000455B0       __alldiv
 0001:000455D1       loc_4465D1
 0001:000455ED       loc_4465ED
 0001:00045609       loc_446609
 0001:00045617       loc_446617
 0001:00045645       loc_446645
 0001:00045646       loc_446646
 0001:0004564A       loc_44664A
 0001:00045654       loc_446654
 0001:00045660       __allrem
 0001:00045680       loc_446680
 0001:0004569B       loc_44669B
 0001:000456BA       loc_4466BA
 0001:000456C8       loc_4466C8
 0001:000456F3       loc_4466F3
 0001:000456FB       loc_4466FB
 0001:00045706       loc_446706
 0001:0004570D       loc_44670D
 0001:00045720       _memcpy
 0001:00045740       loc_446740
 0001:0004575C       loc_44675C
 0001:00045774       loc_446774
 0001:0004577C       loc_44677C
 0001:00045790       LeadUp1
 0001:000457BC       LeadUp2
 0001:000457E0       LeadUp3
 0001:000457FC       off_4467FC
 0001:0004581C       UnwindUp7
 0001:00045824       UnwindUp6
 0001:0004582C       UnwindUp5
 0001:00045834       UnwindUp4
 0001:0004583C       UnwindUp3
 0001:00045844       UnwindUp2
 0001:0004584C       UnwindUp1
 0001:0004585F       UnwindUp0
 0001:00045868       off_446868
 0001:00045878       TrailUp0
 0001:00045880       TrailUp1
 0001:0004588C       TrailUp2
 0001:000458A0       TrailUp3
 0001:000458B8       loc_4468B8
 0001:000458E0       loc_4468E0
 0001:000458EC       loc_4468EC
 0001:00045904       loc_446904
 0001:00045918       LeadDown1
 0001:00045938       LeadDown2
 0001:00045960       LeadDown3
 0001:000459B0       off_4469B0
 0001:000459B4       UnwindDown7
 0001:000459BC       UnwindDown6
 0001:000459C4       UnwindDown5
 0001:000459CC       UnwindDown4
 0001:000459D4       UnwindDown3
 0001:000459DC       UnwindDown2
 0001:000459E4       UnwindDown1
 0001:000459F7       UnwindDown0
 0001:00045A00       off_446A00
 0001:00045A10       TrailDown0
 0001:00045A18       TrailDown1
 0001:00045A28       TrailDown2
 0001:00045A3C       TrailDown3
 0001:00045A55       __i64toa
 0001:00045A6C       loc_446A6C
 0001:00045A6F       loc_446A6F
 0001:00045A86       x64toa(x,x,x,x,x)
 0001:00045AA8       loc_446AA8
 0001:00045AAE       loc_446AAE
 0001:00045AB1       loc_446AB1
 0001:00045ADE       loc_446ADE
 0001:00045AE0       loc_446AE0
 0001:00045AED       loc_446AED
 0001:00045AF1       loc_446AF1
 0001:00045B10       __aullshr
 0001:00045B20       MORE32
 0001:00045B2A       RETZERO
 0001:00045B2F       type_info::~type_info(void)
 0001:00045B4E       loc_446B4E
 0001:00045B58       type_info::`scalar deleting destructor'(uint)
 0001:00045B6E       loc_446B6E
 0001:00045B80       __alloca_probe
 0001:00045B8C       probepages
 0001:00045BA0       lastpage
 0001:00045BAF       __mbsnbcmp
 0001:00045BDE       loc_446BDE
 0001:00045BEF       loc_446BEF
 0001:00045C1B       loc_446C1B
 0001:00045C26       loc_446C26
 0001:00045C30       loc_446C30
 0001:00045C50       loc_446C50
 0001:00045C54       loc_446C54
 0001:00045C5D       loc_446C5D
 0001:00045C7B       loc_446C7B
 0001:00045C8F       loc_446C8F
 0001:00045C97       loc_446C97
 0001:00045C99       loc_446C99
 0001:00045CA0       _strncpy
 0001:00045CC4       src_misaligned
 0001:00045CE0       tail_loop_start
 0001:00045CE5       copy_tail_loop
 0001:00045CF2       fill_tail_end1
 0001:00045CFA       align_dest
 0001:00045D02       dest_align_loop
 0001:00045D14       dest_align_loop_end
 0001:00045D1B       finish_loop
 0001:00045D1E       fill_tail_zero_bytes
 0001:00045D23       finish
 0001:00045D29       main_loop
 0001:00045D31       main_loop_entrance
 0001:00045D67       loc_446D67
 0001:00045D71       loc_446D71
 0001:00045D7B       loc_446D7B
 0001:00045D7F       fill_with_EOS_dwords
 0001:00045D87       fill_dwords_with_EOS
 0001:00045D89       fill_with_EOS_loop
 0001:00045D91       fill_tail
 0001:00045D96       fill_tail_end
 0001:00045D9E       sub_446D9E
 0001:00045DF9       loc_446DF9
 0001:00045E02       loc_446E02
 0001:00045E08       loc_446E08
 0001:00045E11       loc_446E11
 0001:00045E4C       loc_446E4C
 0001:00045E55       loc_446E55
 0001:00045E59       loc_446E59
 0001:00045E60       loc_446E60
 0001:00045E69       loc_446E69
 0001:00045E6A       loc_446E6A
 0001:00045E78       loc_446E78
 0001:00045E87       _malloc
 0001:00045E99       __nh_malloc
 0001:00045EA0       loc_446EA0
 0001:00045EC2       loc_446EC2
 0001:00045EC4       locret_446EC4
 0001:00045EC5       sub_446EC5
 0001:00045F20       loc_446F20
 0001:00045F2C       loc_446F2C
 0001:00045F35       loc_446F35
 0001:00045F49       loc_446F49
 0001:00045F4C       loc_446F4C
 0001:00045F7E       loc_446F7E
 0001:00045F85       loc_446F85
 0001:00045F88       loc_446F88
 0001:00045F8B       loc_446F8B
 0001:00045F94       loc_446F94
 0001:00045F9E       loc_446F9E
 0001:00045FA4       loc_446FA4
 0001:00045FB2       loc_446FB2
 0001:00045FC1       ___initstdio
 0001:00045FD5       loc_446FD5
 0001:00045FDB       loc_446FDB
 0001:00045FE0       loc_446FE0
 0001:00046014       loc_447014
 0001:0004601B       loc_44701B
 0001:00046038       loc_447038
 0001:00046058       loc_447058
 0001:0004605B       loc_44705B
 0001:00046069       ___endstdio
 0001:0004607C       locret_44707C
 0001:0004607D       __lock_file
 0001:000460A1       loc_4470A1
 0001:000460AC       sub_4470AC
 0001:000460C0       loc_4470C0
 0001:000460CF       __unlock_file
 0001:000460F3       loc_4470F3
 0001:000460FE       sub_4470FE
 0001:00046112       loc_447112
 0001:00046121       __onexit
 0001:0004616A       loc_44716A
 0001:00046187       loc_447187
 0001:00046196       loc_447196
 0001:0004619F       _atexit
 0001:000461B1       ___onexitinit
 0001:000461D2       loc_4471D2
 0001:000461E0       _toupper
 0001:000461FE       loc_4471FE
 0001:00046228       loc_447228
 0001:00046244       loc_447244
 0001:00046247       loc_447247
 0001:0004624D       loc_44724D
 0001:0004624F       _toupper_0
 0001:0004627A       loc_44727A
 0001:0004629A       loc_44729A
 0001:000462A5       loc_4472A5
 0001:000462A9       loc_4472A9
 0001:000462AD       loc_4472AD
 0001:000462D0       loc_4472D0
 0001:000462D9       loc_4472D9
 0001:0004630B       loc_44730B
 0001:00046318       loc_447318
 0001:00046320       _strstr
 0001:00046338       findnext
 0001:00046349       loop_start
 0001:0004634C       in_loop
 0001:00046354       not_found
 0001:0004635A       first_char_found
 0001:00046361       two_first_chars_equal
 0001:00046364       compare_loop
 0001:00046387       strchr_call
 0001:00046393       match
 0001:0004639A       empty_str2
 0001:000463A0       __mbsstr
 0001:000463BF       loc_4473BF
 0001:000463D8       loc_4473D8
 0001:000463EB       loc_4473EB
 0001:000463FC       loc_4473FC
 0001:0004640B       loc_44740B
 0001:0004640F       loc_44740F
 0001:00046411       loc_447411
 0001:00046420       found_bx
 0001:00046430       _strchr
 0001:00046436       ___from_strstr_to_strchr
 0001:00046448       str_misaligned
 0001:0004645B       main_loop_start
 0001:00046466       main_loop_0
 0001:000464A2       retnull
 0001:000464A4       retnull_bx
 0001:000464A8       chr_is_found
 0001:000464D0       loc_4474D0
 0001:000464D7       loc_4474D7
 0001:000464DE       loc_4474DE
 0001:000464E5       loc_4474E5
 0001:000464F0       _strrchr
 0001:00046511       returndi
 0001:00046513       toend_0
 0001:00046517       __mbsrchr
 0001:00046534       loc_447534
 0001:00046540       loc_447540
 0001:0004656B       loc_44756B
 0001:0004656F       loc_44756F
 0001:00046572       loc_447572
 0001:00046576       loc_447576
 0001:00046586       loc_447586
 0001:00046589       _div
 0001:000465AA       loc_4475AA
 0001:000465AE       _strtok
 0001:000465CF       loc_4475CF
 0001:000465F7       loc_4475F7
 0001:00046617       loc_447617
 0001:00046619       loc_447619
 0001:00046639       loc_447639
 0001:0004663D       loc_44763D
 0001:00046660       _memchr
 0001:0004667B       str_misaligned_0
 0001:0004668D       main_loop_start_0
 0001:000466A3       return_from_main
 0001:000466A4       tail_less_then_4
 0001:000466A9       tail_loop
 0001:000466B3       retnull_0
 0001:000466B5       main_loop_1
 0001:000466BA       main_loop_entry
 0001:000466D5       char_is_found
 0001:000466ED       loc_4476ED
 0001:000466EE       found
 0001:000466F3       loc_4476F3
 0001:000466F9       loc_4476F9
 0001:000466FF       loc_4476FF
 0001:00046708       __setjmp3
 0001:00046745       _s3_get_count
 0001:00046757       _s3_default_trylevel
 0001:0004675F       _s3_save_trylevel
 0001:0004677C       _s3_save_data
 0001:00046780       _s3_done
 0001:00046784       _longjmp
 0001:0004679F       _lj_local_unwind
 0001:000467C7       _lj_old_unwind
 0001:000467D4       _lj_no_unwind
 0001:000467FD       _sscanf
 0001:00046840       _memcpy_0
 0001:00046860       loc_447860
 0001:0004687C       loc_44787C
 0001:00046894       loc_447894
 0001:0004689C       loc_44789C
 0001:000468B0       LeadUp1_0
 0001:000468DC       LeadUp2_0
 0001:00046900       LeadUp3_0
 0001:0004691C       off_44791C
 0001:0004693C       UnwindUp7_0
 0001:00046944       UnwindUp6_0
 0001:0004694C       UnwindUp5_0
 0001:00046954       UnwindUp4_0
 0001:0004695C       UnwindUp3_0
 0001:00046964       UnwindUp2_0
 0001:0004696C       UnwindUp1_0
 0001:0004697F       UnwindUp0_0
 0001:00046988       off_447988
 0001:00046998       TrailUp0_0
 0001:000469A0       TrailUp1_0
 0001:000469AC       TrailUp2_0
 0001:000469C0       TrailUp3_0
 0001:000469D8       loc_4479D8
 0001:00046A00       loc_447A00
 0001:00046A0C       loc_447A0C
 0001:00046A24       loc_447A24
 0001:00046A38       LeadDown1_0
 0001:00046A58       LeadDown2_0
 0001:00046A80       LeadDown3_0
 0001:00046AD0       off_447AD0
 0001:00046AD4       UnwindDown7_0
 0001:00046ADC       UnwindDown6_0
 0001:00046AE4       UnwindDown5_0
 0001:00046AEC       UnwindDown4_0
 0001:00046AF4       UnwindDown3_0
 0001:00046AFC       UnwindDown2_0
 0001:00046B04       UnwindDown1_0
 0001:00046B17       UnwindDown0_0
 0001:00046B20       off_447B20
 0001:00046B30       TrailDown0_0
 0001:00046B38       TrailDown1_0
 0001:00046B48       TrailDown2_0
 0001:00046B5C       TrailDown3_0
 0001:00046B75       _wcslen
 0001:00046B82       loc_447B82
 0001:00046B8C       loc_447B8C
 0001:00046B94       __EH_prolog
 0001:00046BB3       __mbschr
 0001:00046BD0       loc_447BD0
 0001:00046BDB       loc_447BDB
 0001:00046C0A       loc_447C0A
 0001:00046C12       loc_447C12
 0001:00046C15       loc_447C15
 0001:00046C21       loc_447C21
 0001:00046C2E       loc_447C2E
 0001:00046C46       loc_447C46
 0001:00046C50       _memset
 0001:00046C73       adjust_loop
 0001:00046C79       dwords
 0001:00046C93       main_loop_tail
 0001:00046C97       tail
 0001:00046C9D       finish_0
 0001:00046CA3       toend_1
 0001:00046CA8       __mbsinc
 0001:00046CBE       locret_447CBE
 0001:00046CBF       _vsprintf
 0001:00046CFE       loc_447CFE
 0001:00046D0B       loc_447D0B
 0001:00046D10       __mbclen
 0001:00046D30       _strlen
 0001:00046D3C       str_misaligned_1
 0001:00046D50       main_loop_2
 0001:00046D83       loc_447D83
 0001:00046D8D       loc_447D8D
 0001:00046D97       loc_447D97
 0001:00046DA1       loc_447DA1
 0001:00046DAB       _sprintf
 0001:00046DEB       loc_447DEB
 0001:00046DF8       loc_447DF8
 0001:00046DFD       __ismbcdigit
 0001:00046E2E       loc_447E2E
 0001:00046E32       loc_447E32
 0001:00046E6A       loc_447E6A
 0001:00046E7F       loc_447E7F
 0001:00046E90       _memcmp
 0001:00046EBD       main_loop_3
 0001:00046EDA       done
 0001:00046EDC       retnull_1
 0001:00046EDD       dwords_0
 0001:00046F05       difference_in_tail
 0001:00046F0A       not_equal
 0001:00046F12       tail_loop_start_0
 0001:00046F39       tail_done
 0001:00046F3C       _CxxThrowException(x,x)
 0001:00046F76       _fabs
 0001:00046FDB       loc_447FDB
 0001:00046FEC       loc_447FEC
 0001:00046FFC       loc_447FFC
 0001:0004700A       loc_44800A
 0001:00047027       loc_448027
 0001:0004702B       _ceil
 0001:00047086       loc_448086
 0001:00047094       loc_448094
 0001:000470B1       loc_4480B1
 0001:000470C6       loc_4480C6
 0001:000470D4       loc_4480D4
 0001:000470EE       loc_4480EE
 0001:000470F6       loc_4480F6
 0001:000470FA       _time
 0001:0004715F       loc_44815F
 0001:00047188       loc_448188
 0001:0004718C       loc_44818C
 0001:0004718F       loc_44818F
 0001:000471A4       loc_4481A4
 0001:000471D4       locret_4481D4
 0001:000471D6       _localtime
 0001:000471E9       loc_4481E9
 0001:0004724F       loc_44824F
 0001:0004726B       loc_44826B
 0001:0004728A       loc_44828A
 0001:000472AC       loc_4482AC
 0001:000472CD       loc_4482CD
 0001:000472F3       loc_4482F3
 0001:000472F9       loc_4482F9
 0001:000472FB       loc_4482FB
 0001:000472FE       loc_4482FE
 0001:00047336       sub_448336
 0001:00047370       loc_448370
 0001:00047383       loc_448383
 0001:00047391       loc_448391
 0001:000473D6       loc_4483D6
 0001:000473F1       loc_4483F1
 0001:0004740E       loc_44840E
 0001:0004741D       loc_44841D
 0001:00047448       loc_448448
 0001:0004745E       loc_44845E
 0001:00047467       loc_448467
 0001:00047473       loc_448473
 0001:0004748E       loc_44848E
 0001:000474B9       loc_4484B9
 0001:000474C1       loc_4484C1
 0001:000474CA       loc_4484CA
 0001:000474E4       loc_4484E4
 0001:000474E7       loc_4484E7
 0001:000474EA       loc_4484EA
 0001:0004754C       loc_44854C
 0001:00047569       loc_448569
 0001:00047584       loc_448584
 0001:00047587       loc_448587
 0001:000475B2       loc_4485B2
 0001:000475CD       loc_4485CD
 0001:000475E0       loc_4485E0
 0001:000475E9       loc_4485E9
 0001:00047609       loc_448609
 0001:0004760F       loc_44860F
 0001:0004761A       loc_44861A
 0001:00047628       loc_448628
 0001:0004763D       loc_44863D
 0001:00047654       loc_448654
 0001:00047656       loc_448656
 0001:00047665       _abs
 0001:0004766F       locret_44866F
 0001:00047670       __strdup
 0001:00047697       loc_448697
 0001:0004769B       __cinit
 0001:000476A6       loc_4486A6
 0001:000476C8       _exit
 0001:000476D9       __exit
 0001:000476EA       _doexit
 0001:0004770C       loc_44870C
 0001:0004773B       loc_44873B
 0001:00047743       loc_448743
 0001:0004774E       loc_44874E
 0001:0004774F       loc_44874F
 0001:00047760       loc_448760
 0001:0004777D       loc_44877D
 0001:0004778F       __lockexit
 0001:00047798       __unlockexit
 0001:000477A1       __initterm
 0001:000477A6       loc_4487A6
 0001:000477B4       loc_4487B4
 0001:000477B9       loc_4487B9
 0001:000477BB       sub_4487BB
 0001:000477ED       loc_4487ED
 0001:00047832       loc_448832
 0001:0004783B       loc_44883B
 0001:0004784A       loc_44884A
 0001:0004784D       loc_44884D
 0001:00047856       loc_448856
 0001:00047866       loc_448866
 0001:000478BF       loc_4488BF
 0001:000478CE       loc_4488CE
 0001:000478D7       loc_4488D7
 0001:000478DF       loc_4488DF
 0001:000478E2       loc_4488E2
 0001:000478EB       loc_4488EB
 0001:000478F2       loc_4488F2
 0001:000478F8       loc_4488F8
 0001:0004790D       loc_44890D
 0001:00047910       loc_448910
 0001:0004791F       sub_44891F
 0001:00047974       loc_448974
 0001:00047977       loc_448977
 0001:00047980       loc_448980
 0001:00047986       loc_448986
 0001:00047989       loc_448989
 0001:00047992       loc_448992
 0001:000479CB       loc_4489CB
 0001:000479CE       loc_4489CE
 0001:000479D7       loc_4489D7
 0001:000479DB       loc_4489DB
 0001:000479DD       loc_4489DD
 0001:000479F0       loc_4489F0
 0001:00047A01       loc_448A01
 0001:00047A04       loc_448A04
 0001:00047A0D       _strtol
 0001:00047A24       _strtoxl
 0001:00047A3C       loc_448A3C
 0001:00047A54       loc_448A54
 0001:00047A63       loc_448A63
 0001:00047A6C       loc_448A6C
 0001:00047A7A       loc_448A7A
 0001:00047A7F       loc_448A7F
 0001:00047A85       loc_448A85
 0001:00047AB7       loc_448AB7
 0001:00047ACA       loc_448ACA
 0001:00047ACD       loc_448ACD
 0001:00047AE1       loc_448AE1
 0001:00047AE9       loc_448AE9
 0001:00047AF9       loc_448AF9
 0001:00047B11       loc_448B11
 0001:00047B1C       loc_448B1C
 0001:00047B28       loc_448B28
 0001:00047B3C       loc_448B3C
 0001:00047B47       loc_448B47
 0001:00047B5A       loc_448B5A
 0001:00047B79       loc_448B79
 0001:00047B7F       loc_448B7F
 0001:00047B88       loc_448B88
 0001:00047B95       loc_448B95
 0001:00047BAC       loc_448BAC
 0001:00047BB2       loc_448BB2
 0001:00047BCD       loc_448BCD
 0001:00047BD6       loc_448BD6
 0001:00047BED       loc_448BED
 0001:00047BFD       loc_448BFD
 0001:00047C06       loc_448C06
 0001:00047C14       loc_448C14
 0001:00047C19       loc_448C19
 0001:00047C22       loc_448C22
 0001:00047C24       loc_448C24
 0001:00047C29       sub_448C29
 0001:00047C3C       loc_448C3C
 0001:00047C62       loc_448C62
 0001:00047C72       loc_448C72
 0001:00047C8F       loc_448C8F
 0001:00047C9C       __errno
 0001:00047CA5       ___doserrno
 0001:00047CAE       _mktime
 0001:00047CBC       __make_time_t
 0001:00047CE8       loc_448CE8
 0001:00047D09       loc_448D09
 0001:00047D1E       loc_448D1E
 0001:00047D33       loc_448D33
 0001:00047D60       loc_448D60
 0001:00047D6C       loc_448D6C
 0001:00047D87       loc_448D87
 0001:00047D89       loc_448D89
 0001:00047DA9       loc_448DA9
 0001:00047DB5       loc_448DB5
 0001:00047DCF       loc_448DCF
 0001:00047DD1       loc_448DD1
 0001:00047DF1       loc_448DF1
 0001:00047DFD       loc_448DFD
 0001:00047E17       loc_448E17
 0001:00047E19       loc_448E19
 0001:00047E33       loc_448E33
 0001:00047E3B       loc_448E3B
 0001:00047E6B       loc_448E6B
 0001:00047E7F       loc_448E7F
 0001:00047E8D       loc_448E8D
 0001:00047E99       loc_448E99
 0001:00047E9C       loc_448E9C
 0001:00047EA0       _gmtime
 0001:00047EBD       loc_448EBD
 0001:00047ED7       loc_448ED7
 0001:00047EDA       loc_448EDA
 0001:00047F16       loc_448F16
 0001:00047F19       loc_448F19
 0001:00047F3F       loc_448F3F
 0001:00047F48       loc_448F48
 0001:00047F52       loc_448F52
 0001:00047FA6       loc_448FA6
 0001:00047FAA       __setmbcp
 0001:00047FD1       loc_448FD1
 0001:00047FD8       loc_448FD8
 0001:00047FE7       loc_448FE7
 0001:0004803C       loc_44903C
 0001:0004804D       loc_44904D
 0001:0004805F       loc_44905F
 0001:0004807C       loc_44907C
 0001:00048083       loc_449083
 0001:0004809D       loc_44909D
 0001:000480A8       loc_4490A8
 0001:000480AF       loc_4490AF
 0001:000480E9       loc_4490E9
 0001:000480F5       loc_4490F5
 0001:000480F7       loc_4490F7
 0001:0004811A       loc_44911A
 0001:00048121       loc_449121
 0001:0004812D       loc_44912D
 0001:00048136       loc_449136
 0001:0004813B       loc_44913B
 0001:00048145       loc_449145
 0001:00048148       loc_449148
 0001:00048157       _getSystemCP
 0001:00048177       loc_449177
 0001:0004818C       loc_44918C
 0001:000481A0       locret_4491A0
 0001:000481A1       _CPtoLCID
 0001:000481BC       loc_4491BC
 0001:000481C2       loc_4491C2
 0001:000481C8       loc_4491C8
 0001:000481CE       loc_4491CE
 0001:000481D4       _setSBCS
 0001:000481FD       _setSBUpLow
 0001:00048227       loc_449227
 0001:00048246       loc_449246
 0001:0004826D       loc_44926D
 0001:00048278       loc_449278
 0001:000482F3       loc_4492F3
 0001:00048309       loc_449309
 0001:00048311       loc_449311
 0001:00048326       loc_449326
 0001:0004832D       loc_44932D
 0001:00048336       loc_449336
 0001:0004833D       loc_44933D
 0001:00048353       loc_449353
 0001:0004835B       loc_44935B
 0001:00048373       loc_449373
 0001:0004837A       loc_44937A
 0001:0004837F       loc_44937F
 0001:00048382       ___initmbctable
 0001:0004839D       locret_44939D
 0001:0004839E       __XcptFilter
 0001:000483DF       loc_4493DF
 0001:00048419       loc_449419
 0001:0004843A       loc_44943A
 0001:0004844F       loc_44944F
 0001:0004845F       loc_44945F
 0001:0004846F       loc_44946F
 0001:0004847F       loc_44947F
 0001:0004848F       loc_44948F
 0001:0004849F       loc_44949F
 0001:000484AD       loc_4494AD
 0001:000484BC       loc_4494BC
 0001:000484C4       loc_4494C4
 0001:000484CA       loc_4494CA
 0001:000484CF       loc_4494CF
 0001:000484D8       loc_4494D8
 0001:000484DC       _xcptlookup
 0001:000484F8       loc_4494F8
 0001:00048503       loc_449503
 0001:00048511       loc_449511
 0001:00048513       loc_449513
 0001:00048516       __wincmdln
 0001:00048524       loc_449524
 0001:00048531       loc_449531
 0001:0004854E       loc_44954E
 0001:00048553       loc_449553
 0001:00048556       loc_449556
 0001:0004855A       loc_44955A
 0001:00048560       loc_449560
 0001:0004856A       loc_44956A
 0001:0004856E       __setenvp
 0001:00048580       loc_449580
 0001:00048588       loc_449588
 0001:00048593       loc_449593
 0001:000485A0       loc_4495A0
 0001:000485C2       loc_4495C2
 0001:000485CD       loc_4495CD
 0001:000485F1       loc_4495F1
 0001:000485FE       loc_4495FE
 0001:00048605       loc_449605
 0001:00048627       __setargv
 0001:0004863E       loc_44963E
 0001:00048663       loc_449663
 0001:00048693       loc_449693
 0001:000486C0       _parse_cmdline
 0001:000486EA       loc_4496EA
 0001:000486EF       loc_4496EF
 0001:00048714       loc_449714
 0001:00048721       loc_449721
 0001:0004872B       loc_44972B
 0001:00048733       loc_449733
 0001:0004873E       loc_44973E
 0001:00048758       loc_449758
 0001:00048759       loc_449759
 0001:00048767       loc_449767
 0001:0004876B       loc_44976B
 0001:0004876E       loc_44976E
 0001:00048776       loc_449776
 0001:0004877A       loc_44977A
 0001:00048783       loc_449783
 0001:0004878F       loc_44978F
 0001:00048792       loc_449792
 0001:000487A7       loc_4497A7
 0001:000487AC       loc_4497AC
 0001:000487B5       loc_4497B5
 0001:000487BE       loc_4497BE
 0001:000487DC       loc_4497DC
 0001:000487DF       loc_4497DF
 0001:000487ED       loc_4497ED
 0001:000487EF       loc_4497EF
 0001:000487F7       loc_4497F7
 0001:000487FF       loc_4497FF
 0001:00048804       loc_449804
 0001:0004881A       loc_44981A
 0001:00048836       loc_449836
 0001:0004883D       loc_44983D
 0001:0004884C       loc_44984C
 0001:0004884E       loc_44984E
 0001:00048854       loc_449854
 0001:0004885C       loc_44985C
 0001:00048863       loc_449863
 0001:0004886A       loc_44986A
 0001:00048874       ___crtGetEnvironmentStringsA
 0001:000488A3       loc_4498A3
 0001:000488C2       loc_4498C2
 0001:000488CB       loc_4498CB
 0001:000488DB       loc_4498DB
 0001:000488E2       loc_4498E2
 0001:000488F0       loc_4498F0
 0001:0004893D       loc_44993D
 0001:00048941       loc_449941
 0001:0004894C       loc_44994C
 0001:00048951       loc_449951
 0001:00048961       loc_449961
 0001:00048967       loc_449967
 0001:00048971       loc_449971
 0001:00048987       loc_449987
 0001:00048992       loc_449992
 0001:0004899D       loc_44999D
 0001:0004899F       loc_44999F
 0001:000489A6       __ioinit
 0001:000489C8       loc_4499C8
 0001:000489DE       loc_4499DE
 0001:00048A00       loc_449A00
 0001:00048A36       loc_449A36
 0001:00048A43       loc_449A43
 0001:00048A61       loc_449A61
 0001:00048A81       loc_449A81
 0001:00048A8E       loc_449A8E
 0001:00048A94       loc_449A94
 0001:00048A9A       loc_449A9A
 0001:00048AB9       loc_449AB9
 0001:00048ADC       loc_449ADC
 0001:00048AE6       loc_449AE6
 0001:00048AE8       loc_449AE8
 0001:00048B07       loc_449B07
 0001:00048B11       loc_449B11
 0001:00048B36       loc_449B36
 0001:00048B3C       loc_449B3C
 0001:00048B47       loc_449B47
 0001:00048B4B       loc_449B4B
 0001:00048B62       __mtinit
 0001:00048BB2       loc_449BB2
 0001:00048BB6       __initptd
 0001:00048BC9       __getptd
 0001:00048C1C       loc_449C1C
 0001:00048C24       loc_449C24
 0001:00048C30       sub_449C30
 0001:00048C5B       loc_449C5B
 0001:00048C5D       sub_449C5D
 0001:00048CA0       loc_449CA0
 0001:00048CCF       loc_449CCF
 0001:00048CDD       loc_449CDD
 0001:00048CE2       loc_449CE2
 0001:00048D04       loc_449D04
 0001:00048D25       loc_449D25
 0001:00048D33       loc_449D33
 0001:00048D38       loc_449D38
 0001:00048D4D       loc_449D4D
 0001:00048D66       loc_449D66
 0001:00048D6F       loc_449D6F
 0001:00048D70       loc_449D70
 0001:00048D74       loc_449D74
 0001:00048D8F       loc_449D8F
 0001:00048DA2       loc_449DA2
 0001:00048DA5       sub_449DA5
 0001:00048DE1       loc_449DE1
 0001:00048DEB       loc_449DEB
 0001:00048DFB       loc_449DFB
 0001:00048DFE       loc_449DFE
 0001:00048E0C       __except_handler3
 0001:00048E3F       _lh_top
 0001:00048E93       _lh_continue
 0001:00048E9E       _lh_dismiss
 0001:00048EA5       _lh_bagit
 0001:00048EAC       _lh_unwinding
 0001:00048EC1       _lh_return
 0001:00048EC9       _seh_longjmp_unwind(x)
 0001:00048EE4       __FF_MSGBANNER
 0001:00048EFB       loc_449EFB
 0001:00048F11       loc_449F11
 0001:00048F1C       locret_449F1C
 0001:00048F1D       sub_449F1D
 0001:00048F30       loc_449F30
 0001:00048F3F       loc_449F3F
 0001:00048F70       loc_449F70
 0001:00048FA7       loc_449FA7
 0001:00048FEA       loc_449FEA
 0001:00049047       loc_44A047
 0001:0004906D       loc_44A06D
 0001:00049070       __setdefaultprecision
 0001:00049082       __ms_p5_test_fdiv
 0001:000490BC       loc_44A0BC
 0001:000490C0       __ms_p5_mp_test_fdiv
 0001:000490E4       loc_44A0E4
 0001:000490E9       __forcdecpt
 0001:000490FD       loc_44A0FD
 0001:00049116       loc_44A116
 0001:00049125       loc_44A125
 0001:00049129       loc_44A129
 0001:00049134       loc_44A134
 0001:00049143       __cropzeros
 0001:00049153       loc_44A153
 0001:0004915F       loc_44A15F
 0001:00049166       loc_44A166
 0001:00049179       loc_44A179
 0001:0004917B       loc_44A17B
 0001:00049186       loc_44A186
 0001:00049190       locret_44A190
 0001:00049191       __positive
 0001:000491A6       loc_44A1A6
 0001:000491A9       __fassign
 0001:000491D2       loc_44A1D2
 0001:000491E7       __cftoe
 0001:00049248       __cftoe2
 0001:00049276       loc_44A276
 0001:00049283       loc_44A283
 0001:0004929A       loc_44A29A
 0001:000492BE       loc_44A2BE
 0001:000492D2       loc_44A2D2
 0001:000492E9       loc_44A2E9
 0001:00049300       loc_44A300
 0001:00049303       loc_44A303
 0001:0004930A       __cftof
 0001:0004935F       __cftof2
 0001:0004938F       loc_44A38F
 0001:0004939C       loc_44A39C
 0001:000493B3       loc_44A3B3
 0001:000493B5       loc_44A3B5
 0001:000493DE       loc_44A3DE
 0001:000493E5       loc_44A3E5
 0001:000493E8       loc_44A3E8
 0001:000493FF       loc_44A3FF
 0001:00049406       __cftog
 0001:00049461       loc_44A461
 0001:0004946B       loc_44A46B
 0001:0004947F       loc_44A47F
 0001:00049494       loc_44A494
 0001:00049499       __cfltcvt
 0001:000494C1       loc_44A4C1
 0001:000494D4       loc_44A4D4
 0001:000494E5       loc_44A4E5
 0001:000494EA       __shift
 0001:0004950D       loc_44A50D
 0001:00049510       fFYTOX
 0001:0004951D       fFXTOY
 0001:00049521       __fFEXP
 0001:0004952E       fF2X
 0001:0004954F       badP5_fdivr
 0001:00049554       fdivr_done
 0001:0004955B       ExpScaled
 0001:00049561       expret
 0001:00049566       negYTOX
 0001:00049578       evenexp
 0001:0004957E       _rtfor0to0
 0001:00049583       negYTOXerror
 0001:00049588       __rtinfpopse
 0001:0004958A       __rtinfnpopse
 0001:0004959A       __fFLN
 0001:000495B4       _rtforln0
 0001:000495C4       _rtforloginf
 0001:000495C9       fFLOGm
 0001:000495CD       fFLNm
 0001:000495CF       fFYL2Xm
 0001:000495D8       _rtforyto0
 0001:000495DD       _rtfor0tox
 0001:000495F7       zerotoxdone
 0001:000495F8       _rtfor0toneg
 0001:00049612       tranzeropop
 0001:00049614       tranzeronpop
 0001:00049619       tranindfpop
 0001:0004961B       tranindfnpop
 0001:00049620       ExpArgOutOfRange
 0001:00049642       _expbigret
 0001:00049643       zeronpopue
 0001:0004964F       __rtinfpop
 0001:00049651       __rtinfnpop
 0001:00049659       setOVERFLOW
 0001:00049661       _rtforexpinf
 0001:0004966E       __ffexpm1
 0001:000496B1       _isintTOS
 0001:000496D6       _isintTOSret
 0001:000496D7       notanint
 0001:000496DE       evenint
 0001:000496E5       _usepowhlp
 0001:00049716       noerror
 0001:00049720       __trandisp1
 0001:00049737       loc_44A737
 0001:0004973B       loc_44A73B
 0001:00049787       __trandisp2
 0001:0004979E       cwdefault
 0001:000497A2       setcw
 0001:00049813       __rttospopde
 0001:00049818       __rttospop
 0001:0004981A       __rtnospop
 0001:0004981C       __rttosnpop
 0001:0004981D       __rtnospopde
 0001:00049824       __rtzeropop
 0001:00049826       __rtzeronpop
 0001:0004982B       __rtonepop
 0001:0004982D       __rtonenpop
 0001:00049832       __tosnan1
 0001:0004984F       _tossnan1
 0001:0004985D       __nosnan2
 0001:0004985F       __tosnan2
 0001:0004987D       _tossnan2
 0001:00049884       _tosnan2ret
 0001:00049887       __nan2
 0001:000498BC       _snan2
 0001:000498C3       _nan2ret
 0001:000498C6       __rtindfpop
 0001:000498C8       __rtindfnpop
 0001:000498D9       __rttosnpopde
 0001:000498E0       retj
 0001:000498E3       __rtchsifneg
 0001:000498E9       chsifnegret
 0001:000498F0       __startTwoArgErrorHandling
 0001:00049907       __startOneArgErrorHandling
 0001:00049910       _ContinueErrorHandling
 0001:00049941       CW_is_restored
 0001:00049950       __twoToTOS
 0001:00049965       __load_CW
 0001:0004997C       __convertTOStoQNaN
 0001:00049989       tosIsSNaN
 0001:00049995       __fload_withFB
 0001:000499A7       fpload_special
 0001:000499D8       __checkTOS_withFB
 0001:000499E9       special_exp
 0001:000499EE       __fast_exit
 0001:000499F9       fast_exit_CW_is_restored
 0001:000499FB       __math_exit
 0001:00049A20       restore_CW
 0001:00049A23       CW_is_restored_0
 0001:00049A25       __check_overflow_exit
 0001:00049A39       __check_range_exit
 0001:00049A4D       _check_overflow_start
 0001:00049A72       have_error
 0001:00049A7E       have_error_in_pow
 0001:00049A85       loc_44AA85
 0001:00049A88       loc_44AA88
 0001:00049A8A       haveunderflow
 0001:00049AB3       haveoverflow
 0001:00049ADC       __powhlp
 0001:00049AF9       loc_44AAF9
 0001:00049B2C       loc_44AB2C
 0001:00049B3F       loc_44AB3F
 0001:00049B67       loc_44AB67
 0001:00049B83       loc_44AB83
 0001:00049B8B       loc_44AB8B
 0001:00049B99       loc_44AB99
 0001:00049B9D       loc_44AB9D
 0001:00049BD3       loc_44ABD3
 0001:00049BDB       loc_44ABDB
 0001:00049BF6       loc_44ABF6
 0001:00049BF8       loc_44ABF8
 0001:00049C00       loc_44AC00
 0001:00049C02       loc_44AC02
 0001:00049C07       loc_44AC07
 0001:00049C0C       __d_inttype
 0001:00049C68       loc_44AC68
 0001:00049C6A       loc_44AC6A
 0001:00049C6D       loc_44AC6D
 0001:00049C71       __frnd
 0001:00049C83       __handle_qnan1
 0001:00049CB8       loc_44ACB8
 0001:00049CD7       __except1
 0001:00049D15       loc_44AD15
 0001:00049D53       loc_44AD53
 0001:00049D6F       __raise_exc
 0001:00049DA1       loc_44ADA1
 0001:00049DB4       loc_44ADB4
 0001:00049DC6       loc_44ADC6
 0001:00049DD9       loc_44ADD9
 0001:00049DEC       loc_44ADEC
 0001:00049E75       loc_44AE75
 0001:00049E80       loc_44AE80
 0001:00049E8B       loc_44AE8B
 0001:00049E95       loc_44AE95
 0001:00049E9F       loc_44AE9F
 0001:00049EC4       loc_44AEC4
 0001:00049ED0       loc_44AED0
 0001:00049EDA       loc_44AEDA
 0001:00049EDE       loc_44AEDE
 0001:00049EE4       loc_44AEE4
 0001:00049F02       loc_44AF02
 0001:00049F0F       loc_44AF0F
 0001:00049F1A       loc_44AF1A
 0001:00049F1C       loc_44AF1C
 0001:00049F96       loc_44AF96
 0001:00049F9F       loc_44AF9F
 0001:00049FA8       loc_44AFA8
 0001:00049FB1       loc_44AFB1
 0001:00049FB9       loc_44AFB9
 0001:00049FD7       loc_44AFD7
 0001:00049FE1       loc_44AFE1
 0001:00049FE9       loc_44AFE9
 0001:00049FED       loc_44AFED
 0001:00049FEF       loc_44AFEF
 0001:0004A006       loc_44B006
 0001:0004A00F       loc_44B00F
 0001:0004A016       loc_44B016
 0001:0004A018       loc_44B018
 0001:0004A022       __handle_exc
 0001:0004A04D       loc_44B04D
 0001:0004A067       loc_44B067
 0001:0004A0C1       loc_44B0C1
 0001:0004A0C9       loc_44B0C9
 0001:0004A0E1       loc_44B0E1
 0001:0004A0E9       loc_44B0E9
 0001:0004A0F1       loc_44B0F1
 0001:0004A109       loc_44B109
 0001:0004A111       loc_44B111
 0001:0004A119       loc_44B119
 0001:0004A131       loc_44B131
 0001:0004A137       loc_44B137
 0001:0004A139       loc_44B139
 0001:0004A141       loc_44B141
 0001:0004A15C       loc_44B15C
 0001:0004A1A7       loc_44B1A7
 0001:0004A1B9       loc_44B1B9
 0001:0004A1BB       loc_44B1BB
 0001:0004A1D2       loc_44B1D2
 0001:0004A1DD       loc_44B1DD
 0001:0004A1E9       loc_44B1E9
 0001:0004A1EF       loc_44B1EF
 0001:0004A1FB       loc_44B1FB
 0001:0004A205       loc_44B205
 0001:0004A207       loc_44B207
 0001:0004A214       loc_44B214
 0001:0004A217       loc_44B217
 0001:0004A22E       loc_44B22E
 0001:0004A239       __umatherr
 0001:0004A29E       loc_44B29E
 0001:0004A2A4       loc_44B2A4
 0001:0004A2C1       __set_errno
 0001:0004A2DD       loc_44B2DD
 0001:0004A2E8       locret_44B2E8
 0001:0004A2E9       __get_fname
 0001:0004A2F0       loc_44B2F0
 0001:0004A306       loc_44B306
 0001:0004A30E       __errcode
 0001:0004A31A       loc_44B31A
 0001:0004A322       loc_44B322
 0001:0004A32A       loc_44B32A
 0001:0004A330       loc_44B330
 0001:0004A332       loc_44B332
 0001:0004A33B       __set_exp
 0001:0004A364       __sptype
 0001:0004A37B       loc_44B37B
 0001:0004A38D       loc_44B38D
 0001:0004A3A0       loc_44B3A0
 0001:0004A3B5       loc_44B3B5
 0001:0004A3B7       loc_44B3B7
 0001:0004A3BA       loc_44B3BA
 0001:0004A3BE       __decomp
 0001:0004A3DE       loc_44B3DE
 0001:0004A3F6       loc_44B3F6
 0001:0004A40E       loc_44B40E
 0001:0004A410       loc_44B410
 0001:0004A423       loc_44B423
 0001:0004A429       loc_44B429
 0001:0004A437       loc_44B437
 0001:0004A44D       loc_44B44D
 0001:0004A474       loc_44B474
 0001:0004A47F       __statfp
 0001:0004A48D       __clrfp
 0001:0004A49C       __ctrlfp
 0001:0004A4BF       __set_statfp
 0001:0004A4D6       loc_44B4D6
 0001:0004A4EB       loc_44B4EB
 0001:0004A4FA       loc_44B4FA
 0001:0004A508       loc_44B508
 0001:0004A513       locret_44B513
 0001:0004A520       __cintrindisp2
 0001:0004A53B       resume2
 0001:0004A54F       save2arg
 0001:0004A55E       __cintrindisp1
 0001:0004A578       resume1
 0001:0004A593       save1arg
 0001:0004A59B       __ctrandisp2
 0001:0004A5E3       ctranexit
 0001:0004A5EA       cintrinexit
 0001:0004A61D       checkinexact
 0001:0004A63F       restoreCW
 0001:0004A647       checkrng
 0001:0004A65F       haveunderflow_0
 0001:0004A68D       haveoverflow_0
 0001:0004A6B9       haveerror
 0001:0004A6EB       aftercopy
 0001:0004A711       movretval
 0001:0004A71B       __ctrandisp1
 0001:0004A74E       __fload
 0001:0004A784       fpload
 0001:0004A787       return
 0001:0004A790       unknown_libname_4
 0001:0004A798       loc_44B798
 0001:0004A7B3       loc_44B7B3
 0001:0004A7C2       loc_44B7C2
 0001:0004A813       loc_44B813
 0001:0004A82A       loc_44B82A
 0001:0004A834       loc_44B834
 0001:0004A837       loc_44B837
 0001:0004A878       loc_44B878
 0001:0004A880       loc_44B880
 0001:0004A8A0       loc_44B8A0
 0001:0004A8B4       sub_44B8B4
 0001:0004A8BA       word_44B8BA
 0001:0004A8BF       sub_44B8BF
 0001:0004A8C5       byte_44B8C5
 0001:0004A8CA       sub_44B8CA
 0001:0004A8D0       sub_44B8D0
 0001:0004A8D6       sub_44B8D6
 0001:0004A8DC       sub_44B8DC
 0001:0004A8E2       sub_44B8E2
 0001:0004A8FE       word_44B8FE
 0001:0004A903       sub_44B903
 0001:0004A919       byte_44B919
 0001:0004A91E       sub_44B91E
 0001:0004A93A       sub_44B93A
 0001:0004A94A       sub_44B94A
 0001:0004A95E       sub_44B95E
 0001:0004A96E       sub_44B96E
 0001:0004A98E       word_44B98E
 0001:0004A993       sub_44B993
 0001:0004A9AD       byte_44B9AD
 0001:0004A9B2       sub_44B9B2
 0001:0004A9D2       sub_44B9D2
 0001:0004A9E6       sub_44B9E6
 0001:0004A9FE       sub_44B9FE
 0001:0004AA12       sub_44BA12
 0001:0004AA32       word_44BA32
 0001:0004AA37       sub_44BA37
 0001:0004AA51       byte_44BA51
 0001:0004AA56       sub_44BA56
 0001:0004AA76       sub_44BA76
 0001:0004AA8A       sub_44BA8A
 0001:0004AAA2       sub_44BAA2
 0001:0004AAB6       sub_44BAB6
 0001:0004AAD6       word_44BAD6
 0001:0004AADB       sub_44BADB
 0001:0004AAF5       byte_44BAF5
 0001:0004AAFA       sub_44BAFA
 0001:0004AB1A       sub_44BB1A
 0001:0004AB2E       sub_44BB2E
 0001:0004AB46       sub_44BB46
 0001:0004AB5A       sub_44BB5A
 0001:0004AB7A       word_44BB7A
 0001:0004AB7F       sub_44BB7F
 0001:0004AB99       byte_44BB99
 0001:0004AB9E       sub_44BB9E
 0001:0004ABBE       sub_44BBBE
 0001:0004ABD2       sub_44BBD2
 0001:0004ABEA       sub_44BBEA
 0001:0004ABFE       sub_44BBFE
 0001:0004AC1E       word_44BC1E
 0001:0004AC23       sub_44BC23
 0001:0004AC3D       byte_44BC3D
 0001:0004AC42       sub_44BC42
 0001:0004AC62       sub_44BC62
 0001:0004AC76       sub_44BC76
 0001:0004AC8E       sub_44BC8E
 0001:0004ACA2       sub_44BCA2
 0001:0004ACC2       word_44BCC2
 0001:0004ACC7       sub_44BCC7
 0001:0004ACE1       byte_44BCE1
 0001:0004ACE6       sub_44BCE6
 0001:0004AD06       sub_44BD06
 0001:0004AD1A       sub_44BD1A
 0001:0004AD32       sub_44BD32
 0001:0004AD46       unknown_libname_6
 0001:0004AD59       unknown_libname_7
 0001:0004AD6C       unknown_libname_8
 0001:0004AD93       loc_44BD93
 0001:0004ADB0       loc_44BDB0
 0001:0004ADB8       unknown_libname_9
 0001:0004ADDF       loc_44BDDF
 0001:0004ADFC       loc_44BDFC
 0001:0004AE04       unknown_libname_10
 0001:0004AE1B       loc_44BE1B
 0001:0004AE38       unknown_libname_11
 0001:0004AE4F       loc_44BE4F
 0001:0004AE6C       unknown_libname_12
 0001:0004AE93       loc_44BE93
 0001:0004AEB0       loc_44BEB0
 0001:0004AEB8       unknown_libname_13
 0001:0004AEDF       loc_44BEDF
 0001:0004AEFC       loc_44BEFC
 0001:0004AF04       unknown_libname_14
 0001:0004AF1B       loc_44BF1B
 0001:0004AF38       unknown_libname_15
 0001:0004AF4F       loc_44BF4F
 0001:0004AF6C       unknown_libname_16
 0001:0004AF81       unknown_libname_17
 0001:0004AF96       unknown_libname_18
 0001:0004B020       loc_44C020
 0001:0004B07E       loc_44C07E
 0001:0004B08E       loc_44C08E
 0001:0004B0E8       loc_44C0E8
 0001:0004B0F5       loc_44C0F5
 0001:0004B130       loc_44C130
 0001:0004B13A       loc_44C13A
 0001:0004B16D       loc_44C16D
 0001:0004B198       loc_44C198
 0001:0004B19C       unknown_libname_19
 0001:0004B1BE       loc_44C1BE
 0001:0004B219       loc_44C219
 0001:0004B239       loc_44C239
 0001:0004B247       loc_44C247
 0001:0004B24E       unknown_libname_20
 0001:0004B2D8       loc_44C2D8
 0001:0004B336       loc_44C336
 0001:0004B346       loc_44C346
 0001:0004B3A0       loc_44C3A0
 0001:0004B3AD       loc_44C3AD
 0001:0004B3E8       loc_44C3E8
 0001:0004B3F2       loc_44C3F2
 0001:0004B425       loc_44C425
 0001:0004B450       loc_44C450
 0001:0004B454       unknown_libname_21
 0001:0004B479       loc_44C479
 0001:0004B4D4       loc_44C4D4
 0001:0004B4F4       loc_44C4F4
 0001:0004B502       loc_44C502
 0001:0004B509       unknown_libname_22
 0001:0004B50F       unknown_libname_23
 0001:0004B515       unknown_libname_24
 0001:0004B518       unknown_libname_25
 0001:0004B51B       __mtinitlocks
 0001:0004B544       __lock
 0001:0004B573       loc_44C573
 0001:0004B58B       loc_44C58B
 0001:0004B591       loc_44C591
 0001:0004B59A       loc_44C59A
 0001:0004B5A5       __unlock
 0001:0004B5BA       __mbsnbicoll
 0001:0004B5C7       loc_44C5C7
 0001:0004B5F4       loc_44C5F4
 0001:0004B5F9       ___wtomb_environ
 0001:0004B612       loc_44C612
 0001:0004B65A       loc_44C65A
 0001:0004B65C       loc_44C65C
 0001:0004B662       loc_44C662
 0001:0004B667       ___crtsetenv
 0001:0004B6B1       loc_44C6B1
 0001:0004B6CB       loc_44C6CB
 0001:0004B6CE       loc_44C6CE
 0001:0004B6D3       loc_44C6D3
 0001:0004B709       loc_44C709
 0001:0004B73B       loc_44C73B
 0001:0004B74B       loc_44C74B
 0001:0004B761       loc_44C761
 0001:0004B769       loc_44C769
 0001:0004B773       loc_44C773
 0001:0004B796       loc_44C796
 0001:0004B79B       loc_44C79B
 0001:0004B7E7       loc_44C7E7
 0001:0004B7EE       _findenv
 0001:0004B800       loc_44C800
 0001:0004B81F       loc_44C81F
 0001:0004B829       loc_44C829
 0001:0004B836       loc_44C836
 0001:0004B839       loc_44C839
 0001:0004B846       _copy_environ
 0001:0004B855       loc_44C855
 0001:0004B85D       loc_44C85D
 0001:0004B867       loc_44C867
 0001:0004B888       loc_44C888
 0001:0004B88C       loc_44C88C
 0001:0004B8A3       loc_44C8A3
 0001:0004B8B0       _strcpy
 0001:0004B8C0       _strcat
 0001:0004B8CD       dest_misaligned
 0001:0004B8DC       find_end_of_dest_string_loop
 0001:0004B90F       start_byte_3
 0001:0004B914       start_byte_2
 0001:0004B919       start_byte_1
 0001:0004B91E       start_byte_0
 0001:0004B921       copy_start
 0001:0004B92D       src_misaligned_0
 0001:0004B941       main_loop_4
 0001:0004B946       main_loop_entrance_0
 0001:0004B97A       loc_44C97A
 0001:0004B982       loc_44C982
 0001:0004B98F       loc_44C98F
 0001:0004B998       loc_44C998
 0001:0004B9A0       ___InternalCxxFrameHandler
 0001:0004B9B6       loc_44C9B6
 0001:0004B9DE       loc_44C9DE
 0001:0004BA18       loc_44CA18
 0001:0004BA34       loc_44CA34
 0001:0004BA37       loc_44CA37
 0001:0004BA3B       FindHandler(EHExceptionRecord *,EHRegistrationNode *,_CONTEXT *,void *,_s_FuncInfo const *,uchar,int,EHRegistrationNode *)
 0001:0004BA5B       loc_44CA5B
 0001:0004BA60       loc_44CA60
 0001:0004BAC2       loc_44CAC2
 0001:0004BAE0       loc_44CAE0
 0001:0004BB17       loc_44CB17
 0001:0004BB3C       loc_44CB3C
 0001:0004BB4E       loc_44CB4E
 0001:0004BB6D       loc_44CB6D
 0001:0004BB7C       loc_44CB7C
 0001:0004BBA0       loc_44CBA0
 0001:0004BBA3       loc_44CBA3
 0001:0004BBAE       loc_44CBAE
 0001:0004BBBE       loc_44CBBE
 0001:0004BBC3       loc_44CBC3
 0001:0004BBE9       loc_44CBE9
 0001:0004BBEE       FindHandlerForForeignException(EHExceptionRecord *,EHRegistrationNode *,_CONTEXT *,void *,_s_FuncInfo const *,int,int,EHRegistrationNode *)
 0001:0004BC21       loc_44CC21
 0001:0004BC3D       loc_44CC3D
 0001:0004BC66       loc_44CC66
 0001:0004BC8C       loc_44CC8C
 0001:0004BC94       loc_44CC94
 0001:0004BC98       TypeMatch(_s_HandlerType const *,_s_CatchableType const *,_s_ThrowInfo const *)
 0001:0004BCC9       loc_44CCC9
 0001:0004BCD3       loc_44CCD3
 0001:0004BCE2       loc_44CCE2
 0001:0004BCEB       loc_44CCEB
 0001:0004BCEF       loc_44CCEF
 0001:0004BCF2       loc_44CCF2
 0001:0004BCF5       ___FrameUnwindToState
 0001:0004BD27       loc_44CD27
 0001:0004BD36       loc_44CD36
 0001:0004BD3B       loc_44CD3B
 0001:0004BD56       loc_44CD56
 0001:0004BD5C       loc_44CD5C
 0001:0004BD66       loc_44CD66
 0001:0004BD76       loc_44CD76
 0001:0004BD81       loc_44CD81
 0001:0004BD93       unknown_libname_26
 0001:0004BDA4       loc_44CDA4
 0001:0004BDA9       CatchIt(EHExceptionRecord *,EHRegistrationNode *,_CONTEXT *,void *,_s_FuncInfo const *,_s_HandlerType const *,_s_CatchableType const *,_s_TryBlockMapEntry const *,int,EHRegistrationNode *,uchar)
 0001:0004BDCB       loc_44CDCB
 0001:0004BDD7       loc_44CDD7
 0001:0004BDDA       loc_44CDDA
 0001:0004BE1F       loc_44CE1F
 0001:0004BE24       CallCatchBlock(EHExceptionRecord *,EHRegistrationNode *,_CONTEXT *,_s_FuncInfo const *,void *,int,ulong)
 0001:0004BEB7       loc_44CEB7
 0001:0004BEBA       loc_44CEBA
 0001:0004BEC9       loc_44CEC9
 0001:0004BED3       loc_44CED3
 0001:0004BEEB       loc_44CEEB
 0001:0004BEF1       loc_44CEF1
 0001:0004BF3E       loc_44CF3E
 0001:0004BF3F       ExFilterRethrow(_EXCEPTION_POINTERS *)
 0001:0004BF66       loc_44CF66
 0001:0004BF69       BuildCatchObject(EHExceptionRecord *,EHRegistrationNode *,_s_HandlerType const *,_s_CatchableType const *)
 0001:0004BFF7       loc_44CFF7
 0001:0004C006       loc_44D006
 0001:0004C060       loc_44D060
 0001:0004C0A8       loc_44D0A8
 0001:0004C0EF       loc_44D0EF
 0001:0004C109       loc_44D109
 0001:0004C10E       loc_44D10E
 0001:0004C112       loc_44D112
 0001:0004C121       loc_44D121
 0001:0004C125       loc_44D125
 0001:0004C12D       unknown_libname_27
 0001:0004C174       loc_44D174
 0001:0004C183       loc_44D183
 0001:0004C18C       loc_44D18C
 0001:0004C194       AdjustPointer(void *,PMD const &)
 0001:0004C1B5       loc_44D1B5
 0001:0004C1C0       _CallSettingFrame(x,x,x)
 0001:0004C1E7       __NLG_Return
 0001:0004C1FF       _NLG_Continue
 0001:0004C20C       terminate(void)
 0001:0004C254       loc_44D254
 0001:0004C258       loc_44D258
 0001:0004C25F       loc_44D25F
 0001:0004C268       loc_44D268
 0001:0004C26D       sub_44D26D
 0001:0004C2AA       loc_44D2AA
 0001:0004C2AE       loc_44D2AE
 0001:0004C2B5       loc_44D2B5
 0001:0004C2BE       loc_44D2BE
 0001:0004C2C3       __fltin2
 0001:0004C2FB       loc_44D2FB
 0001:0004C314       loc_44D314
 0001:0004C319       loc_44D319
 0001:0004C323       loc_44D323
 0001:0004C329       loc_44D329
 0001:0004C342       __isctype
 0001:0004C360       loc_44D360
 0001:0004C385       loc_44D385
 0001:0004C38E       loc_44D38E
 0001:0004C3AE       loc_44D3AE
 0001:0004C3B2       loc_44D3B2
 0001:0004C3C0       _strcmp
 0001:0004C3D0       dodwords
 0001:0004C400       doneeq
 0001:0004C404       donene
 0001:0004C40C       dopartial
 0001:0004C428       doword
 0001:0004C444       ___crtLCMapStringA
 0001:0004C498       loc_44D498
 0001:0004C4BA       loc_44D4BA
 0001:0004C4CF       loc_44D4CF
 0001:0004C4F6       loc_44D4F6
 0001:0004C50C       loc_44D50C
 0001:0004C554       loc_44D554
 0001:0004C558       loc_44D558
 0001:0004C567       loc_44D567
 0001:0004C5D2       loc_44D5D2
 0001:0004C5D4       loc_44D5D4
 0001:0004C5E6       loc_44D5E6
 0001:0004C608       loc_44D608
 0001:0004C60C       loc_44D60C
 0001:0004C61A       loc_44D61A
 0001:0004C641       loc_44D641
 0001:0004C647       loc_44D647
 0001:0004C661       loc_44D661
 0001:0004C668       _strncnt
 0001:0004C678       loc_44D678
 0001:0004C685       loc_44D685
 0001:0004C690       loc_44D690
 0001:0004C6A0       __strcmpi
 0001:0004C6BC       chk_null
 0001:0004C6EE       done_0
 0001:0004C6F3       notclocale
 0001:0004C707       do_lock
 0001:0004C71C       end_lock
 0001:0004C724       chk_null2
 0001:0004C74F       done2
 0001:0004C75F       do_unlock
 0001:0004C769       end_unlock
 0001:0004C76B       doret
 0001:0004C770       __aulldiv
 0001:0004C792       loc_44D792
 0001:0004C7A0       loc_44D7A0
 0001:0004C7CE       loc_44D7CE
 0001:0004C7CF       loc_44D7CF
 0001:0004C7D3       loc_44D7D3
 0001:0004C7E0       __aullrem
 0001:0004C801       loc_44D801
 0001:0004C80F       loc_44D80F
 0001:0004C83A       loc_44D83A
 0001:0004C842       loc_44D842
 0001:0004C851       loc_44D851
 0001:0004C855       ___sbh_heap_init
 0001:0004C872       loc_44D872
 0001:0004C89D       ___sbh_find_block
 0001:0004C8AD       loc_44D8AD
 0001:0004C8C5       loc_44D8C5
 0001:0004C8C7       locret_44D8C7
 0001:0004C8C8       sub_44D8C8
 0001:0004C92C       loc_44D92C
 0001:0004C957       loc_44D957
 0001:0004C978       loc_44D978
 0001:0004C980       loc_44D980
 0001:0004C983       loc_44D983
 0001:0004C99E       loc_44D99E
 0001:0004C9AC       loc_44D9AC
 0001:0004C9D1       loc_44D9D1
 0001:0004C9E3       loc_44D9E3
 0001:0004CA13       loc_44DA13
 0001:0004CA32       loc_44DA32
 0001:0004CA4A       loc_44DA4A
 0001:0004CA4F       loc_44DA4F
 0001:0004CA52       loc_44DA52
 0001:0004CA60       loc_44DA60
 0001:0004CAA7       loc_44DAA7
 0001:0004CAB8       loc_44DAB8
 0001:0004CACE       loc_44DACE
 0001:0004CAE1       loc_44DAE1
 0001:0004CB6F       loc_44DB6F
 0001:0004CBD4       loc_44DBD4
 0001:0004CBDE       loc_44DBDE
 0001:0004CBEC       loc_44DBEC
 0001:0004CBF1       ___sbh_alloc_block
 0001:0004CC31       loc_44DC31
 0001:0004CC41       loc_44DC41
 0001:0004CC4F       loc_44DC4F
 0001:0004CC68       loc_44DC68
 0001:0004CC6F       loc_44DC6F
 0001:0004CC89       loc_44DC89
 0001:0004CC8B       loc_44DC8B
 0001:0004CC8D       loc_44DC8D
 0001:0004CCA0       loc_44DCA0
 0001:0004CCA3       loc_44DCA3
 0001:0004CCA7       loc_44DCA7
 0001:0004CCB9       loc_44DCB9
 0001:0004CCBB       loc_44DCBB
 0001:0004CCCB       loc_44DCCB
 0001:0004CCDF       loc_44DCDF
 0001:0004CCE6       loc_44DCE6
 0001:0004CD0D       loc_44DD0D
 0001:0004CD2A       loc_44DD2A
 0001:0004CD41       loc_44DD41
 0001:0004CD44       loc_44DD44
 0001:0004CD6D       loc_44DD6D
 0001:0004CD76       loc_44DD76
 0001:0004CD93       loc_44DD93
 0001:0004CDD3       loc_44DDD3
 0001:0004CE01       loc_44DE01
 0001:0004CE04       loc_44DE04
 0001:0004CE64       loc_44DE64
 0001:0004CE76       loc_44DE76
 0001:0004CE8F       loc_44DE8F
 0001:0004CEA5       loc_44DEA5
 0001:0004CEA8       loc_44DEA8
 0001:0004CEB4       loc_44DEB4
 0001:0004CEB7       loc_44DEB7
 0001:0004CEED       loc_44DEED
 0001:0004CEF5       loc_44DEF5
 0001:0004CEFA       ___sbh_alloc_new_region
 0001:0004CF3D       loc_44DF3D
 0001:0004CF8D       loc_44DF8D
 0001:0004CF91       loc_44DF91
 0001:0004CFA8       loc_44DFA8
 0001:0004CFAB       ___sbh_alloc_new_group
 0001:0004CFBD       loc_44DFBD
 0001:0004CFC6       loc_44DFC6
 0001:0004CFDB       loc_44DFDB
 0001:0004D00E       loc_44E00E
 0001:0004D01B       loc_44E01B
 0001:0004D054       loc_44E054
 0001:0004D091       loc_44E091
 0001:0004D0A1       loc_44E0A1
 0001:0004D0A6       ___sbh_resize_block
 0001:0004D11D       loc_44E11D
 0001:0004D149       loc_44E149
 0001:0004D16D       loc_44E16D
 0001:0004D1A7       loc_44E1A7
 0001:0004D1F3       loc_44E1F3
 0001:0004D200       loc_44E200
 0001:0004D216       loc_44E216
 0001:0004D225       loc_44E225
 0001:0004D229       loc_44E229
 0001:0004D23B       loc_44E23B
 0001:0004D23E       loc_44E23E
 0001:0004D24D       loc_44E24D
 0001:0004D254       loc_44E254
 0001:0004D27F       loc_44E27F
 0001:0004D298       loc_44E298
 0001:0004D2C3       loc_44E2C3
 0001:0004D2E4       loc_44E2E4
 0001:0004D2E7       loc_44E2E7
 0001:0004D30E       loc_44E30E
 0001:0004D355       loc_44E355
 0001:0004D362       loc_44E362
 0001:0004D378       loc_44E378
 0001:0004D387       loc_44E387
 0001:0004D38B       loc_44E38B
 0001:0004D394       loc_44E394
 0001:0004D397       loc_44E397
 0001:0004D39C       sub_44E39C
 0001:0004D3B0       loc_44E3B0
 0001:0004D3CD       loc_44E3CD
 0001:0004D41C       loc_44E41C
 0001:0004D42C       loc_44E42C
 0001:0004D441       loc_44E441
 0001:0004D463       loc_44E463
 0001:0004D48C       loc_44E48C
 0001:0004D4B0       loc_44E4B0
 0001:0004D4B4       loc_44E4B4
 0001:0004D4C2       loc_44E4C2
 0001:0004D4D9       loc_44E4D9
 0001:0004D4DB       loc_44E4DB
 0001:0004D4E0       sub_44E4E0
 0001:0004D505       loc_44E505
 0001:0004D52D       loc_44E52D
 0001:0004D536       sub_44E536
 0001:0004D543       loc_44E543
 0001:0004D55C       loc_44E55C
 0001:0004D592       loc_44E592
 0001:0004D595       loc_44E595
 0001:0004D59D       loc_44E59D
 0001:0004D5AA       loc_44E5AA
 0001:0004D5C1       loc_44E5C1
 0001:0004D5D2       loc_44E5D2
 0001:0004D5E1       loc_44E5E1
 0001:0004D5F3       loc_44E5F3
 0001:0004D5F8       sub_44E5F8
 0001:0004D604       loc_44E604
 0001:0004D60E       loc_44E60E
 0001:0004D616       loc_44E616
 0001:0004D64B       loc_44E64B
 0001:0004D64F       sub_44E64F
 0001:0004D693       locret_44E693
 0001:0004D694       sub_44E694
 0001:0004D6A2       loc_44E6A2
 0001:0004D6CD       loc_44E6CD
 0001:0004D6F0       loc_44E6F0
 0001:0004D707       loc_44E707
 0001:0004D70A       loc_44E70A
 0001:0004D71D       loc_44E71D
 0001:0004D73C       loc_44E73C
 0001:0004D74D       loc_44E74D
 0001:0004D750       loc_44E750
 0001:0004D75F       loc_44E75F
 0001:0004D76F       loc_44E76F
 0001:0004D776       loc_44E776
 0001:0004D782       loc_44E782
 0001:0004D78E       loc_44E78E
 0001:0004D7AC       loc_44E7AC
 0001:0004D7BD       loc_44E7BD
 0001:0004D7FA       loc_44E7FA
 0001:0004D824       loc_44E824
 0001:0004D830       loc_44E830
 0001:0004D83E       loc_44E83E
 0001:0004D840       loc_44E840
 0001:0004D863       loc_44E863
 0001:0004D895       loc_44E895
 0001:0004D897       loc_44E897
 0001:0004D89C       sub_44E89C
 0001:0004D8D0       loc_44E8D0
 0001:0004D8D9       loc_44E8D9
 0001:0004D8E1       loc_44E8E1
 0001:0004D8EA       loc_44E8EA
 0001:0004D8F1       loc_44E8F1
 0001:0004D8FD       loc_44E8FD
 0001:0004D906       loc_44E906
 0001:0004D914       loc_44E914
 0001:0004D920       loc_44E920
 0001:0004D927       loc_44E927
 0001:0004D92C       loc_44E92C
 0001:0004D934       loc_44E934
 0001:0004D937       loc_44E937
 0001:0004D94F       loc_44E94F
 0001:0004D958       loc_44E958
 0001:0004D969       loc_44E969
 0001:0004D972       loc_44E972
 0001:0004D979       loc_44E979
 0001:0004D989       loc_44E989
 0001:0004D990       loc_44E990
 0001:0004D9A1       loc_44E9A1
 0001:0004D9AA       loc_44E9AA
 0001:0004D9AF       loc_44E9AF
 0001:0004D9B9       loc_44E9B9
 0001:0004D9BB       loc_44E9BB
 0001:0004D9C0       sub_44E9C0
 0001:0004D9FA       loc_44E9FA
 0001:0004DA0F       loc_44EA0F
 0001:0004DA1B       loc_44EA1B
 0001:0004DA1D       loc_44EA1D
 0001:0004DA40       loc_44EA40
 0001:0004DA47       loc_44EA47
 0001:0004DA4C       loc_44EA4C
 0001:0004DA55       loc_44EA55
 0001:0004DA5A       loc_44EA5A
 0001:0004DA61       loc_44EA61
 0001:0004DA69       __callnewh
 0001:0004DA81       loc_44EA81
 0001:0004DA84       sub_44EA84
 0001:0004DAB8       loc_44EAB8
 0001:0004DAC5       loc_44EAC5
 0001:0004DAE7       loc_44EAE7
 0001:0004DAE9       loc_44EAE9
 0001:0004DB07       loc_44EB07
 0001:0004DB24       loc_44EB24
 0001:0004DB4C       loc_44EB4C
 0001:0004DB55       loc_44EB55
 0001:0004DB5E       loc_44EB5E
 0001:0004DB67       loc_44EB67
 0001:0004DB70       loc_44EB70
 0001:0004DB90       loc_44EB90
 0001:0004DB98       loc_44EB98
 0001:0004DBA7       loc_44EBA7
 0001:0004DBB0       loc_44EBB0
 0001:0004DBD3       loc_44EBD3
 0001:0004DBE8       loc_44EBE8
 0001:0004DC08       loc_44EC08
 0001:0004DC11       loc_44EC11
 0001:0004DC1A       loc_44EC1A
 0001:0004DC33       loc_44EC33
 0001:0004DC37       loc_44EC37
 0001:0004DC64       loc_44EC64
 0001:0004DC7C       loc_44EC7C
 0001:0004DCC5       loc_44ECC5
 0001:0004DCD3       loc_44ECD3
 0001:0004DCFB       loc_44ECFB
 0001:0004DD04       loc_44ED04
 0001:0004DD1D       loc_44ED1D
 0001:0004DD27       loc_44ED27
 0001:0004DD4A       loc_44ED4A
 0001:0004DD55       loc_44ED55
 0001:0004DD86       loc_44ED86
 0001:0004DD9C       loc_44ED9C
 0001:0004DDAF       loc_44EDAF
 0001:0004DDBD       loc_44EDBD
 0001:0004DDEE       loc_44EDEE
 0001:0004DDFD       loc_44EDFD
 0001:0004DE0B       loc_44EE0B
 0001:0004DE1B       loc_44EE1B
 0001:0004DE23       loc_44EE23
 0001:0004DE49       loc_44EE49
 0001:0004DE50       loc_44EE50
 0001:0004DE96       loc_44EE96
 0001:0004DEA7       loc_44EEA7
 0001:0004DEB4       loc_44EEB4
 0001:0004DEB5       loc_44EEB5
 0001:0004DEC0       loc_44EEC0
 0001:0004DEFF       loc_44EEFF
 0001:0004DF08       loc_44EF08
 0001:0004DF15       loc_44EF15
 0001:0004DF17       loc_44EF17
 0001:0004DF26       loc_44EF26
 0001:0004DF2D       loc_44EF2D
 0001:0004DF34       loc_44EF34
 0001:0004DF3B       loc_44EF3B
 0001:0004DF5D       loc_44EF5D
 0001:0004DF6F       loc_44EF6F
 0001:0004DF88       loc_44EF88
 0001:0004DF8D       loc_44EF8D
 0001:0004DF99       loc_44EF99
 0001:0004DF9D       loc_44EF9D
 0001:0004DFA4       loc_44EFA4
 0001:0004DFB6       loc_44EFB6
 0001:0004DFCF       loc_44EFCF
 0001:0004DFD2       loc_44EFD2
 0001:0004DFDD       loc_44EFDD
 0001:0004DFEF       loc_44EFEF
 0001:0004DFF7       loc_44EFF7
 0001:0004E007       loc_44F007
 0001:0004E01A       loc_44F01A
 0001:0004E020       loc_44F020
 0001:0004E02A       loc_44F02A
 0001:0004E039       loc_44F039
 0001:0004E04A       loc_44F04A
 0001:0004E056       loc_44F056
 0001:0004E05C       loc_44F05C
 0001:0004E06E       loc_44F06E
 0001:0004E0A3       loc_44F0A3
 0001:0004E0AD       loc_44F0AD
 0001:0004E0CB       loc_44F0CB
 0001:0004E0D5       loc_44F0D5
 0001:0004E0D8       loc_44F0D8
 0001:0004E0F5       loc_44F0F5
 0001:0004E100       loc_44F100
 0001:0004E109       loc_44F109
 0001:0004E110       loc_44F110
 0001:0004E130       loc_44F130
 0001:0004E162       loc_44F162
 0001:0004E177       loc_44F177
 0001:0004E1A9       loc_44F1A9
 0001:0004E1BE       loc_44F1BE
 0001:0004E1D6       loc_44F1D6
 0001:0004E1E9       loc_44F1E9
 0001:0004E1FA       loc_44F1FA
 0001:0004E202       off_44F202
 0001:0004E222       _write_char
 0001:0004E23B       loc_44F23B
 0001:0004E246       loc_44F246
 0001:0004E253       loc_44F253
 0001:0004E257       _write_multi_char
 0001:0004E268       loc_44F268
 0001:0004E285       loc_44F285
 0001:0004E288       _write_string
 0001:0004E29E       loc_44F29E
 0001:0004E2BC       loc_44F2BC
 0001:0004E2C0       _get_int_arg
 0001:0004E2CD       _get_int64_arg
 0001:0004E2DD       _get_short_arg
 0001:0004E2EB       sub_44F2EB
 0001:0004E329       loc_44F329
 0001:0004E334       loc_44F334
 0001:0004E336       loc_44F336
 0001:0004E375       loc_44F375
 0001:0004E37F       loc_44F37F
 0001:0004E384       loc_44F384
 0001:0004E38D       loc_44F38D
 0001:0004E3C1       loc_44F3C1
 0001:0004E3C7       loc_44F3C7
 0001:0004E3D3       loc_44F3D3
 0001:0004E3D8       loc_44F3D8
 0001:0004E3EA       loc_44F3EA
 0001:0004E408       loc_44F408
 0001:0004E40D       loc_44F40D
 0001:0004E416       loc_44F416
 0001:0004E419       loc_44F419
 0001:0004E428       __fcloseall
 0001:0004E440       loc_44F440
 0001:0004E464       loc_44F464
 0001:0004E492       loc_44F492
 0001:0004E49C       loc_44F49C
 0001:0004E4A9       __fflush_lk
 0001:0004E4BE       loc_44F4BE
 0001:0004E4D3       loc_44F4D3
 0001:0004E4D7       __flush
 0001:0004E51D       loc_44F51D
 0001:0004E524       loc_44F524
 0001:0004E533       sub_44F533
 0001:0004E53C       _flsall
 0001:0004E555       loc_44F555
 0001:0004E596       loc_44F596
 0001:0004E5B0       loc_44F5B0
 0001:0004E5C0       loc_44F5C0
 0001:0004E5C9       loc_44F5C9
 0001:0004E5DC       loc_44F5DC
 0001:0004E5E0       __filbuf
 0001:0004E606       loc_44F606
 0001:0004E61A       loc_44F61A
 0001:0004E61F       loc_44F61F
 0001:0004E664       loc_44F664
 0001:0004E669       loc_44F669
 0001:0004E67B       loc_44F67B
 0001:0004E698       loc_44F698
 0001:0004E6A6       loc_44F6A6
 0001:0004E6B7       loc_44F6B7
 0001:0004E6C0       __strnicmp
 0001:0004E6EC       lupe
 0001:0004E704       skip1
 0001:0004E70E       skip2
 0001:0004E715       eject
 0001:0004E71F       differ
 0001:0004E731       notclocale_0
 0001:0004E745       do_lock_0
 0001:0004E75E       end_lock_0
 0001:0004E764       lupe2
 0001:0004E78F       eject2
 0001:0004E795       differ2
 0001:0004E79E       toend2
 0001:0004E7AC       do_unlock_0
 0001:0004E7BA       end_unlock_0
 0001:0004E7C1       _rt_probe_read4(x)
 0001:0004E7F8       loc_44F7F8
 0001:0004E80C       loc_44F80C
 0001:0004E811       loc_44F811
 0001:0004E826       __input
 0001:0004E850       loc_44F850
 0001:0004E855       loc_44F855
 0001:0004E86D       loc_44F86D
 0001:0004E87C       loc_44F87C
 0001:0004E8A4       loc_44F8A4
 0001:0004E8B6       loc_44F8B6
 0001:0004E8ED       loc_44F8ED
 0001:0004E90A       loc_44F90A
 0001:0004E919       loc_44F919
 0001:0004E92F       loc_44F92F
 0001:0004E94F       loc_44F94F
 0001:0004E96D       loc_44F96D
 0001:0004E972       loc_44F972
 0001:0004E981       loc_44F981
 0001:0004E986       loc_44F986
 0001:0004E989       loc_44F989
 0001:0004E98E       loc_44F98E
 0001:0004E994       loc_44F994
 0001:0004E9B9       loc_44F9B9
 0001:0004E9D3       loc_44F9D3
 0001:0004E9D7       loc_44F9D7
 0001:0004EA01       loc_44FA01
 0001:0004EA0C       loc_44FA0C
 0001:0004EA10       loc_44FA10
 0001:0004EA20       loc_44FA20
 0001:0004EA6C       loc_44FA6C
 0001:0004EA6F       loc_44FA6F
 0001:0004EA84       loc_44FA84
 0001:0004EAA0       loc_44FAA0
 0001:0004EAA5       loc_44FAA5
 0001:0004EABC       loc_44FABC
 0001:0004EABF       loc_44FABF
 0001:0004EACE       loc_44FACE
 0001:0004EAD5       loc_44FAD5
 0001:0004EAEA       loc_44FAEA
 0001:0004EAF5       loc_44FAF5
 0001:0004EB1A       loc_44FB1A
 0001:0004EB43       loc_44FB43
 0001:0004EB58       loc_44FB58
 0001:0004EB63       loc_44FB63
 0001:0004EB88       loc_44FB88
 0001:0004EBA0       loc_44FBA0
 0001:0004EBC7       loc_44FBC7
 0001:0004EBCC       loc_44FBCC
 0001:0004EBDB       loc_44FBDB
 0001:0004EBEA       loc_44FBEA
 0001:0004EBFF       loc_44FBFF
 0001:0004EC0A       loc_44FC0A
 0001:0004EC20       loc_44FC20
 0001:0004EC64       loc_44FC64
 0001:0004EC73       loc_44FC73
 0001:0004EC7D       loc_44FC7D
 0001:0004EC87       loc_44FC87
 0001:0004ECB1       loc_44FCB1
 0001:0004ECD5       loc_44FCD5
 0001:0004ECDF       loc_44FCDF
 0001:0004ECF9       loc_44FCF9
 0001:0004ECFE       loc_44FCFE
 0001:0004ED0F       loc_44FD0F
 0001:0004ED20       loc_44FD20
 0001:0004ED52       loc_44FD52
 0001:0004ED58       loc_44FD58
 0001:0004ED6E       loc_44FD6E
 0001:0004ED83       loc_44FD83
 0001:0004ED8D       loc_44FD8D
 0001:0004ED92       loc_44FD92
 0001:0004ED96       loc_44FD96
 0001:0004EDBA       loc_44FDBA
 0001:0004EDBD       loc_44FDBD
 0001:0004EDDC       loc_44FDDC
 0001:0004EDE0       loc_44FDE0
 0001:0004EDED       loc_44FDED
 0001:0004EE05       loc_44FE05
 0001:0004EE09       loc_44FE09
 0001:0004EE22       loc_44FE22
 0001:0004EE34       loc_44FE34
 0001:0004EE4B       loc_44FE4B
 0001:0004EE5F       loc_44FE5F
 0001:0004EEBB       loc_44FEBB
 0001:0004EEDC       loc_44FEDC
 0001:0004EEDF       loc_44FEDF
 0001:0004EEE7       loc_44FEE7
 0001:0004EEEF       loc_44FEEF
 0001:0004EEFB       loc_44FEFB
 0001:0004EF2D       loc_44FF2D
 0001:0004EF35       loc_44FF35
 0001:0004EF39       loc_44FF39
 0001:0004EF47       loc_44FF47
 0001:0004EF4C       loc_44FF4C
 0001:0004EF5D       loc_44FF5D
 0001:0004EF6B       loc_44FF6B
 0001:0004EF6E       loc_44FF6E
 0001:0004EF82       loc_44FF82
 0001:0004EF9F       loc_44FF9F
 0001:0004EFAC       loc_44FFAC
 0001:0004EFD6       loc_44FFD6
 0001:0004EFEB       loc_44FFEB
 0001:0004EFF6       loc_44FFF6
 0001:0004F007       loc_450007
 0001:0004F014       loc_450014
 0001:0004F023       loc_450023
 0001:0004F029       loc_450029
 0001:0004F041       loc_450041
 0001:0004F057       loc_450057
 0001:0004F065       loc_450065
 0001:0004F087       loc_450087
 0001:0004F091       loc_450091
 0001:0004F0B0       loc_4500B0
 0001:0004F0BB       loc_4500BB
 0001:0004F0CE       loc_4500CE
 0001:0004F0D5       loc_4500D5
 0001:0004F0ED       loc_4500ED
 0001:0004F0FA       loc_4500FA
 0001:0004F10D       loc_45010D
 0001:0004F11F       loc_45011F
 0001:0004F135       loc_450135
 0001:0004F143       loc_450143
 0001:0004F14B       loc_45014B
 0001:0004F154       loc_450154
 0001:0004F167       loc_450167
 0001:0004F17D       loc_45017D
 0001:0004F18A       loc_45018A
 0001:0004F18D       loc_45018D
 0001:0004F198       loc_450198
 0001:0004F1DA       loc_4501DA
 0001:0004F1F0       loc_4501F0
 0001:0004F1FC       loc_4501FC
 0001:0004F207       loc_450207
 0001:0004F20C       loc_45020C
 0001:0004F215       loc_450215
 0001:0004F22C       loc_45022C
 0001:0004F232       loc_450232
 0001:0004F243       loc_450243
 0001:0004F246       loc_450246
 0001:0004F24B       __hextodec
 0001:0004F265       loc_450265
 0001:0004F274       loc_450274
 0001:0004F27E       loc_45027E
 0001:0004F282       _fgetc
 0001:0004F294       loc_450294
 0001:0004F29C       __un_inc
 0001:0004F2B2       locret_4502B2
 0001:0004F2B3       __whiteout
 0001:0004F2B9       loc_4502B9
 0001:0004F2E0       _strpbrk
 0001:0004F2F4       listnext
 0001:0004F301       listdone
 0001:0004F304       dstnext
 0001:0004F314       dstdone
 0001:0004F320       __strrev
 0001:0004F33A       lupe_0
 0001:0004F34A       done_1
 0001:0004F350       _strspn
 0001:0004F364       listnext_0
 0001:0004F371       listdone_0
 0001:0004F378       dstnext_0
 0001:0004F386       dstdone_0
 0001:0004F390       _strcspn
 0001:0004F3A4       listnext_1
 0001:0004F3B1       listdone_1
 0001:0004F3B8       dstnext_1
 0001:0004F3C6       dstdone_1
 0001:0004F3CE       __flsbuf
 0001:0004F406       loc_450406
 0001:0004F42E       loc_45042E
 0001:0004F439       loc_450439
 0001:0004F440       loc_450440
 0001:0004F470       loc_450470
 0001:0004F48E       loc_45048E
 0001:0004F493       loc_450493
 0001:0004F4A6       loc_4504A6
 0001:0004F4B0       loc_4504B0
 0001:0004F4C4       loc_4504C4
 0001:0004F4D0       loc_4504D0
 0001:0004F4DA       loc_4504DA
 0001:0004F4DF       loc_4504DF
 0001:0004F4E2       loc_4504E2
 0001:0004F4E6       ___crtGetStringTypeA
 0001:0004F533       loc_450533
 0001:0004F550       loc_450550
 0001:0004F555       loc_450555
 0001:0004F566       loc_450566
 0001:0004F57E       loc_45057E
 0001:0004F594       loc_450594
 0001:0004F5DF       loc_4505DF
 0001:0004F5E3       loc_4505E3
 0001:0004F5EA       loc_4505EA
 0001:0004F61B       loc_45061B
 0001:0004F61D       loc_45061D
 0001:0004F62F       __CxxUnhandledExceptionFilter(_EXCEPTION_POINTERS *)
 0001:0004F652       loc_450652
 0001:0004F66F       loc_45066F
 0001:0004F671       loc_450671
 0001:0004F693       ___loctotime_t
 0001:0004F6D2       loc_4506D2
 0001:0004F745       loc_450745
 0001:0004F74B       loc_45074B
 0001:0004F74F       loc_45074F
 0001:0004F752       loc_450752
 0001:0004F755       ___tzset
 0001:0004F77A       loc_45077A
 0001:0004F782       locret_450782
 0001:0004F783       __tzset_lk
 0001:0004F811       loc_450811
 0001:0004F835       loc_450835
 0001:0004F841       loc_450841
 0001:0004F87D       loc_45087D
 0001:0004F885       loc_450885
 0001:0004F8C1       loc_4508C1
 0001:0004F8E4       loc_4508E4
 0001:0004F943       loc_450943
 0001:0004F95A       loc_45095A
 0001:0004F968       loc_450968
 0001:0004F96B       loc_45096B
 0001:0004F989       loc_450989
 0001:0004F996       loc_450996
 0001:0004F9B1       loc_4509B1
 0001:0004F9BE       loc_4509BE
 0001:0004F9CC       loc_4509CC
 0001:0004F9F4       loc_4509F4
 0001:0004F9FE       loc_4509FE
 0001:0004FA05       loc_450A05
 0001:0004FA0A       __isindst
 0001:0004FA2B       __isindst_0
 0001:0004FA38       loc_450A38
 0001:0004FA3F       loc_450A3F
 0001:0004FA5D       loc_450A5D
 0001:0004FAAF       loc_450AAF
 0001:0004FAC3       loc_450AC3
 0001:0004FB12       loc_450B12
 0001:0004FB1D       loc_450B1D
 0001:0004FB35       loc_450B35
 0001:0004FB5F       loc_450B5F
 0001:0004FB89       loc_450B89
 0001:0004FB8B       loc_450B8B
 0001:0004FB8F       loc_450B8F
 0001:0004FBA3       loc_450BA3
 0001:0004FBC6       loc_450BC6
 0001:0004FBCA       loc_450BCA
 0001:0004FBD7       _cvtdate
 0001:0004FC02       loc_450C02
 0001:0004FC0B       loc_450C0B
 0001:0004FC45       loc_450C45
 0001:0004FC4F       loc_450C4F
 0001:0004FC63       loc_450C63
 0001:0004FC69       loc_450C69
 0001:0004FC72       loc_450C72
 0001:0004FC83       loc_450C83
 0001:0004FC8A       loc_450C8A
 0001:0004FC8D       loc_450C8D
 0001:0004FCBE       loc_450CBE
 0001:0004FCF6       loc_450CF6
 0001:0004FD07       loc_450D07
 0001:0004FD0D       loc_450D0D
 0001:0004FD13       loc_450D13
 0001:0004FD17       __ismbblead
 0001:0004FD28       _x_ismbbtype
 0001:0004FD4E       loc_450D4E
 0001:0004FD50       loc_450D50
 0001:0004FD55       loc_450D55
 0001:0004FD59       ___crtMessageBoxA
 0001:0004FDA8       loc_450DA8
 0001:0004FDC7       loc_450DC7
 0001:0004FDDA       loc_450DDA
 0001:0004FDDE       loc_450DDE
 0001:0004FDE2       __control87
 0001:0004FE17       __controlfp
 0001:0004FE2D       __abstract_cw
 0001:0004FE3E       loc_450E3E
 0001:0004FE45       loc_450E45
 0001:0004FE4C       loc_450E4C
 0001:0004FE53       loc_450E53
 0001:0004FE5A       loc_450E5A
 0001:0004FE64       loc_450E64
 0001:0004FE95       loc_450E95
 0001:0004FE99       loc_450E99
 0001:0004FE9C       loc_450E9C
 0001:0004FEAC       loc_450EAC
 0001:0004FEB1       loc_450EB1
 0001:0004FEBE       locret_450EBE
 0001:0004FEBF       __hw_cw
 0001:0004FECF       loc_450ECF
 0001:0004FED6       loc_450ED6
 0001:0004FEDD       loc_450EDD
 0001:0004FEE4       loc_450EE4
 0001:0004FEEB       loc_450EEB
 0001:0004FEF5       loc_450EF5
 0001:0004FF1A       loc_450F1A
 0001:0004FF1F       loc_450F1F
 0001:0004FF22       loc_450F22
 0001:0004FF38       loc_450F38
 0001:0004FF3A       loc_450F3A
 0001:0004FF47       locret_450F47
 0001:0004FF48       _tolower
 0001:0004FF66       loc_450F66
 0001:0004FF90       loc_450F90
 0001:0004FFAC       loc_450FAC
 0001:0004FFAF       loc_450FAF
 0001:0004FFB5       loc_450FB5
 0001:0004FFB7       _tolower_0
 0001:0004FFE4       loc_450FE4
 0001:00050006       loc_451006
 0001:00050010       loc_451010
 0001:00050014       loc_451014
 0001:00050018       loc_451018
 0001:0005003C       loc_45103C
 0001:00050045       loc_451045
 0001:00050070       loc_451070
 0001:0005007D       loc_45107D
 0001:00050082       __ZeroTail
 0001:000500B4       loc_4510B4
 0001:000500C2       loc_4510C2
 0001:000500C7       loc_4510C7
 0001:000500CB       __IncMan
 0001:00050104       loc_451104
 0001:0005011D       loc_45111D
 0001:00050121       __RoundMan
 0001:00050182       loc_451182
 0001:00050185       loc_451185
 0001:000501A5       loc_4511A5
 0001:000501AD       __CopyMan
 0001:000501BB       loc_4511BB
 0001:000501C8       __FillZeroMan
 0001:000501D4       __IsZeroMan
 0001:000501DA       loc_4511DA
 0001:000501EC       loc_4511EC
 0001:000501EF       __ShrMan
 0001:00050225       loc_451225
 0001:00050257       loc_451257
 0001:0005026A       loc_45126A
 0001:00050271       loc_451271
 0001:0005027C       __ld12cvt
 0001:000502E1       loc_4512E1
 0001:000502E3       loc_4512E3
 0001:000502E9       loc_4512E9
 0001:0005030A       loc_45130A
 0001:00050322       loc_451322
 0001:0005035E       loc_45135E
 0001:00050365       loc_451365
 0001:00050391       loc_451391
 0001:000503A8       loc_4513A8
 0001:000503AA       loc_4513AA
 0001:000503D9       loc_4513D9
 0001:000503E3       loc_4513E3
 0001:000503E8       sub_4513E8
 0001:000503FE       sub_4513FE
 0001:00050414       sub_451414
 0001:00050441       sub_451441
 0001:0005046E       __fptostr
 0001:00050491       loc_451491
 0001:0005049D       loc_45149D
 0001:000504A0       loc_4514A0
 0001:000504AB       loc_4514AB
 0001:000504B7       loc_4514B7
 0001:000504C2       loc_4514C2
 0001:000504C4       loc_4514C4
 0001:000504CE       loc_4514CE
 0001:000504E0       loc_4514E0
 0001:000504E5       __fltout2
 0001:00050541       ___dtold
 0001:00050588       loc_451588
 0001:0005058F       loc_45158F
 0001:000505A7       loc_4515A7
 0001:000505B0       loc_4515B0
 0001:000505C8       loc_4515C8
 0001:000505E9       loc_4515E9
 0001:000505F2       loc_4515F2
 0001:000505F7       __fptrap
 0001:00050600       __87except
 0001:00050631       loc_451631
 0001:00050639       loc_451639
 0001:0005063D       loc_45163D
 0001:00050641       loc_451641
 0001:00050645       loc_451645
 0001:00050647       loc_451647
 0001:00050672       loc_451672
 0001:00050684       loc_451684
 0001:0005069B       loc_45169B
 0001:000506C3       loc_4516C3
 0001:000506CB       loc_4516CB
 0001:000506D0       sub_4516D0
 0001:000506D3       ___crtCompareStringA
 0001:00050723       loc_451723
 0001:00050746       loc_451746
 0001:0005075D       loc_45175D
 0001:00050772       loc_451772
 0001:00050797       loc_451797
 0001:000507AC       loc_4517AC
 0001:000507B9       loc_4517B9
 0001:000507BE       loc_4517BE
 0001:000507C0       loc_4517C0
 0001:000507C6       loc_4517C6
 0001:000507CB       loc_4517CB
 0001:000507D2       loc_4517D2
 0001:000507FD       loc_4517FD
 0001:00050811       loc_451811
 0001:00050817       loc_451817
 0001:0005081B       loc_45181B
 0001:0005082E       loc_45182E
 0001:00050846       loc_451846
 0001:00050851       loc_451851
 0001:0005088A       loc_45188A
 0001:0005088E       loc_45188E
 0001:000508A0       loc_4518A0
 0001:000508F9       loc_4518F9
 0001:000508FD       loc_4518FD
 0001:0005090B       loc_45190B
 0001:0005093C       loc_45193C
 0001:0005093E       loc_45193E
 0001:00050950       _ValidateRead(void const *,uint)
 0001:00050968       loc_451968
 0001:0005096C       _ValidateWrite(void *,uint)
 0001:00050984       loc_451984
 0001:00050988       _ValidateExecute(int (*)(void))
 0001:0005099C       loc_45199C
 0001:000509A0       _abort
 0001:000509B7       ___strgtold12
 0001:000509F2       loc_4519F2
 0001:00050A08       loc_451A08
 0001:00050A0B       loc_451A0B
 0001:00050A0E       loc_451A0E
 0001:00050A21       loc_451A21
 0001:00050A2B       loc_451A2B
 0001:00050A32       loc_451A32
 0001:00050A3A       loc_451A3A
 0001:00050A41       loc_451A41
 0001:00050A5B       loc_451A5B
 0001:00050A67       loc_451A67
 0001:00050A70       loc_451A70
 0001:00050A7D       loc_451A7D
 0001:00050A98       loc_451A98
 0001:00050AB8       loc_451AB8
 0001:00050ABF       loc_451ABF
 0001:00050AC7       loc_451AC7
 0001:00050AD5       loc_451AD5
 0001:00050AEA       loc_451AEA
 0001:00050AF1       loc_451AF1
 0001:00050AF4       loc_451AF4
 0001:00050B0D       loc_451B0D
 0001:00050B1B       loc_451B1B
 0001:00050B35       loc_451B35
 0001:00050B38       loc_451B38
 0001:00050B3D       loc_451B3D
 0001:00050B45       loc_451B45
 0001:00050B4C       loc_451B4C
 0001:00050B58       loc_451B58
 0001:00050B65       loc_451B65
 0001:00050B7E       loc_451B7E
 0001:00050B8C       loc_451B8C
 0001:00050BA7       loc_451BA7
 0001:00050BAC       loc_451BAC
 0001:00050BC3       loc_451BC3
 0001:00050BDF       loc_451BDF
 0001:00050BED       loc_451BED
 0001:00050BF9       loc_451BF9
 0001:00050C09       loc_451C09
 0001:00050C1E       loc_451C1E
 0001:00050C22       loc_451C22
 0001:00050C25       loc_451C25
 0001:00050C2F       loc_451C2F
 0001:00050C43       loc_451C43
 0001:00050C4D       loc_451C4D
 0001:00050C4F       loc_451C4F
 0001:00050C50       loc_451C50
 0001:00050C56       loc_451C56
 0001:00050C5D       loc_451C5D
 0001:00050C79       loc_451C79
 0001:00050C85       loc_451C85
 0001:00050C87       loc_451C87
 0001:00050C8D       loc_451C8D
 0001:00050C91       loc_451C91
 0001:00050C9F       loc_451C9F
 0001:00050CA7       loc_451CA7
 0001:00050CB0       loc_451CB0
 0001:00050CC8       loc_451CC8
 0001:00050CD7       loc_451CD7
 0001:00050CF2       loc_451CF2
 0001:00050CF7       loc_451CF7
 0001:00050CFA       loc_451CFA
 0001:00050D12       loc_451D12
 0001:00050D21       loc_451D21
 0001:00050D2A       loc_451D2A
 0001:00050D2D       loc_451D2D
 0001:00050D2F       loc_451D2F
 0001:00050D4F       loc_451D4F
 0001:00050D5B       loc_451D5B
 0001:00050D5E       loc_451D5E
 0001:00050D68       loc_451D68
 0001:00050D76       loc_451D76
 0001:00050D95       loc_451D95
 0001:00050DA0       loc_451DA0
 0001:00050DA8       loc_451DA8
 0001:00050DB6       loc_451DB6
 0001:00050DC2       loc_451DC2
 0001:00050DDF       loc_451DDF
 0001:00050DEF       loc_451DEF
 0001:00050E0D       loc_451E0D
 0001:00050E17       loc_451E17
 0001:00050E28       loc_451E28
 0001:00050E3D       loc_451E3D
 0001:00050E58       off_451E58
 0001:00050E88       __isatty
 0001:00050E97       loc_451E97
 0001:00050EB1       _wctomb
 0001:00050EE1       loc_451EE1
 0001:00050EFF       loc_451EFF
 0001:00050F02       loc_451F02
 0001:00050F0A       __wctomb_lk
 0001:00050F16       loc_451F16
 0001:00050F31       loc_451F31
 0001:00050F63       loc_451F63
 0001:00050F71       loc_451F71
 0001:00050F73       _fclose
 0001:00050F88       loc_451F88
 0001:00050F9F       loc_451F9F
 0001:00050FA4       __fclose_lk
 0001:00050FD5       loc_451FD5
 0001:00050FE7       loc_451FE7
 0001:00050FF0       __commit
 0001:0005104B       loc_45204B
 0001:0005104D       loc_45204D
 0001:00051058       loc_452058
 0001:00051066       loc_452066
 0001:00051071       loc_452071
 0001:0005107F       loc_45207F
 0001:00051083       __write
 0001:000510D0       loc_4520D0
 0001:000510E8       __write_lk
 0001:00051101       loc_452101
 0001:00051108       loc_452108
 0001:00051138       loc_452138
 0001:00051158       loc_452158
 0001:0005115E       loc_45215E
 0001:0005117D       loc_45217D
 0001:00051192       loc_452192
 0001:000511CE       loc_4521CE
 0001:000511D0       loc_4521D0
 0001:000511FC       loc_4521FC
 0001:00051207       loc_452207
 0001:00051229       loc_452229
 0001:00051234       loc_452234
 0001:0005123D       loc_45223D
 0001:00051242       loc_452242
 0001:00051257       loc_452257
 0001:0005126B       loc_45226B
 0001:0005126E       loc_45226E
 0001:00051273       __read
 0001:000512C0       loc_4522C0
 0001:000512D8       __read_lk
 0001:00051343       loc_452343
 0001:0005137D       loc_45237D
 0001:0005138D       loc_45238D
 0001:00051395       loc_452395
 0001:000513BA       loc_4523BA
 0001:000513BC       loc_4523BC
 0001:000513D4       loc_4523D4
 0001:000513F0       loc_4523F0
 0001:00051405       loc_452405
 0001:0005140E       loc_45240E
 0001:00051436       loc_452436
 0001:00051458       loc_452458
 0001:00051463       loc_452463
 0001:00051468       loc_452468
 0001:0005147D       loc_45247D
 0001:00051480       loc_452480
 0001:00051481       loc_452481
 0001:0005148F       loc_45248F
 0001:0005149F       loc_45249F
 0001:000514A5       loc_4524A5
 0001:000514AA       loc_4524AA
 0001:000514AC       loc_4524AC
 0001:000514B1       __getbuf
 0001:000514DA       loc_4524DA
 0001:000514EB       loc_4524EB
 0001:000514F5       _mbtowc
 0001:00051525       loc_452525
 0001:00051547       loc_452547
 0001:0005154A       loc_45254A
 0001:00051552       __mbtowc_lk
 0001:00051575       loc_452575
 0001:00051577       loc_452577
 0001:0005157B       loc_45257B
 0001:00051591       loc_452591
 0001:00051596       loc_452596
 0001:000515DA       loc_4525DA
 0001:000515E4       loc_4525E4
 0001:000515F4       loc_4525F4
 0001:00051620       __allshl
 0001:00051630       MORE32_0
 0001:0005163A       RETZERO_0
 0001:0005163F       _ungetc
 0001:0005165D       loc_45265D
 0001:0005166A       loc_45266A
 0001:0005167A       loc_45267A
 0001:0005168B       loc_45268B
 0001:0005168E       loc_45268E
 0001:00051691       loc_452691
 0001:00051697       loc_452697
 0001:000516AD       __lseek
 0001:000516FA       loc_4526FA
 0001:00051712       __lseek_lk
 0001:00051731       loc_452731
 0001:00051751       loc_452751
 0001:00051753       loc_452753
 0001:0005175E       loc_45275E
 0001:00051763       loc_452763
 0001:00051782       loc_452782
 0001:00051785       _raise
 0001:000517BC       loc_4527BC
 0001:000517C9       loc_4527C9
 0001:000517D6       loc_4527D6
 0001:000517E3       loc_4527E3
 0001:00051800       loc_452800
 0001:0005180B       loc_45280B
 0001:0005181D       loc_45281D
 0001:00051838       loc_452838
 0001:0005184B       loc_45284B
 0001:00051852       loc_452852
 0001:00051864       loc_452864
 0001:0005187F       loc_45287F
 0001:0005189B       loc_45289B
 0001:000518BB       loc_4528BB
 0001:000518BD       loc_4528BD
 0001:000518CB       loc_4528CB
 0001:000518DC       loc_4528DC
 0001:000518EE       loc_4528EE
 0001:00051900       loc_452900
 0001:00051902       loc_452902
 0001:00051907       _siglookup
 0001:00051924       loc_452924
 0001:00051930       loc_452930
 0001:0005193F       loc_45293F
 0001:00051941       loc_452941
 0001:00051944       ___addl
 0001:0005195A       loc_45295A
 0001:0005195D       loc_45295D
 0001:00051965       ___add_12
 0001:00051997       loc_452997
 0001:000519AF       loc_4529AF
 0001:000519C3       ___shl_12
 0001:000519F1       ___shr_12
 0001:00051A1E       ___mtold12
 0001:00051A45       loc_452A45
 0001:00051A92       loc_452A92
 0001:00051ABF       loc_452ABF
 0001:00051AC4       loc_452AC4
 0001:00051AD9       loc_452AD9
 0001:00051AE5       _$I10_OUTPUT
 0001:00051B47       loc_452B47
 0001:00051B4B       loc_452B4B
 0001:00051B5C       loc_452B5C
 0001:00051B71       loc_452B71
 0001:00051B8A       loc_452B8A
 0001:00051B99       loc_452B99
 0001:00051BB3       loc_452BB3
 0001:00051BC2       loc_452BC2
 0001:00051BD1       loc_452BD1
 0001:00051BDA       loc_452BDA
 0001:00051BDF       loc_452BDF
 0001:00051BF0       loc_452BF0
 0001:00051C51       loc_452C51
 0001:00051C6B       loc_452C6B
 0001:00051C6E       loc_452C6E
 0001:00051C76       loc_452C76
 0001:00051C8C       loc_452C8C
 0001:00051CA9       loc_452CA9
 0001:00051CB6       loc_452CB6
 0001:00051CC6       loc_452CC6
 0001:00051D13       loc_452D13
 0001:00051D20       loc_452D20
 0001:00051D2F       loc_452D2F
 0001:00051D33       loc_452D33
 0001:00051D37       loc_452D37
 0001:00051D39       loc_452D39
 0001:00051D48       loc_452D48
 0001:00051D4B       loc_452D4B
 0001:00051D50       loc_452D50
 0001:00051D5C       loc_452D5C
 0001:00051D60       loc_452D60
 0001:00051D6F       loc_452D6F
 0001:00051D78       ___ld12mul
 0001:00051DE1       loc_452DE1
 0001:00051E03       loc_452E03
 0001:00051E05       loc_452E05
 0001:00051E1B       loc_452E1B
 0001:00051E28       loc_452E28
 0001:00051E38       loc_452E38
 0001:00051E54       loc_452E54
 0001:00051E7F       loc_452E7F
 0001:00051E8C       loc_452E8C
 0001:00051EAA       loc_452EAA
 0001:00051EC8       loc_452EC8
 0001:00051ECF       loc_452ECF
 0001:00051EE8       loc_452EE8
 0001:00051EF1       loc_452EF1
 0001:00051F08       loc_452F08
 0001:00051F1F       loc_452F1F
 0001:00051F46       loc_452F46
 0001:00051F4C       loc_452F4C
 0001:00051F51       loc_452F51
 0001:00051F54       loc_452F54
 0001:00051F72       loc_452F72
 0001:00051F78       loc_452F78
 0001:00051F93       loc_452F93
 0001:00051F98       ___multtenpow12
 0001:00051FC0       loc_452FC0
 0001:00051FCB       loc_452FCB
 0001:00051FD2       loc_452FD2
 0001:00051FFD       loc_452FFD
 0001:0005200A       loc_45300A
 0001:00052011       loc_453011
 0001:00052014       __close
 0001:00052059       loc_453059
 0001:00052071       __close_lk
 0001:0005208D       loc_45308D
 0001:000520A3       loc_4530A3
 0001:000520BF       loc_4530BF
 0001:000520C1       loc_4530C1
 0001:000520EF       loc_4530EF
 0001:000520F1       loc_4530F1
 0001:000520F4       __freebuf
 0001:0005211D       loc_45311D
 0001:0005211F       __free_osfhnd
 0001:0005216D       loc_45316D
 0001:00052172       loc_453172
 0001:00052175       loc_453175
 0001:0005217B       loc_45317B
 0001:00052185       loc_453185
 0001:0005219B       loc_45319B
 0001:0005219E       __get_osfhandle
 0001:000521C9       loc_4531C9
 0001:000521E0       __lock_fhandle
 0001:00052226       loc_453226
 0001:0005222E       loc_45322E
 0001:0005223F       __unlock_fhandle
 0001:00052270       RtlUnwind
 0001:00052276       GetFileTitleA
 0001:0005227C       GetSaveFileNameA
 0001:00052282       GetOpenFileNameA
 0001:00052288       ChooseColorA
 0001:0005228E       WinMain(x,x,x,x)
 0001:000522A6       AfxInitialize(int,ulong)
 0001:000522BE       loc_4532BE
 0001:000522C4       sub_4532C4
 0001:000522DC       loc_4532DC
 0001:00052300       __memicmp
 0001:0005232C       lupe_1
 0001:00052340       skip1_0
 0001:0005234A       skip2_0
 0001:0005234E       dolupe
 0001:00052356       differ_0
 0001:00052368       notclocale_1
 0001:0005237C       do_lock_1
 0001:00052395       end_lock_1
 0001:0005239C       lupe2_0
 0001:000523C0       dolupe2
 0001:000523C5       differ2_0
 0001:000523CE       toend2_0
 0001:000523DC       do_unlock_1
 0001:000523EA       end_unlock_1
 0001:000523F1       ___termcon
 0001:0005240A       loc_45340A
 0001:0005241C       loc_45341C
 0001:0005241E       sub_45341E
 0001:0005244C       loc_45344C
 0001:00052452       sub_453452
 0001:00052467       sub_453467
 0001:0005247F       loc_45347F
 0001:00052494       loc_453494
 0001:000524D5       loc_4534D5
 0001:000524E3       sub_4534E3
 0001:000524FB       loc_4534FB
 0001:00052510       loc_453510
 0001:0005254D       loc_45354D
 0001:0005255B       sub_45355B
 0001:00052569       sub_453569
 0001:00052589       loc_453589
 0001:0005258E       loc_45358E
 0001:00052590       loc_453590
 0001:00052594       sub_453594
 0001:000525AD       loc_4535AD
 0001:000525DB       loc_4535DB
 0001:000525E5       loc_4535E5
 0001:000525F8       loc_4535F8
 0001:00052608       loc_453608
 0001:00052617       loc_453617
 0001:0005261C       loc_45361C
 0001:00052626       loc_453626
 0001:00052645       loc_453645
 0001:0005266D       loc_45366D
 0001:00052691       loc_453691
 0001:0005269A       loc_45369A
 0001:000526B9       loc_4536B9
 0001:000526DD       loc_4536DD
 0001:000526E4       loc_4536E4
 0001:000526ED       loc_4536ED
 0001:0005273D       loc_45373D
 0001:00052784       loc_453784
 0001:000527A1       loc_4537A1
 0001:000527B8       loc_4537B8
 0001:000527C1       loc_4537C1
 0001:000527CF       loc_4537CF
 0001:000527D4       loc_4537D4
 0001:000527DB       loc_4537DB
 0001:000527E5       loc_4537E5
 0001:000527ED       loc_4537ED
 0001:000527F7       loc_4537F7
 0001:00052808       loc_453808
 0001:00052816       loc_453816
 0001:0005284E       loc_45384E
 0001:00052859       loc_453859
 0001:00052870       loc_453870
 0001:00052874       loc_453874
 0001:00052877       loc_453877
 0001:00052880       loc_453880
 0001:00052884       loc_453884
 0001:00052890       loc_453890
 0001:00052894       loc_453894
 0001:00052899       loc_453899
 0001:000528A3       loc_4538A3
 0001:000528B1       loc_4538B1
 0001:000528E1       sub_4538E1
 0001:000528F4       CSimpleException::InitString(void)
 0001:0005291D       CSimpleException::GetErrorMessage(char *,uint,uint *)
 0001:0005292B       loc_45392B
 0001:00052938       loc_453938
 0001:00052952       loc_453952
 0001:00052959       loc_453959
 0001:00052960       sub_453960
 0001:00052979       loc_453979
 0001:00052992       sub_453992
 0001:00052A52       loc_453A52
 0001:00052A5A       loc_453A5A
 0001:00052A6C       loc_453A6C
 0001:00052A8A       loc_453A8A
 0001:00052AA9       loc_453AA9
 0001:00052ABC       loc_453ABC
 0001:00052AC5       loc_453AC5
 0001:00052AD8       sub_453AD8
 0001:00052AEE       loc_453AEE
 0001:00052AF4       sub_453AF4
 0001:00052B56       loc_453B56
 0001:00052B6C       loc_453B6C
 0001:00052B72       loc_453B72
 0001:00052B86       loc_453B86
 0001:00052B8B       loc_453B8B
 0001:00052B9F       loc_453B9F
 0001:00052BB7       loc_453BB7
 0001:00052BCC       loc_453BCC
 0001:00052BCF       sub_453BCF
 0001:00052C49       loc_453C49
 0001:00052C53       loc_453C53
 0001:00052C8D       loc_453C8D
 0001:00052C9C       loc_453C9C
 0001:00052CA7       loc_453CA7
 0001:00052CBB       loc_453CBB
 0001:00052CDF       std::_Ref_count_base::_Get_deleter(type_info const &)
 0001:00052CE4       nullsub_25
 0001:00052CE7       CFileDialog::OnInitDone(void)
 0001:00052D00       nullsub_26
 0001:00052D01       sub_453D01
 0001:00052D61       loc_453D61
 0001:00052D6D       loc_453D6D
 0001:00052D79       loc_453D79
 0001:00052D85       loc_453D85
 0001:00052D92       loc_453D92
 0001:00052D96       loc_453D96
 0001:00052DC0       loc_453DC0
 0001:00052DCC       loc_453DCC
 0001:00052DD6       loc_453DD6
 0001:00052DD9       loc_453DD9
 0001:00052DDF       _AFX_COLOR_STATE::_AFX_COLOR_STATE(void)
 0001:00052DF9       sub_453DF9
 0001:00052E0E       loc_453E0E
 0001:00052E14       nullsub_9
 0001:00052E15       sub_453E15
 0001:00052E1B       CColorDialog::CColorDialog(ulong,ulong,CWnd *)
 0001:00052E84       loc_453E84
 0001:00052E99       loc_453E99
 0001:00052EAB       sub_453EAB
 0001:00052EC1       loc_453EC1
 0001:00052EC7       sub_453EC7
 0001:00052EED       loc_453EED
 0001:00052EF0       loc_453EF0
 0001:00052EF3       sub_453EF3
 0001:00052EF6       sub_453EF6
 0001:00052F11       sub_453F11
 0001:00052F17       sub_453F17
 0001:00052F58       loc_453F58
 0001:00052FC6       loc_453FC6
 0001:00052FE7       loc_453FE7
 0001:00053016       loc_454016
 0001:0005302D       loc_45402D
 0001:00053047       loc_454047
 0001:0005305A       loc_45405A
 0001:0005307B       loc_45407B
 0001:0005307F       loc_45407F
 0001:00053093       loc_454093
 0001:000530A7       loc_4540A7
 0001:000530AE       CCommonDialog::OnOK(void)
 0001:000530C3       loc_4540C3
 0001:000530C5       sub_4540C5
 0001:000530D2       CTime::CTime(int,int,int,int,int,int,int)
 0001:0005311E       CTime::CTime(_SYSTEMTIME const &,int)
 0001:00053136       loc_454136
 0001:00053163       loc_454163
 0001:0005316A       CTime::CTime(_FILETIME const &,int)
 0001:00053196       loc_454196
 0001:0005319B       loc_45419B
 0001:000531AF       loc_4541AF
 0001:000531B6       sub_4541B6
 0001:000531E8       loc_4541E8
 0001:00053256       CTreeCtrl::GetItemImage(_TREEITEM *,int &,int &)
 0001:00053291       locret_454291
 0001:00053295       CTreeCtrl::GetItemState(_TREEITEM *,uint)
 0001:000532CD       CTreeCtrl::ItemHasChildren(_TREEITEM *)
 0001:000532FB       CTreeCtrl::SetItem(_TREEITEM *,uint,char const *,int,int,uint,uint,long)
 0001:00053349       sub_454349
 0001:0005337D       loc_45437D
 0001:0005339E       CSpinButtonCtrl::GetRange(int &,int &)
 0001:000533CA       sub_4543CA
 0001:00053402       CTabCtrl::OnDestroy(void)
 0001:00053432       loc_454432
 0001:0005343C       afxMapHIMAGELIST(int)
 0001:0005348C       loc_45448C
 0001:0005348E       loc_45448E
 0001:0005349C       loc_45449C
 0001:000534AE       sub_4544AE
 0001:000534BB       sub_4544BB
 0001:000534D1       loc_4544D1
 0001:000534D7       sub_4544D7
 0001:00053500       sub_454500
 0001:00053521       loc_454521
 0001:0005352A       sub_45452A
 0001:00053533       loc_454533
 0001:00053540       sub_454540
 0001:0005355B       locret_45455B
 0001:0005355E       sub_45455E
 0001:00053564       CToolTipCtrl::CToolTipCtrl(void)
 0001:0005359D       sub_45459D
 0001:000535B3       loc_4545B3
 0001:000535B9       sub_4545B9
 0001:000535D6       loc_4545D6
 0001:000535D9       loc_4545D9
 0001:00053605       loc_454605
 0001:00053608       loc_454608
 0001:0005360E       CToolTipCtrl::~CToolTipCtrl(void)
 0001:00053655       sub_454655
 0001:0005366A       loc_45466A
 0001:0005366F       CToolTipCtrl::OnAddTool(uint,long)
 0001:000536B8       loc_4546B8
 0001:000536C6       loc_4546C6
 0001:000536E3       CToolTipCtrl::OnDisableModal(uint,long)
 0001:000536FA       CToolTipCtrl::OnEnable(int)
 0001:00053711       CToolTipCtrl::OnWindowFromPoint(uint,long)
 0001:00053752       loc_454752
 0001:0005377C       loc_45477C
 0001:0005377E       loc_45477E
 0001:00053784       CToolTipCtrl::AddTool(CWnd *,char const *,tagRECT const *,uint)
 0001:000537B3       loc_4547B3
 0001:000537D2       unknown_libname_93
 0001:000537F5       loc_4547F5
 0001:000537F8       loc_4547F8
 0001:00053816       loc_454816
 0001:00053820       loc_454820
 0001:00053825       sub_454825
 0001:0005383C       sub_45483C
 0001:00053852       loc_454852
 0001:00053858       sub_454858
 0001:00053885       sub_454885
 0001:0005389C       sub_45489C
 0001:000538B2       loc_4548B2
 0001:000538B8       CStringArray::~CStringArray(void)
 0001:000538F6       sub_4548F6
 0001:00053905       loc_454905
 0001:00053917       locret_454917
 0001:00053918       CStringArray::SetSize(int,int)
 0001:0005392B       loc_45492B
 0001:00053958       loc_454958
 0001:0005397A       loc_45497A
 0001:00053982       loc_454982
 0001:000539A0       loc_4549A0
 0001:000539AE       loc_4549AE
 0001:000539B2       loc_4549B2
 0001:000539D4       loc_4549D4
 0001:000539D9       loc_4549D9
 0001:000539DC       loc_4549DC
 0001:000539E8       loc_4549E8
 0001:00053A2E       loc_454A2E
 0001:00053A35       sub_454A35
 0001:00053A44       loc_454A44
 0001:00053A60       locret_454A60
 0001:00053A61       CStringArray::SetAtGrow(int,char const *)
 0001:00053A79       loc_454A79
 0001:00053A8D       CStringArray::RemoveAt(int,int)
 0001:00053ADC       loc_454ADC
 0001:00053AE9       CStringArray::Serialize(CArchive &)
 0001:00053B0C       loc_454B0C
 0001:00053B21       loc_454B21
 0001:00053B39       loc_454B39
 0001:00053B4C       loc_454B4C
 0001:00053B52       sub_454B52
 0001:00053B69       sub_454B69
 0001:00053B7F       loc_454B7F
 0001:00053B85       sub_454B85
 0001:00053BB2       sub_454BB2
 0001:00053BC5       loc_454BC5
 0001:00053BE5       loc_454BE5
 0001:00053C09       loc_454C09
 0001:00053C11       loc_454C11
 0001:00053C3D       loc_454C3D
 0001:00053C5F       loc_454C5F
 0001:00053C64       loc_454C64
 0001:00053C67       loc_454C67
 0001:00053C73       loc_454C73
 0001:00053CC4       loc_454CC4
 0001:00053CCB       sub_454CCB
 0001:00053CF7       sub_454CF7
 0001:00053D0F       loc_454D0F
 0001:00053D1E       sub_454D1E
 0001:00053D4D       loc_454D4D
 0001:00053D55       CDWordArray::Serialize(CArchive &)
 0001:00053D83       loc_454D83
 0001:00053DA5       loc_454DA5
 0001:00053DAA       sub_454DAA
 0001:00053DC1       sub_454DC1
 0001:00053DD7       loc_454DD7
 0001:00053DDD       sub_454DDD
 0001:00053E0A       sub_454E0A
 0001:00053E1D       loc_454E1D
 0001:00053E3D       loc_454E3D
 0001:00053E5F       loc_454E5F
 0001:00053E67       loc_454E67
 0001:00053E92       loc_454E92
 0001:00053EB4       loc_454EB4
 0001:00053EB9       loc_454EB9
 0001:00053EBC       loc_454EBC
 0001:00053EC8       loc_454EC8
 0001:00053F16       loc_454F16
 0001:00053F1D       CWordArray::Serialize(CArchive &)
 0001:00053F4A       loc_454F4A
 0001:00053F6B       loc_454F6B
 0001:00053F70       sub_454F70
 0001:00053F90       sub_454F90
 0001:00053FA6       locret_454FA6
 0001:00053FA9       sub_454FA9
 0001:00053FBF       loc_454FBF
 0001:00053FC3       loc_454FC3
 0001:00053FCD       CPlex::Create(CPlex * &,uint,uint)
 0001:00053FED       CPlex::FreeDataChain(void)
 0001:00053FF2       loc_454FF2
 0001:00054002       locret_455002
 0001:00054003       sub_455003
 0001:0005402A       sub_45502A
 0001:00054040       loc_455040
 0001:00054046       sub_455046
 0001:0005405B       loc_45505B
 0001:00054071       sub_455071
 0001:0005409A       sub_45509A
 0001:000540C4       loc_4550C4
 0001:000540D2       loc_4550D2
 0001:000540E7       sub_4550E7
 0001:000540FD       locret_4550FD
 0001:00054100       sub_455100
 0001:0005411F       loc_45511F
 0001:0005412C       loc_45512C
 0001:0005412E       loc_45512E
 0001:00054132       CMapPtrToPtr::GetValueAt(void *)
 0001:0005414C       loc_45514C
 0001:00054159       loc_455159
 0001:0005415E       loc_45515E
 0001:00054160       loc_455160
 0001:00054165       sub_455165
 0001:0005418E       loc_45518E
 0001:000541AC       loc_4551AC
 0001:000541B5       sub_4551B5
 0001:000541D2       loc_4551D2
 0001:000541E1       loc_4551E1
 0001:000541F0       loc_4551F0
 0001:000541F2       loc_4551F2
 0001:000541F7       sub_4551F7
 0001:00054210       loc_455210
 0001:0005421E       loc_45521E
 0001:0005423D       loc_45523D
 0001:0005424B       loc_45524B
 0001:0005424C       loc_45524C
 0001:00054269       sub_455269
 0001:00054290       sub_455290
 0001:000542A6       loc_4552A6
 0001:000542AC       sub_4552AC
 0001:000542C2       loc_4552C2
 0001:000542E9       loc_4552E9
 0001:000542F1       sub_4552F1
 0001:00054305       loc_455305
 0001:0005430B       loc_45530B
 0001:0005431B       loc_45531B
 0001:00054322       loc_455322
 0001:0005432F       loc_45532F
 0001:00054343       sub_455343
 0001:0005436C       sub_45536C
 0001:00054399       loc_455399
 0001:000543A7       loc_4553A7
 0001:000543CE       sub_4553CE
 0001:000543DA       loc_4553DA
 0001:000543EC       loc_4553EC
 0001:00054401       loc_455401
 0001:00054419       loc_455419
 0001:0005441D       loc_45541D
 0001:0005441F       loc_45541F
 0001:00054424       sub_455424
 0001:00054442       loc_455442
 0001:00054446       sub_455446
 0001:00054464       loc_455464
 0001:00054468       sub_455468
 0001:00054493       loc_455493
 0001:000544C1       loc_4554C1
 0001:000544CA       sub_4554CA
 0001:000544D2       AfxSetNewHandler(int (*)(uint))
 0001:000544E4       sub_4554E4
 0001:000544EA       loc_4554EA
 0001:00054508       loc_455508
 0001:0005450D       sub_45550D
 0001:00054518       sub_455518
 0001:00054535       loc_455535
 0001:00054545       loc_455545
 0001:00054555       sub_455555
 0001:00054564       loc_455564
 0001:00054570       loc_455570
 0001:00054584       sub_455584
 0001:00054596       loc_455596
 0001:000545A2       loc_4555A2
 0001:000545B6       sub_4555B6
 0001:000545C8       loc_4555C8
 0001:000545D4       loc_4555D4
 0001:000545E8       sub_4555E8
 0001:000545FA       loc_4555FA
 0001:00054606       loc_455606
 0001:00054610       sub_455610
 0001:00054625       loc_455625
 0001:00054632       loc_455632
 0001:0005463C       loc_45563C
 0001:0005464C       loc_45564C
 0001:0005465C       loc_45565C
 0001:0005466C       loc_45566C
 0001:00054679       loc_455679
 0001:0005468D       loc_45568D
 0001:00054692       sub_455692
 0001:000546A0       loc_4556A0
 0001:000546A6       loc_4556A6
 0001:000546B5       loc_4556B5
 0001:000546C4       loc_4556C4
 0001:000546D3       loc_4556D3
 0001:000546DA       sub_4556DA
 0001:00054702       loc_455702
 0001:00054709       loc_455709
 0001:0005470B       sub_45570B
 0001:0005472A       loc_45572A
 0001:0005472E       CString::Empty(void)
 0001:00054741       loc_455741
 0001:0005474B       locret_45574B
 0001:0005474C       CString::CopyBeforeWrite(void)
 0001:00054777       loc_455777
 0001:0005477A       CString::AllocBeforeWrite(int)
 0001:0005478F       loc_45578F
 0001:0005479E       loc_45579E
 0001:000547A3       sub_4557A3
 0001:000547CB       loc_4557CB
 0001:000547CD       sub_4557CD
 0001:000547ED       loc_4557ED
 0001:0005480B       loc_45580B
 0001:00054811       sub_455811
 0001:0005483A       loc_45583A
 0001:0005485B       loc_45585B
 0001:00054863       CString::AssignCopy(int,char const *)
 0001:00054890       sub_455890
 0001:000548B1       loc_4558B1
 0001:000548B7       loc_4558B7
 0001:000548C4       loc_4558C4
 0001:000548D9       loc_4558D9
 0001:000548E0       CString::operator=(char const *)
 0001:000548F0       loc_4558F0
 0001:000548F7       loc_4558F7
 0001:00054907       CString::operator=(ushort const *)
 0001:0005491D       loc_45591D
 0001:0005491F       loc_45591F
 0001:00054948       sub_455948
 0001:00054980       loc_455980
 0001:00054986       sub_455986
 0001:000549EC       sub_4559EC
 0001:00054A15       loc_455A15
 0001:00054A1E       loc_455A1E
 0001:00054A60       sub_455A60
 0001:00054A89       loc_455A89
 0001:00054A92       loc_455A92
 0001:00054AD4       sub_455AD4
 0001:00054B17       loc_455B17
 0001:00054B2D       loc_455B2D
 0001:00054B33       sub_455B33
 0001:00054B43       loc_455B43
 0001:00054B4A       loc_455B4A
 0001:00054B5A       sub_455B5A
 0001:00054B6F       CString::operator+=(CString const &)
 0001:00054B87       sub_455B87
 0001:00054B9F       loc_455B9F
 0001:00054BA9       loc_455BA9
 0001:00054BCF       loc_455BCF
 0001:00054BD6       CString::ReleaseBuffer(int)
 0001:00054BEF       loc_455BEF
 0001:00054BFE       CString::GetBufferSetLength(int)
 0001:00054C1E       sub_455C1E
 0001:00054C2C       sub_455C2C
 0001:00054C4E       loc_455C4E
 0001:00054C53       loc_455C53
 0001:00054C55       loc_455C55
 0001:00054C59       _wcstombsz(char *,ushort const *,uint)
 0001:00054C6F       loc_455C6F
 0001:00054C8C       loc_455C8C
 0001:00054C8F       AfxA2WHelper(ushort *,char const *,int)
 0001:00054CB5       locret_455CB5
 0001:00054CB8       CException::CException(void)
 0001:00054CC2       CException::CException(int)
 0001:00054CCE       CException::Delete(void)
 0001:00054CDF       locret_455CDF
 0001:00054CE0       sub_455CE0
 0001:00054D16       loc_455D16
 0001:00054D23       loc_455D23
 0001:00054D31       locret_455D31
 0001:00054D35       AFX_EXCEPTION_LINK::AFX_EXCEPTION_LINK(void)
 0001:00054D4B       AfxGetExceptionContext(void)
 0001:00054D73       AfxTryCleanup(void)
 0001:00054D8A       loc_455D8A
 0001:00054D91       sub_455D91
 0001:00054DAB       sub_455DAB
 0001:00054DC1       loc_455DC1
 0001:00054DC7       sub_455DC7
 0001:00054DE6       CFile::~CFile(void)
 0001:00054E15       loc_455E15
 0001:00054E2E       sub_455E2E
 0001:00054E4F       loc_455E4F
 0001:00054E51       loc_455E51
 0001:00054E83       loc_455E83
 0001:00054E91       loc_455E91
 0001:00054EA3       CFile::Open(char const *,uint,CFileException *)
 0001:00054F01       loc_455F01
 0001:00054F08       loc_455F08
 0001:00054F0D       loc_455F0D
 0001:00054F2D       loc_455F2D
 0001:00054F30       loc_455F30
 0001:00054F34       loc_455F34
 0001:00054F38       loc_455F38
 0001:00054F3A       loc_455F3A
 0001:00054F6A       loc_455F6A
 0001:00054F6D       loc_455F6D
 0001:00054FAD       loc_455FAD
 0001:00054FB1       loc_455FB1
 0001:00054FB9       loc_455FB9
 0001:00054FC0       sub_455FC0
 0001:00054FCD       loc_455FCD
 0001:00054FF3       loc_455FF3
 0001:00054FF6       loc_455FF6
 0001:00054FFA       CFile::Write(void const *,uint)
 0001:0005502E       loc_45602E
 0001:0005503F       loc_45603F
 0001:00055045       CFile::Seek(long,uint)
 0001:0005506E       loc_45606E
 0001:00055074       CFile::GetPosition(void)
 0001:00055099       loc_456099
 0001:0005509D       CFile::Flush(void)
 0001:000550BD       locret_4560BD
 0001:000550BE       CFile::Close(void)
 0001:000550DA       loc_4560DA
 0001:000550FE       locret_4560FE
 0001:000550FF       CFile::Abort(void)
 0001:00055115       loc_456115
 0001:0005511F       sub_45611F
 0001:00055145       locret_456145
 0001:00055148       sub_456148
 0001:0005516E       locret_45616E
 0001:00055171       sub_456171
 0001:0005519A       locret_45619A
 0001:0005519D       sub_45619D
 0001:000551CA       sub_4561CA
 0001:000551CF       AfxFullPath(char *,char const *)
 0001:0005520E       loc_45620E
 0001:0005524C       loc_45624C
 0001:0005527E       loc_45627E
 0001:00055281       loc_456281
 0001:0005528F       loc_45628F
 0001:0005529F       sub_45629F
 0001:000552D0       loc_4562D0
 0001:000552DE       loc_4562DE
 0001:000552EB       loc_4562EB
 0001:000552F6       loc_4562F6
 0001:000552FC       loc_4562FC
 0001:00055315       loc_456315
 0001:00055319       loc_456319
 0001:00055320       loc_456320
 0001:00055330       loc_456330
 0001:00055337       loc_456337
 0001:00055348       loc_456348
 0001:0005534C       loc_45634C
 0001:00055365       AfxGetFileTitle(char const *,char *,uint)
 0001:00055386       loc_456386
 0001:000553A5       loc_4563A5
 0001:000553B3       loc_4563B3
 0001:000553B5       loc_4563B5
 0001:000553BB       DialogFunc
 0001:000553EB       loc_4563EB
 0001:000553F0       loc_4563F0
 0001:000553F2       locret_4563F2
 0001:000553F5       sub_4563F5
 0001:000553FB       CDialog::PreTranslateMessage(tagMSG *)
 0001:00055422       loc_456422
 0001:00055438       loc_456438
 0001:00055470       loc_456470
 0001:00055482       loc_456482
 0001:00055487       loc_456487
 0001:0005548F       loc_45648F
 0001:00055494       sub_456494
 0001:000554BC       loc_4564BC
 0001:000554EF       loc_4564EF
 0001:0005550B       loc_45650B
 0001:00055510       loc_456510
 0001:00055512       loc_456512
 0001:00055519       sub_456519
 0001:0005552F       loc_45652F
 0001:00055535       sub_456535
 0001:0005555B       loc_45655B
 0001:00055573       sub_456573
 0001:0005559D       loc_45659D
 0001:000555DB       loc_4565DB
 0001:000555E2       loc_4565E2
 0001:000555F3       loc_4565F3
 0001:00055670       loc_456670
 0001:0005567A       loc_45667A
 0001:000556BC       loc_4566BC
 0001:000556D5       loc_4566D5
 0001:000556D8       loc_4566D8
 0001:000556FB       loc_4566FB
 0001:00055710       loc_456710
 0001:00055718       loc_456718
 0001:0005573B       loc_45673B
 0001:0005574E       loc_45674E
 0001:00055765       loc_456765
 0001:0005577C       loc_45677C
 0001:00055784       loc_456784
 0001:00055795       CDialog::SetOccDialogInfo(_AFX_OCC_DIALOG_INFO *)
 0001:000557A2       CDialog::CDialog(uint,CWnd *)
 0001:000557DB       sub_4567DB
 0001:000557F4       loc_4567F4
 0001:000557FE       loc_4567FE
 0001:00055815       CDialog::PostModal(void)
 0001:0005583C       loc_45683C
 0001:00055856       locret_456856
 0001:00055857       sub_456857
 0001:000558A4       loc_4568A4
 0001:000558B2       loc_4568B2
 0001:000558C0       loc_4568C0
 0001:000558F7       loc_4568F7
 0001:00055930       loc_456930
 0001:00055938       loc_456938
 0001:00055950       loc_456950
 0001:00055965       loc_456965
 0001:0005596A       loc_45696A
 0001:0005597E       loc_45697E
 0001:00055997       loc_456997
 0001:000559A8       loc_4569A8
 0001:000559B7       sub_4569B7
 0001:000559C9       loc_4569C9
 0001:00055A31       loc_456A31
 0001:00055A3B       loc_456A3B
 0001:00055A4C       loc_456A4C
 0001:00055A7F       loc_456A7F
 0001:00055A81       loc_456A81
 0001:00055A86       sub_456A86
 0001:00055A9D       loc_456A9D
 0001:00055AC2       loc_456AC2
 0001:00055AD8       loc_456AD8
 0001:00055ADC       nullsub_21
 0001:00055ADF       CDialog::OnInitDialog(void)
 0001:00055AF1       loc_456AF1
 0001:00055AFB       loc_456AFB
 0001:00055B0C       loc_456B0C
 0001:00055B19       loc_456B19
 0001:00055B3F       loc_456B3F
 0001:00055B44       CDialog::OnOK(void)
 0001:00055B5B       loc_456B5B
 0001:00055B5D       sub_456B5D
 0001:00055B65       sub_456B65
 0001:00055B93       loc_456B93
 0001:00055BA0       loc_456BA0
 0001:00055BBE       loc_456BBE
 0001:00055BC6       loc_456BC6
 0001:00055BDC       loc_456BDC
 0001:00055BDE       loc_456BDE
 0001:00055C0F       loc_456C0F
 0001:00055C28       loc_456C28
 0001:00055C2D       loc_456C2D
 0001:00055C2F       loc_456C2F
 0001:00055C33       CDialog::OnHelpHitTest(uint,long)
 0001:00055C41       loc_456C41
 0001:00055C43       locret_456C43
 0001:00055C4B       loc_456C4B
 0001:00055C66       sub_456C66
 0001:00055C73       loc_456C73
 0001:00055C7F       unknown_libname_94
 0001:00055C99       locret_456C99
 0001:00055CA4       sub_456CA4
 0001:00055CB1       loc_456CB1
 0001:00055CBD       unknown_libname_95
 0001:00055CD7       locret_456CD7
 0001:00055CE2       sub_456CE2
 0001:00055CEF       loc_456CEF
 0001:00055CFB       unknown_libname_96
 0001:00055D15       locret_456D15
 0001:00055D20       sub_456D20
 0001:00055D2D       loc_456D2D
 0001:00055D39       unknown_libname_97
 0001:00055D53       locret_456D53
 0001:00055D54       sub_456D54
 0001:00055D76       sub_456D76
 0001:00055D8C       loc_456D8C
 0001:00055D92       sub_456D92
 0001:00055DBE       _AfxModifyStyle(HWND__ *,int,ulong,ulong,uint)
 0001:00055DDF       loc_456DDF
 0001:00055E06       loc_456E06
 0001:00055E09       loc_456E09
 0001:00055E0D       CWnd::ModifyStyle(HWND__ *,ulong,ulong,uint)
 0001:00055E27       CWnd::ModifyStyleEx(HWND__ *,ulong,ulong,uint)
 0001:00055E41       _AfxPreInitDialog(CWnd *,tagRECT *,ulong *)
 0001:00055E64       _AfxPostInitDialog(CWnd *,tagRECT const &,ulong)
 0001:00055EC1       loc_456EC1
 0001:00055ED8       loc_456ED8
 0001:00055EDD       _AfxHandleActivate(CWnd *,uint,CWnd *)
 0001:00055F1C       loc_456F1C
 0001:00055F22       loc_456F22
 0001:00055F37       loc_456F37
 0001:00055F3E       _AfxHandleSetCursor(CWnd *,uint,uint)
 0001:00055F63       loc_456F63
 0001:00055FAD       loc_456FAD
 0001:00055FAF       loc_456FAF
 0001:00055FB4       sub_456FB4
 0001:00056019       loc_457019
 0001:00056033       loc_457033
 0001:0005605E       loc_45705E
 0001:0005607D       loc_45707D
 0001:00056081       loc_457081
 0001:0005608F       loc_45708F
 0001:00056092       loc_457092
 0001:000560B1       CWnd::GetCurrentMessage(void)
 0001:000560E6       sub_4570E6
 0001:0005610D       afxMapHWND(int)
 0001:0005615D       loc_45715D
 0001:0005615F       loc_45715F
 0001:0005616D       loc_45716D
 0001:0005617F       sub_45717F
 0001:000561A6       sub_4571A6
 0001:000561C1       locret_4571C1
 0001:000561C4       sub_4571C4
 0001:000561D4       loc_4571D4
 0001:000561F8       loc_4571F8
 0001:000561FD       sub_4571FD
 0001:0005621E       loc_45721E
 0001:00056222       loc_457222
 0001:0005622B       sub_45722B
 0001:0005623D       loc_45723D
 0001:00056261       loc_457261
 0001:00056271       loc_457271
 0001:00056276       sub_457276
 0001:0005627C       sub_45727C
 0001:0005630D       loc_45730D
 0001:00056321       loc_457321
 0001:00056345       loc_457345
 0001:00056366       loc_457366
 0001:00056380       loc_457380
 0001:00056384       loc_457384
 0001:0005639F       sub_45739F
 0001:000563DB       _AfxGrayBackgroundWndProc(HWND__ *,uint,uint,long)
 0001:00056423       loc_457423
 0001:00056442       loc_457442
 0001:00056451       loc_457451
 0001:00056457       fn
 0001:0005648C       loc_45748C
 0001:000564BC       loc_4574BC
 0001:000564FD       loc_4574FD
 0001:00056511       loc_457511
 0001:0005659F       loc_45759F
 0001:000565B4       loc_4575B4
 0001:000565B9       loc_4575B9
 0001:000565C2       loc_4575C2
 0001:00056613       loc_457613
 0001:0005661D       loc_45761D
 0001:00056620       loc_457620
 0001:00056644       loc_457644
 0001:00056649       locret_457649
 0001:0005664D       AfxHookWindowCreate(CWnd *)
 0001:00056691       loc_457691
 0001:00056694       loc_457694
 0001:00056699       AfxUnhookWindowCreate(void)
 0001:000566C8       loc_4576C8
 0001:000566D6       loc_4576D6
 0001:000566DB       yCFnCreateMainWindow
 0001:0005674E       loc_45774E
 0001:00056794       loc_457794
 0001:0005679C       loc_45779C
 0001:000567A1       sub_4577A1
 0001:000567BA       loc_4577BA
 0001:000567C1       sub_4577C1
 0001:000567D1       loc_4577D1
 0001:000567D4       loc_4577D4
 0001:0005680D       CWnd::~CWnd(void)
 0001:00056853       loc_457853
 0001:00056861       loc_457861
 0001:00056871       loc_457871
 0001:00056889       CWnd::OnDestroy(void)
 0001:0005689A       loc_45789A
 0001:000568E1       loc_4578E1
 0001:000568E7       loc_4578E7
 0001:000568EA       loc_4578EA
 0001:000568F2       loc_4578F2
 0001:00056901       loc_457901
 0001:00056911       loc_457911
 0001:00056966       loc_457966
 0001:000569A3       loc_4579A3
 0001:000569B9       nullsub_11
 0001:000569BA       sub_4579BA
 0001:000569C5       loc_4579C5
 0001:000569CB       sub_4579CB
 0001:000569D8       loc_4579D8
 0001:00056A00       loc_457A00
 0001:00056A05       loc_457A05
 0001:00056A12       loc_457A12
 0001:00056A18       sub_457A18
 0001:00056A47       loc_457A47
 0001:00056A5A       loc_457A5A
 0001:00056A5F       sub_457A5F
 0001:00056A63       CWnd::PreTranslateMessage(tagMSG *)
 0001:00056A7C       loc_457A7C
 0001:00056A82       sub_457A82
 0001:00056AAB       loc_457AAB
 0001:00056AD5       loc_457AD5
 0001:00056AD9       CWnd::OnToolHitTest(CPoint,tagTOOLINFOA *)
 0001:00056B3B       loc_457B3B
 0001:00056B41       loc_457B41
 0001:00056B44       loc_457B44
 0001:00056B4A       CWnd::GetWindowTextA(CString &)
 0001:00056B82       loc_457B82
 0001:00056B8E       loc_457B8E
 0001:00056BB5       loc_457BB5
 0001:00056BC3       loc_457BC3
 0001:00056BCA       loc_457BCA
 0001:00056BCF       CWnd::OnCompareItem(int,tagCOMPAREITEMSTRUCT *)
 0001:00056BED       loc_457BED
 0001:00056BF4       loc_457BF4
 0001:00056BF9       CWnd::OnDeleteItem(int,tagDELETEITEMSTRUCT *)
 0001:00056C15       loc_457C15
 0001:00056C19       sub_457C19
 0001:00056C38       loc_457C38
 0001:00056C3F       loc_457C3F
 0001:00056C44       sub_457C44
 0001:00056C5C       loc_457C5C
 0001:00056C80       loc_457C80
 0001:00056C90       loc_457C90
 0001:00056C95       loc_457C95
 0001:00056C97       loc_457C97
 0001:00056C9D       loc_457C9D
 0001:00056CD0       loc_457CD0
 0001:00056CD8       loc_457CD8
 0001:00056CF4       loc_457CF4
 0001:00056D13       loc_457D13
 0001:00056D1A       loc_457D1A
 0001:00056D1F       sub_457D1F
 0001:00056D59       loc_457D59
 0001:00056D9C       loc_457D9C
 0001:00056D9F       loc_457D9F
 0001:00056DB0       sub_457DB0
 0001:00056DC0       AfxRegisterWndClass(uint,HICON__ *,HBRUSH__ *,HICON__ *)
 0001:00056E01       loc_457E01
 0001:00056E1B       loc_457E1B
 0001:00056E6B       loc_457E6B
 0001:00056EBA       sub_457EBA
 0001:00056EFE       loc_457EFE
 0001:00056F51       loc_457F51
 0001:00056F7B       loc_457F7B
 0001:00056F9C       sub_457F9C
 0001:00056FA2       unknown_libname_98
 0001:00056FB2       unknown_libname_99
 0001:00056FBC       unknown_libname_100
 0001:00056FC1       unknown_libname_101
 0001:00056FD5       unknown_libname_102
 0001:00056FDA       unknown_libname_103
 0001:00056FE2       sub_457FE2
 0001:0005701E       loc_45801E
 0001:00057026       sub_458026
 0001:0005705F       loc_45805F
 0001:0005707F       loc_45807F
 0001:0005708C       loc_45808C
 0001:000570A4       loc_4580A4
 0001:000570C1       loc_4580C1
 0001:00057127       loc_458127
 0001:00057132       loc_458132
 0001:00057138       loc_458138
 0001:00057157       loc_458157
 0001:0005716E       loc_45816E
 0001:00057171       loc_458171
 0001:00057198       loc_458198
 0001:000571A4       loc_4581A4
 0001:000571AF       loc_4581AF
 0001:000571B1       loc_4581B1
 0001:000571C2       loc_4581C2
 0001:000571CF       loc_4581CF
 0001:000571F0       loc_4581F0
 0001:00057201       loc_458201
 0001:0005720F       loc_45820F
 0001:00057217       loc_458217
 0001:0005722E       loc_45822E
 0001:0005723C       loc_45823C
 0001:00057285       loc_458285
 0001:00057288       loc_458288
 0001:000572B2       loc_4582B2
 0001:000572E0       loc_4582E0
 0001:000572EA       loc_4582EA
 0001:000572F9       loc_4582F9
 0001:00057309       loc_458309
 0001:0005730A       loc_45830A
 0001:00057313       loc_458313
 0001:00057320       loc_458320
 0001:00057325       loc_458325
 0001:0005732F       loc_45832F
 0001:00057338       loc_458338
 0001:00057340       loc_458340
 0001:0005734C       loc_45834C
 0001:00057352       loc_458352
 0001:00057360       loc_458360
 0001:00057378       loc_458378
 0001:0005737E       loc_45837E
 0001:00057386       loc_458386
 0001:0005738C       loc_45838C
 0001:00057396       loc_458396
 0001:000573AA       loc_4583AA
 0001:000573AF       loc_4583AF
 0001:000573B0       loc_4583B0
 0001:000573B7       loc_4583B7
 0001:000573C2       loc_4583C2
 0001:000573CC       loc_4583CC
 0001:000573D7       loc_4583D7
 0001:000573E5       loc_4583E5
 0001:000573EE       loc_4583EE
 0001:000573FD       loc_4583FD
 0001:00057424       loc_458424
 0001:00057428       loc_458428
 0001:00057429       loc_458429
 0001:0005742C       loc_45842C
 0001:00057435       loc_458435
 0001:0005743F       loc_45843F
 0001:00057442       loc_458442
 0001:00057448       loc_458448
 0001:00057449       loc_458449
 0001:0005744F       loc_45844F
 0001:00057456       loc_458456
 0001:00057460       loc_458460
 0001:0005746A       loc_45846A
 0001:0005746E       loc_45846E
 0001:00057474       loc_458474
 0001:0005747C       loc_45847C
 0001:00057485       loc_458485
 0001:000574A5       loc_4584A5
 0001:000574B2       loc_4584B2
 0001:000574B5       loc_4584B5
 0001:000574B9       loc_4584B9
 0001:000574BD       loc_4584BD
 0001:000574C0       loc_4584C0
 0001:000574CC       loc_4584CC
 0001:000574D4       off_4584D4
 0001:00057598       sub_458598
 0001:000575B1       CTestCmdUI::Enable(int)
 0001:000575C2       CWnd::OnCommand(uint,long)
 0001:00057606       loc_458606
 0001:00057613       loc_458613
 0001:0005761A       loc_45861A
 0001:00057641       loc_458641
 0001:00057646       loc_458646
 0001:0005764A       loc_45864A
 0001:0005764E       CWnd::OnNotify(uint,long,long *)
 0001:00057698       loc_458698
 0001:0005769D       loc_45869D
 0001:000576C1       loc_4586C1
 0001:000576C8       sub_4586C8
 0001:000576DC       loc_4586DC
 0001:000576FD       loc_4586FD
 0001:00057701       loc_458701
 0001:00057703       loc_458703
 0001:00057706       AfxGetParentOwner(HWND__ *)
 0001:00057725       loc_458725
 0001:0005773E       loc_45873E
 0001:00057747       loc_458747
 0001:0005774B       sub_45874B
 0001:00057756       loc_458756
 0001:00057759       loc_458759
 0001:0005775D       loc_45875D
 0001:0005776B       loc_45876B
 0001:00057773       sub_458773
 0001:00057780       loc_458780
 0001:00057784       loc_458784
 0001:0005779B       loc_45879B
 0001:000577A1       loc_4587A1
 0001:000577B0       loc_4587B0
 0001:000577B4       sub_4587B4
 0001:000577C7       loc_4587C7
 0001:000577CF       loc_4587CF
 0001:000577D2       loc_4587D2
 0001:000577E6       CWnd::GetDescendantWindow(HWND__ *,int,int)
 0001:0005781A       loc_45881A
 0001:00057828       loc_458828
 0001:00057831       loc_458831
 0001:00057836       loc_458836
 0001:00057857       loc_458857
 0001:00057859       loc_458859
 0001:0005785F       CWnd::SendMessageToDescendants(HWND__ *,uint,uint,long,int,int)
 0001:0005786F       loc_45886F
 0001:00057899       loc_458899
 0001:000578A9       loc_4588A9
 0001:000578CB       loc_4588CB
 0001:000578D6       loc_4588D6
 0001:000578DC       sub_4588DC
 0001:000578FB       loc_4588FB
 0001:00057901       loc_458901
 0001:0005790C       sub_45890C
 0001:00057923       loc_458923
 0001:0005792A       loc_45892A
 0001:00057934       sub_458934
 0001:00057956       loc_458956
 0001:0005795C       loc_45895C
 0001:00057967       sub_458967
 0001:00057986       loc_458986
 0001:0005798C       loc_45898C
 0001:00057997       CWnd::CalcWindowRect(tagRECT *,uint)
 0001:000579A9       loc_4589A9
 0001:000579C2       sub_4589C2
 0001:000579CA       loc_4589CA
 0001:000579E7       loc_4589E7
 0001:000579F8       loc_4589F8
 0001:000579FD       loc_4589FD
 0001:000579FF       loc_4589FF
 0001:00057A04       sub_458A04
 0001:00057A31       sub_458A31
 0001:00057AB7       loc_458AB7
 0001:00057ABB       loc_458ABB
 0001:00057AC5       loc_458AC5
 0001:00057AD5       CWnd::OnChildNotify(uint,uint,long,long *)
 0001:00057B0C       loc_458B0C
 0001:00057B15       loc_458B15
 0001:00057B1A       loc_458B1A
 0001:00057B2B       loc_458B2B
 0001:00057B30       sub_458B30
 0001:00057B87       loc_458B87
 0001:00057BAF       loc_458BAF
 0001:00057BC4       loc_458BC4
 0001:00057BDA       loc_458BDA
 0001:00057C11       loc_458C11
 0001:00057C13       loc_458C13
 0001:00057C18       CWnd::OnParentNotify(uint,long)
 0001:00057C2B       loc_458C2B
 0001:00057C3A       loc_458C3A
 0001:00057C41       loc_458C41
 0001:00057C45       CWnd::OnActivateTopLevel(uint,long)
 0001:00057C62       loc_458C62
 0001:00057C85       loc_458C85
 0001:00057CBB       loc_458CBB
 0001:00057CDB       loc_458CDB
 0001:00057D20       loc_458D20
 0001:00057D56       loc_458D56
 0001:00057D7E       loc_458D7E
 0001:00057D82       CWnd::OnHelpInfo(tagHELPINFO *)
 0001:00057DD9       loc_458DD9
 0001:00057DE0       loc_458DE0
 0001:00057DE6       CWnd::OnDisplayChange(uint,long)
 0001:00057DFC       loc_458DFC
 0001:00057E24       loc_458E24
 0001:00057E2F       CWnd::OnDragList(uint,long)
 0001:00057E4D       loc_458E4D
 0001:00057E54       loc_458E54
 0001:00057E59       sub_458E59
 0001:00057E6F       loc_458E6F
 0001:00057E76       loc_458E76
 0001:00057E7A       CWnd::OnEnterIdle(uint,CWnd *)
 0001:00057E9A       loc_458E9A
 0001:00057EB6       loc_458EB6
 0001:00057EC4       CWnd::OnCtlColor(CDC *,CWnd *,uint)
 0001:00057EDF       loc_458EDF
 0001:00057EE6       loc_458EE6
 0001:00057EEB       CWnd::OnGrayCtlColor(CDC *,CWnd *,uint)
 0001:00057F0A       loc_458F0A
 0001:00057F22       loc_458F22
 0001:00057F44       loc_458F44
 0001:00057F47       loc_458F47
 0001:00057F4E       CWnd::GrayCtlColor(HDC__ *,HWND__ *,uint,HBRUSH__ *,ulong)
 0001:00057F83       loc_458F83
 0001:00057FAE       loc_458FAE
 0001:00057FBD       loc_458FBD
 0001:00057FBF       locret_458FBF
 0001:00057FC3       CWnd::OnQuery3dControls(uint,long)
 0001:00057FCB       sub_458FCB
 0001:00058029       loc_459029
 0001:0005802F       loc_45902F
 0001:0005804D       loc_45904D
 0001:00058050       loc_459050
 0001:0005806D       CDataExchange::CDataExchange(CWnd *,int)
 0001:00058083       CWnd::CenterWindow(CWnd *)
 0001:000580A5       loc_4590A5
 0001:000580B6       loc_4590B6
 0001:000580C1       loc_4590C1
 0001:000580DD       loc_4590DD
 0001:00058111       loc_459111
 0001:00058113       loc_459113
 0001:0005812A       loc_45912A
 0001:00058158       loc_459158
 0001:00058181       loc_459181
 0001:000581AE       loc_4591AE
 0001:000581F4       loc_4591F4
 0001:00058205       loc_459205
 0001:0005820F       loc_45920F
 0001:0005821F       loc_45921F
 0001:00058238       CWnd::ExecuteDlgInit(char const *)
 0001:00058271       loc_459271
 0001:0005827A       loc_45927A
 0001:00058282       loc_459282
 0001:00058288       sub_459288
 0001:000582AB       loc_4592AB
 0001:000582D9       loc_4592D9
 0001:000582E4       loc_4592E4
 0001:000582EA       loc_4592EA
 0001:00058305       loc_459305
 0001:00058311       loc_459311
 0001:00058318       loc_459318
 0001:0005832A       loc_45932A
 0001:00058337       loc_459337
 0001:0005833E       loc_45933E
 0001:00058351       loc_459351
 0001:0005835A       CWnd::PreTranslateInput(tagMSG *)
 0001:0005836F       loc_45936F
 0001:0005837D       loc_45937D
 0001:00058385       std::_Ref_count_base::_Get_deleter(type_info const &)
 0001:00058387       locret_459387
 0001:0005838A       CWnd::RunModalLoop(ulong)
 0001:000583B7       loc_4593B7
 0001:000583BB       loc_4593BB
 0001:000583DC       loc_4593DC
 0001:00058409       loc_459409
 0001:0005842F       loc_45942F
 0001:00058452       loc_459452
 0001:00058458       loc_459458
 0001:0005847F       loc_45947F
 0001:00058491       loc_459491
 0001:000584B9       loc_4594B9
 0001:000584CD       loc_4594CD
 0001:000584D8       $ExitModal$70492
 0001:000584DF       loc_4594DF
 0001:000584E9       CWnd::ContinueModal(void)
 0001:000584F0       CWnd::EndModalLoop(int)
 0001:00058511       locret_459511
 0001:00058514       unknown_libname_104
 0001:0005854A       loc_45954A
 0001:00058555       sub_459555
 0001:000585A0       loc_4595A0
 0001:000585BD       loc_4595BD
 0001:000585C6       loc_4595C6
 0001:000585CC       sub_4595CC
 0001:000585EC       loc_4595EC
 0001:00058647       loc_459647
 0001:00058668       loc_459668
 0001:0005868F       loc_45968F
 0001:000586B5       loc_4596B5
 0001:000586E1       loc_4596E1
 0001:00058704       loc_459704
 0001:0005871E       loc_45971E
 0001:0005873B       loc_45973B
 0001:00058754       loc_459754
 0001:00058771       loc_459771
 0001:0005878E       loc_45978E
 0001:000587AB       loc_4597AB
 0001:000587C8       loc_4597C8
 0001:000587E5       loc_4597E5
 0001:000587FE       loc_4597FE
 0001:00058817       loc_459817
 0001:00058834       loc_459834
 0001:00058851       loc_459851
 0001:0005886F       loc_45986F
 0001:0005887F       locret_45987F
 0001:00058883       CFrameWnd::IsTracking(void)
 0001:0005889F       loc_45989F
 0001:000588A2       sub_4598A2
 0001:000588DE       loc_4598DE
 0001:000588E1       loc_4598E1
 0001:000588E5       sub_4598E5
 0001:000588F4       sub_4598F4
 0001:0005890B       sub_45990B
 0001:00058927       loc_459927
 0001:00058932       locret_459932
 0001:00058935       sub_459935
 0001:00058951       loc_459951
 0001:00058960       locret_459960
 0001:00058963       CWnd::ScrollWindowEx(int,int,tagRECT const *,tagRECT const *,CRgn *,tagRECT *,uint)
 0001:00058974       loc_459974
 0001:000589AA       loc_4599AA
 0001:000589B2       CWnd::IsDialogMessageA(tagMSG *)
 0001:000589D4       loc_4599D4
 0001:000589E1       loc_4599E1
 0001:000589E5       sub_4599E5
 0001:000589F8       loc_4599F8
 0001:000589FF       sub_4599FF
 0001:00058A12       loc_459A12
 0001:00058A19       sub_459A19
 0001:00058A36       loc_459A36
 0001:00058A46       loc_459A46
 0001:00058A4A       sub_459A4A
 0001:00058A67       loc_459A67
 0001:00058A77       loc_459A77
 0001:00058A7B       sub_459A7B
 0001:00058A91       loc_459A91
 0001:00058A9F       locret_459A9F
 0001:00058AA2       sub_459AA2
 0001:00058AB3       loc_459AB3
 0001:00058ABD       CWnd::MoveWindow(int,int,int,int,int)
 0001:00058AE1       loc_459AE1
 0001:00058AFA       loc_459AFA
 0001:00058AFE       CWnd::SetWindowPos(CWnd const *,int,int,int,int,uint)
 0001:00058B12       loc_459B12
 0001:00058B2D       loc_459B2D
 0001:00058B49       loc_459B49
 0001:00058B4D       sub_459B4D
 0001:00058B63       loc_459B63
 0001:00058B71       locret_459B71
 0001:00058B74       sub_459B74
 0001:00058B85       loc_459B85
 0001:00058B8F       CWnd::ShowWindow(int)
 0001:00058BA5       loc_459BA5
 0001:00058BB3       locret_459BB3
 0001:00058BB6       sub_459BB6
 0001:00058BCD       loc_459BCD
 0001:00058BD7       sub_459BD7
 0001:00058C10       loc_459C10
 0001:00058C14       sub_459C14
 0001:00058C30       locret_459C30
 0001:00058C33       sub_459C33
 0001:00058CB5       sub_459CB5
 0001:00058D37       CFile::GetFilePath(void)
 0001:00058D66       CFile::GetStatus(CFileStatus &)
 0001:00058DCD       loc_459DCD
 0001:00058DD1       loc_459DD1
 0001:00058DDA       loc_459DDA
 0001:00058DE0       loc_459DE0
 0001:00058DEE       loc_459DEE
 0001:00058E2A       loc_459E2A
 0001:00058E36       loc_459E36
 0001:00058E39       loc_459E39
 0001:00058E40       sub_459E40
 0001:00058E46       CWinApp::Run(void)
 0001:00058E5F       loc_459E5F
 0001:00058E68       sub_459E68
 0001:00058E9F       sub_459E9F
 0001:00058EC7       loc_459EC7
 0001:00058ECA       loc_459ECA
 0001:00058EE8       loc_459EE8
 0001:00058EFD       loc_459EFD
 0001:00058F02       loc_459F02
 0001:00058F08       loc_459F08
 0001:00058F12       loc_459F12
 0001:00058F16       sub_459F16
 0001:00058F44       loc_459F44
 0001:00058F65       loc_459F65
 0001:00058F72       loc_459F72
 0001:00058F80       CWinApp::DevModeChange(char *)
 0001:00058FD7       loc_459FD7
 0001:0005901E       loc_45A01E
 0001:00059026       loc_45A026
 0001:0005902D       sub_45A02D
 0001:00059047       sub_45A047
 0001:00059066       loc_45A066
 0001:00059072       sub_45A072
 0001:00059091       loc_45A091
 0001:000590C7       loc_45A0C7
 0001:000590DA       loc_45A0DA
 0001:000590E5       loc_45A0E5
 0001:000590EA       loc_45A0EA
 0001:000590F2       loc_45A0F2
 0001:000590F7       loc_45A0F7
 0001:0005910A       loc_45A10A
 0001:0005911D       loc_45A11D
 0001:00059121       loc_45A121
 0001:00059124       loc_45A124
 0001:0005912C       loc_45A12C
 0001:0005912F       loc_45A12F
 0001:00059137       loc_45A137
 0001:00059144       loc_45A144
 0001:00059152       loc_45A152
 0001:0005915E       loc_45A15E
 0001:0005916F       loc_45A16F
 0001:00059171       loc_45A171
 0001:00059173       loc_45A173
 0001:00059179       sub_45A179
 0001:000591AA       loc_45A1AA
 0001:000591C5       loc_45A1C5
 0001:000591D2       loc_45A1D2
 0001:000591F7       loc_45A1F7
 0001:0005920F       loc_45A20F
 0001:0005921C       loc_45A21C
 0001:00059221       loc_45A221
 0001:00059225       loc_45A225
 0001:0005922A       loc_45A22A
 0001:0005923C       loc_45A23C
 0001:00059241       loc_45A241
 0001:0005924A       loc_45A24A
 0001:00059265       loc_45A265
 0001:0005927F       loc_45A27F
 0001:00059281       loc_45A281
 0001:00059288       sub_45A288
 0001:0005928E       sub_45A28E
 0001:00059291       CCmdTarget::GetTypeLib(ulong,ITypeLib * *)
 0001:00059299       sub_45A299
 0001:000592AE       sub_45A2AE
 0001:000592C3       sub_45A2C3
 0001:000592C9       sub_45A2C9
 0001:000592CF       sub_45A2CF
 0001:000592D5       sub_45A2D5
 0001:000592DB       sub_45A2DB
 0001:000592F7       loc_45A2F7
 0001:0005930B       loc_45A30B
 0001:0005930D       sub_45A30D
 0001:00059311       sub_45A311
 0001:00059317       std::_Ref_count_base::_Get_deleter(type_info const &)
 0001:0005931C       sub_45A31C
 0001:00059322       CCmdUI::CCmdUI(void)
 0001:00059348       sub_45A348
 0001:00059378       loc_45A378
 0001:000593A7       loc_45A3A7
 0001:000593C0       loc_45A3C0
 0001:000593CD       loc_45A3CD
 0001:000593D4       loc_45A3D4
 0001:000593D8       CCmdUI::SetCheck(int)
 0001:00059406       loc_45A406
 0001:00059435       loc_45A435
 0001:0005943A       sub_45A43A
 0001:00059470       loc_45A470
 0001:0005948B       loc_45A48B
 0001:00059490       sub_45A490
 0001:000594D4       loc_45A4D4
 0001:000594E3       loc_45A4E3
 0001:000594E7       AfxGetThread(void)
 0001:000594FB       locret_45A4FB
 0001:000594FC       AfxInitThread(void)
 0001:0005954A       loc_45A54A
 0001:0005955A       locret_45A55A
 0001:0005955B       CWinThread::Delete(void)
 0001:0005956C       locret_45A56C
 0001:0005956D       sub_45A56D
 0001:0005957D       loc_45A57D
 0001:00059584       loc_45A584
 0001:000595A9       loc_45A5A9
 0001:000595AD       loc_45A5AD
 0001:000595CE       loc_45A5CE
 0001:000595DF       loc_45A5DF
 0001:000595EC       sub_45A5EC
 0001:00059612       loc_45A612
 0001:00059616       loc_45A616
 0001:0005962B       loc_45A62B
 0001:0005963D       loc_45A63D
 0001:00059640       loc_45A640
 0001:00059645       sub_45A645
 0001:00059649       CWinThread::OnIdle(long)
 0001:00059693       loc_45A693
 0001:000596AC       loc_45A6AC
 0001:000596CD       loc_45A6CD
 0001:000596E2       loc_45A6E2
 0001:000596FF       loc_45A6FF
 0001:00059711       loc_45A711
 0001:00059718       loc_45A718
 0001:0005971D       loc_45A71D
 0001:00059744       loc_45A744
 0001:00059754       sub_45A754
 0001:00059773       loc_45A773
 0001:00059789       loc_45A789
 0001:00059791       loc_45A791
 0001:00059797       loc_45A797
 0001:000597B3       loc_45A7B3
 0001:000597C5       loc_45A7C5
 0001:000597C7       loc_45A7C7
 0001:000597CF       sub_45A7CF
 0001:000597E4       loc_45A7E4
 0001:000597F2       loc_45A7F2
 0001:000597FD       loc_45A7FD
 0001:00059802       loc_45A802
 0001:00059825       loc_45A825
 0001:00059827       loc_45A827
 0001:0005982C       unknown_libname_105
 0001:0005983D       loc_45A83D
 0001:0005984C       loc_45A84C
 0001:0005984E       locret_45A84E
 0001:00059851       _AfxMsgFilterHook(int,uint,long)
 0001:0005986D       loc_45A86D
 0001:00059884       loc_45A884
 0001:000598A5       loc_45A8A5
 0001:000598A9       IsHelpKey(tagMSG *)
 0001:000598EE       loc_45A8EE
 0001:000598F0       loc_45A8F0
 0001:000598F4       sub_45A8F4
 0001:00059922       loc_45A922
 0001:00059968       loc_45A968
 0001:00059970       loc_45A970
 0001:0005997E       loc_45A97E
 0001:00059989       loc_45A989
 0001:000599BA       loc_45A9BA
 0001:00059A29       loc_45AA29
 0001:00059A2E       loc_45AA2E
 0001:00059A35       loc_45AA35
 0001:00059A37       loc_45AA37
 0001:00059A3E       CWinThread::GetMainWnd(void)
 0001:00059A58       locret_45AA58
 0001:00059A59       sub_45AA59
 0001:00059A93       loc_45AA93
 0001:00059A96       loc_45AA96
 0001:00059A99       afxMapHMENU(int)
 0001:00059AE9       loc_45AAE9
 0001:00059AEB       loc_45AAEB
 0001:00059AF9       loc_45AAF9
 0001:00059B0B       sub_45AB0B
 0001:00059B20       sub_45AB20
 0001:00059B3B       locret_45AB3B
 0001:00059B3E       sub_45AB3E
 0001:00059B5F       loc_45AB5F
 0001:00059B68       sub_45AB68
 0001:00059B71       loc_45AB71
 0001:00059B7E       sub_45AB7E
 0001:00059B9C       locret_45AB9C
 0001:00059B9F       sub_45AB9F
 0001:00059BC1       loc_45ABC1
 0001:00059BF3       loc_45ABF3
 0001:00059C3F       sub_45AC3F
 0001:00059C92       loc_45AC92
 0001:00059C94       loc_45AC94
 0001:00059CAA       sub_45ACAA
 0001:00059CE7       loc_45ACE7
 0001:00059CEE       loc_45ACEE
 0001:00059CF5       loc_45ACF5
 0001:00059CFC       loc_45ACFC
 0001:00059D22       loc_45AD22
 0001:00059D29       loc_45AD29
 0001:00059D2D       loc_45AD2D
 0001:00059D31       loc_45AD31
 0001:00059D4D       loc_45AD4D
 0001:00059D60       loc_45AD60
 0001:00059D64       loc_45AD64
 0001:00059D68       loc_45AD68
 0001:00059D90       loc_45AD90
 0001:00059DA9       loc_45ADA9
 0001:00059DAB       loc_45ADAB
 0001:00059DAC       locret_45ADAC
 0001:00059DAF       loc_45ADAF
 0001:00059DB3       loc_45ADB3
 0001:00059DE0       loc_45ADE0
 0001:00059DE4       loc_45ADE4
 0001:00059DE8       loc_45ADE8
 0001:00059E0D       loc_45AE0D
 0001:00059E40       loc_45AE40
 0001:00059E47       loc_45AE47
 0001:00059E4E       loc_45AE4E
 0001:00059E6F       loc_45AE6F
 0001:00059E78       loc_45AE78
 0001:00059E99       loc_45AE99
 0001:00059EA0       off_45AEA0
 0001:00059F04       off_45AF04
 0001:00059F28       CString::LoadStringA(uint)
 0001:00059F6E       loc_45AF6E
 0001:00059F71       loc_45AF71
 0001:00059FA6       loc_45AFA6
 0001:00059FAC       AfxLoadString(uint,char *,uint)
 0001:00059FCF       loc_45AFCF
 0001:00059FD3       CObject::IsKindOf(CRuntimeClass const *)
 0001:00059FE5       AfxDynamicDownCast(CRuntimeClass *,CObject *)
 0001:0005A002       loc_45B002
 0001:0005A005       sub_45B005
 0001:0005A02B       loc_45B02B
 0001:0005A02E       loc_45B02E
 0001:0005A03D       sub_45B03D
 0001:0005A04B       sub_45B04B
 0001:0005A071       CRuntimeClass::IsDerivedFrom(CRuntimeClass const *)
 0001:0005A080       loc_45B080
 0001:0005A085       loc_45B085
 0001:0005A087       locret_45B087
 0001:0005A08A       AfxLockTempMaps(void)
 0001:0005A093       sub_45B093
 0001:0005A0D8       loc_45B0D8
 0001:0005A100       loc_45B100
 0001:0005A133       loc_45B133
 0001:0005A15A       loc_45B15A
 0001:0005A17E       loc_45B17E
 0001:0005A18D       sub_45B18D
 0001:0005A1F2       CHandleMap::FromHandle(void *)
 0001:0005A20F       loc_45B20F
 0001:0005A220       loc_45B220
 0001:0005A24D       loc_45B24D
 0001:0005A271       loc_45B271
 0001:0005A299       loc_45B299
 0001:0005A2A0       sub_45B2A0
 0001:0005A2B1       sub_45B2B1
 0001:0005A2D0       loc_45B2D0
 0001:0005A2F6       loc_45B2F6
 0001:0005A304       loc_45B304
 0001:0005A30B       loc_45B30B
 0001:0005A313       loc_45B313
 0001:0005A316       CDialogTemplate::CDialogTemplate(DLGTEMPLATE const *)
 0001:0005A32E       loc_45B32E
 0001:0005A33E       loc_45B33E
 0001:0005A345       CDialogTemplate::SetTemplate(DLGTEMPLATE const *,uint)
 0001:0005A388       loc_45B388
 0001:0005A38A       loc_45B38A
 0001:0005A3A1       loc_45B3A1
 0001:0005A3A5       Concurrency::details::UMSFreeVirtualProcessorRoot::InitialThreadParam::~InitialThreadParam(void)
 0001:0005A3B2       locret_45B3B2
 0001:0005A3B3       ATL::CComPtrBase<ICustomDestinationList>::Detach(void)
 0001:0005A3B9       sub_45B3B9
 0001:0005A3CA       loc_45B3CA
 0001:0005A3CD       loc_45B3CD
 0001:0005A3DD       loc_45B3DD
 0001:0005A3EC       loc_45B3EC
 0001:0005A3F8       loc_45B3F8
 0001:0005A404       loc_45B404
 0001:0005A40F       sub_45B40F
 0001:0005A436       loc_45B436
 0001:0005A438       loc_45B438
 0001:0005A457       loc_45B457
 0001:0005A461       loc_45B461
 0001:0005A465       loc_45B465
 0001:0005A477       loc_45B477
 0001:0005A48B       loc_45B48B
 0001:0005A49A       loc_45B49A
 0001:0005A49D       loc_45B49D
 0001:0005A4A9       loc_45B4A9
 0001:0005A4AC       loc_45B4AC
 0001:0005A4B8       loc_45B4B8
 0001:0005A4C2       loc_45B4C2
 0001:0005A4C7       CDialogTemplate::GetFont(DLGTEMPLATE const *,CString &,ushort &)
 0001:0005A4D9       loc_45B4D9
 0001:0005A4DB       loc_45B4DB
 0001:0005A4E3       loc_45B4E3
 0001:0005A536       sub_45B536
 0001:0005A54E       loc_45B54E
 0001:0005A575       loc_45B575
 0001:0005A577       loc_45B577
 0001:0005A595       loc_45B595
 0001:0005A598       loc_45B598
 0001:0005A5D2       loc_45B5D2
 0001:0005A5F1       loc_45B5F1
 0001:0005A5F5       loc_45B5F5
 0001:0005A612       loc_45B612
 0001:0005A64B       loc_45B64B
 0001:0005A650       CDialogTemplate::SetSystemFont(ushort)
 0001:0005A67A       loc_45B67A
 0001:0005A6A4       loc_45B6A4
 0001:0005A6C4       loc_45B6C4
 0001:0005A6CE       loc_45B6CE
 0001:0005A6E1       AUX_DATA::UpdateSysColors(void)
 0001:0005A725       AUX_DATA::UpdateSysMetrics(void)
 0001:0005A74B       loc_45B74B
 0001:0005A750       loc_45B750
 0001:0005A77D       sub_45B77D
 0001:0005A7BD       loc_45B7BD
 0001:0005A7D4       loc_45B7D4
 0001:0005A7DD       loc_45B7DD
 0001:0005A7E4       loc_45B7E4
 0001:0005A7E6       loc_45B7E6
 0001:0005A7F3       CDC::CDC(void)
 0001:0005A807       sub_45B807
 0001:0005A81D       loc_45B81D
 0001:0005A823       afxMapHDC(int)
 0001:0005A873       loc_45B873
 0001:0005A875       loc_45B875
 0001:0005A883       loc_45B883
 0001:0005A895       sub_45B895
 0001:0005A8AA       sub_45B8AA
 0001:0005A8BA       loc_45B8BA
 0001:0005A8DC       loc_45B8DC
 0001:0005A8E1       sub_45B8E1
 0001:0005A902       loc_45B902
 0001:0005A912       sub_45B912
 0001:0005A91B       loc_45B91B
 0001:0005A928       sub_45B928
 0001:0005A952       loc_45B952
 0001:0005A95E       unknown_libname_106
 0001:0005A968       unknown_libname_107
 0001:0005A972       CDC::ReleaseAttribDC(void)
 0001:0005A977       Concurrency::details::TaskStack::Clear(void)
 0001:0005A97C       sub_45B97C
 0001:0005A995       loc_45B995
 0001:0005A9A7       loc_45B9A7
 0001:0005A9AD       CDC::RestoreDC(int)
 0001:0005A9C9       loc_45B9C9
 0001:0005A9E4       loc_45B9E4
 0001:0005A9E6       loc_45B9E6
 0001:0005A9EB       sub_45B9EB
 0001:0005AA02       sub_45BA02
 0001:0005AA27       loc_45BA27
 0001:0005AA32       loc_45BA32
 0001:0005AA3E       sub_45BA3E
 0001:0005AA5E       loc_45BA5E
 0001:0005AA62       loc_45BA62
 0001:0005AA71       loc_45BA71
 0001:0005AA74       loc_45BA74
 0001:0005AA78       loc_45BA78
 0001:0005AA84       sub_45BA84
 0001:0005AAA6       loc_45BAA6
 0001:0005AAA9       loc_45BAA9
 0001:0005AAAD       loc_45BAAD
 0001:0005AABC       loc_45BABC
 0001:0005AABF       loc_45BABF
 0001:0005AAC3       loc_45BAC3
 0001:0005AAC9       CDC::SelectPalette(CPalette *,int)
 0001:0005AAD4       loc_45BAD4
 0001:0005AAEB       sub_45BAEB
 0001:0005AB07       loc_45BB07
 0001:0005AB15       loc_45BB15
 0001:0005AB1A       sub_45BB1A
 0001:0005AB35       loc_45BB35
 0001:0005AB43       loc_45BB43
 0001:0005AB48       sub_45BB48
 0001:0005AB63       loc_45BB63
 0001:0005AB71       loc_45BB71
 0001:0005AB76       sub_45BB76
 0001:0005AB91       loc_45BB91
 0001:0005AB9F       loc_45BB9F
 0001:0005ABA4       sub_45BBA4
 0001:0005ABBF       loc_45BBBF
 0001:0005ABCD       loc_45BBCD
 0001:0005ABD2       sub_45BBD2
 0001:0005ABEE       loc_45BBEE
 0001:0005ABFC       loc_45BBFC
 0001:0005AC01       sub_45BC01
 0001:0005AC1C       loc_45BC1C
 0001:0005AC2A       loc_45BC2A
 0001:0005AC2F       CDC::SetViewportOrg(int,int)
 0001:0005AC53       loc_45BC53
 0001:0005AC67       loc_45BC67
 0001:0005AC7B       CDC::OffsetViewportOrg(int,int)
 0001:0005AC9F       loc_45BC9F
 0001:0005ACB3       loc_45BCB3
 0001:0005ACC7       CDC::SetViewportExt(int,int)
 0001:0005ACEB       loc_45BCEB
 0001:0005ACFF       loc_45BCFF
 0001:0005AD13       CDC::ScaleViewportExt(int,int,int,int)
 0001:0005AD3D       loc_45BD3D
 0001:0005AD57       loc_45BD57
 0001:0005AD6B       CDC::SetWindowOrg(int,int)
 0001:0005AD8F       loc_45BD8F
 0001:0005ADA3       loc_45BDA3
 0001:0005ADB7       CDC::SetWindowExt(int,int)
 0001:0005ADDB       loc_45BDDB
 0001:0005ADEF       loc_45BDEF
 0001:0005AE03       CDC::ScaleWindowExt(int,int,int,int)
 0001:0005AE2D       loc_45BE2D
 0001:0005AE47       loc_45BE47
 0001:0005AE5B       sub_45BE5B
 0001:0005AE6B       sub_45BE6B
 0001:0005AE8B       loc_45BE8B
 0001:0005AE8F       loc_45BE8F
 0001:0005AE9E       loc_45BE9E
 0001:0005AEA1       loc_45BEA1
 0001:0005AEA5       loc_45BEA5
 0001:0005AEAB       sub_45BEAB
 0001:0005AED1       loc_45BED1
 0001:0005AEE7       loc_45BEE7
 0001:0005AEED       sub_45BEED
 0001:0005AF14       loc_45BF14
 0001:0005AF29       loc_45BF29
 0001:0005AF2F       CDC::MoveTo(int,int)
 0001:0005AF53       loc_45BF53
 0001:0005AF67       loc_45BF67
 0001:0005AF7B       CDC::LineTo(int,int)
 0001:0005AF9B       loc_45BF9B
 0001:0005AFB0       CWnd::ScreenToClient(tagRECT *)
 0001:0005AFE5       loc_45BFE5
 0001:0005AFEC       sub_45BFEC
 0001:0005B021       loc_45C021
 0001:0005B028       sub_45C028
 0001:0005B048       loc_45C048
 0001:0005B050       loc_45C050
 0001:0005B05F       loc_45C05F
 0001:0005B062       loc_45C062
 0001:0005B06A       loc_45C06A
 0001:0005B070       CDC::LPtoDP(tagSIZE *)
 0001:0005B0D9       CDC::DPtoLP(tagSIZE *)
 0001:0005B142       sub_45C142
 0001:0005B16C       loc_45C16C
 0001:0005B187       loc_45C187
 0001:0005B198       sub_45C198
 0001:0005B1AE       loc_45C1AE
 0001:0005B1B4       sub_45C1B4
 0001:0005B1F6       sub_45C1F6
 0001:0005B220       loc_45C220
 0001:0005B23B       loc_45C23B
 0001:0005B24C       sub_45C24C
 0001:0005B262       loc_45C262
 0001:0005B268       sub_45C268
 0001:0005B2AA       CPaintDC::CPaintDC(CWnd *)
 0001:0005B2EF       loc_45C2EF
 0001:0005B300       sub_45C300
 0001:0005B316       loc_45C316
 0001:0005B31C       CPaintDC::~CPaintDC(void)
 0001:0005B363       afxMapHGDIOBJ(int)
 0001:0005B3B3       loc_45C3B3
 0001:0005B3B5       loc_45C3B5
 0001:0005B3C3       loc_45C3C3
 0001:0005B3D5       sub_45C3D5
 0001:0005B3EA       sub_45C3EA
 0001:0005B3FA       loc_45C3FA
 0001:0005B412       loc_45C412
 0001:0005B417       sub_45C417
 0001:0005B438       loc_45C438
 0001:0005B441       sub_45C441
 0001:0005B44A       loc_45C44A
 0001:0005B457       CPen::CPen(int,int,ulong)
 0001:0005B496       loc_45C496
 0001:0005B4A7       CBrush::CBrush(ulong)
 0001:0005B4E0       loc_45C4E0
 0001:0005B4F1       sub_45C4F1
 0001:0005B50A       sub_45C50A
 0001:0005B52C       loc_45C52C
 0001:0005B54E       loc_45C54E
 0001:0005B56D       loc_45C56D
 0001:0005B583       ReadStringLength(CArchive &)
 0001:0005B5A0       loc_45C5A0
 0001:0005B5B9       loc_45C5B9
 0001:0005B5D2       loc_45C5D2
 0001:0005B5D6       locret_45C5D6
 0001:0005B5DA       sub_45C5DA
 0001:0005B601       loc_45C601
 0001:0005B61A       loc_45C61A
 0001:0005B640       loc_45C640
 0001:0005B668       loc_45C668
 0001:0005B672       sub_45C672
 0001:0005B6C2       loc_45C6C2
 0001:0005B6C9       loc_45C6C9
 0001:0005B6F0       loc_45C6F0
 0001:0005B6F3       loc_45C6F3
 0001:0005B722       loc_45C722
 0001:0005B725       loc_45C725
 0001:0005B738       loc_45C738
 0001:0005B74E       CArchive::~CArchive(void)
 0001:0005B774       loc_45C774
 0001:0005B794       CArchive::Abort(void)
 0001:0005B7B1       loc_45C7B1
 0001:0005B7BF       loc_45C7BF
 0001:0005B7D0       loc_45C7D0
 0001:0005B7D6       CArchive::Close(void)
 0001:0005B7E4       sub_45C7E4
 0001:0005B7FB       loc_45C7FB
 0001:0005B80A       loc_45C80A
 0001:0005B837       loc_45C837
 0001:0005B858       loc_45C858
 0001:0005B878       loc_45C878
 0001:0005B87E       loc_45C87E
 0001:0005B8A2       loc_45C8A2
 0001:0005B8B0       loc_45C8B0
 0001:0005B8CA       loc_45C8CA
 0001:0005B8D5       loc_45C8D5
 0001:0005B8E7       loc_45C8E7
 0001:0005B8ED       loc_45C8ED
 0001:0005B8F3       CArchive::Write(void const *,uint)
 0001:0005B910       loc_45C910
 0001:0005B96A       loc_45C96A
 0001:0005B97C       loc_45C97C
 0001:0005B983       sub_45C983
 0001:0005B9A4       loc_45C9A4
 0001:0005B9AC       loc_45C9AC
 0001:0005B9CF       loc_45C9CF
 0001:0005B9E4       loc_45C9E4
 0001:0005B9F6       loc_45C9F6
 0001:0005B9FC       loc_45C9FC
 0001:0005B9FF       CArchive::FillBuffer(uint)
 0001:0005BA43       loc_45CA43
 0001:0005BA4D       loc_45CA4D
 0001:0005BA6E       loc_45CA6E
 0001:0005BA7E       loc_45CA7E
 0001:0005BA8F       loc_45CA8F
 0001:0005BAA6       loc_45CAA6
 0001:0005BABD       locret_45CABD
 0001:0005BAC1       CArchive::WriteCount(ulong)
 0001:0005BADA       loc_45CADA
 0001:0005BAEA       loc_45CAEA
 0001:0005BAEF       CArchive::ReadCount(void)
 0001:0005BB0E       loc_45CB0E
 0001:0005BB1C       loc_45CB1C
 0001:0005BB1F       sub_45CB1F
 0001:0005BB41       loc_45CB41
 0001:0005BB73       loc_45CB73
 0001:0005BBBF       sub_45CBBF
 0001:0005BC0C       loc_45CC0C
 0001:0005BC0E       loc_45CC0E
 0001:0005BC37       _AfxIsComboBoxControl(HWND__ *,uint)
 0001:0005BC56       loc_45CC56
 0001:0005BC5A       loc_45CC5A
 0001:0005BC7D       locret_45CC7D
 0001:0005BC81       _AfxCompareClassName(HWND__ *,char const *)
 0001:0005BCAC       _AfxChildWindowFromPoint(HWND__ *,tagPOINT)
 0001:0005BCCC       loc_45CCCC
 0001:0005BD10       loc_45CD10
 0001:0005BD15       loc_45CD15
 0001:0005BD19       loc_45CD19
 0001:0005BD1B       loc_45CD1B
 0001:0005BD21       AfxSetWindowText(HWND__ *,char const *)
 0001:0005BD68       loc_45CD68
 0001:0005BD74       loc_45CD74
 0001:0005BD79       AfxDeleteObject(void * *)
 0001:0005BD8E       loc_45CD8E
 0001:0005BD92       AfxCancelModes(HWND__ *)
 0001:0005BDD0       loc_45CDD0
 0001:0005BDF3       loc_45CDF3
 0001:0005BE03       loc_45CE03
 0001:0005BE09       AfxGlobalFree(void *)
 0001:0005BE29       loc_45CE29
 0001:0005BE34       loc_45CE34
 0001:0005BE3B       loc_45CE3B
 0001:0005BE3F       AfxCriticalNewHandler(uint)
 0001:0005BE73       loc_45CE73
 0001:0005BE83       loc_45CE83
 0001:0005BE88       loc_45CE88
 0001:0005BE91       CMemFile::CMemFile(uint)
 0001:0005BEC1       sub_45CEC1
 0001:0005BED7       loc_45CED7
 0001:0005BEDD       CMemFile::Attach(uchar *,uint,uint)
 0001:0005BF08       CMemFile::Detach(void)
 0001:0005BF1A       CMemFile::~CMemFile(void)
 0001:0005BF41       loc_45CF41
 0001:0005BF66       std::allocator<char>::allocate(uint)
 0001:0005BF73       sub_45CF73
 0001:0005BF85       sub_45CF85
 0001:0005BFAA       std::allocator<char>::allocate(uint)
 0001:0005BFB7       sub_45CFB7
 0001:0005BFBB       sub_45CFBB
 0001:0005BFD6       loc_45CFD6
 0001:0005BFDD       loc_45CFDD
 0001:0005BFE3       loc_45CFE3
 0001:0005BFF4       loc_45CFF4
 0001:0005BFFD       loc_45CFFD
 0001:0005C008       loc_45D008
 0001:0005C00E       loc_45D00E
 0001:0005C014       sub_45D014
 0001:0005C027       loc_45D027
 0001:0005C02F       loc_45D02F
 0001:0005C037       sub_45D037
 0001:0005C04D       loc_45D04D
 0001:0005C051       loc_45D051
 0001:0005C05C       loc_45D05C
 0001:0005C073       loc_45D073
 0001:0005C078       sub_45D078
 0001:0005C094       loc_45D094
 0001:0005C0B5       loc_45D0B5
 0001:0005C0BA       CMemFile::Seek(long,uint)
 0001:0005C0CF       loc_45D0CF
 0001:0005C0DE       loc_45D0DE
 0001:0005C0E1       loc_45D0E1
 0001:0005C0F0       loc_45D0F0
 0001:0005C0F7       loc_45D0F7
 0001:0005C0FA       loc_45D0FA
 0001:0005C100       nullsub_23
 0001:0005C101       sub_45D101
 0001:0005C125       loc_45D125
 0001:0005C12B       CMemFile::Abort(void)
 0001:0005C130       sub_45D130
 0001:0005C138       sub_45D138
 0001:0005C140       sub_45D140
 0001:0005C157       loc_45D157
 0001:0005C16D       loc_45D16D
 0001:0005C171       loc_45D171
 0001:0005C18C       loc_45D18C
 0001:0005C1AA       loc_45D1AA
 0001:0005C1B4       loc_45D1B4
 0001:0005C1BF       loc_45D1BF
 0001:0005C1CD       loc_45D1CD
 0001:0005C1DC       loc_45D1DC
 0001:0005C1E1       loc_45D1E1
 0001:0005C1E7       sub_45D1E7
 0001:0005C211       loc_45D211
 0001:0005C215       sub_45D215
 0001:0005C259       loc_45D259
 0001:0005C263       loc_45D263
 0001:0005C27D       loc_45D27D
 0001:0005C299       loc_45D299
 0001:0005C29C       loc_45D29C
 0001:0005C2A5       loc_45D2A5
 0001:0005C2BF       loc_45D2BF
 0001:0005C2D8       loc_45D2D8
 0001:0005C2E9       loc_45D2E9
 0001:0005C2FC       sub_45D2FC
 0001:0005C320       loc_45D320
 0001:0005C330       loc_45D330
 0001:0005C334       sub_45D334
 0001:0005C361       loc_45D361
 0001:0005C38D       sub_45D38D
 0001:0005C3B5       loc_45D3B5
 0001:0005C3BD       loc_45D3BD
 0001:0005C3C6       loc_45D3C6
 0001:0005C3D7       loc_45D3D7
 0001:0005C3FF       loc_45D3FF
 0001:0005C402       loc_45D402
 0001:0005C406       loc_45D406
 0001:0005C41D       loc_45D41D
 0001:0005C420       loc_45D420
 0001:0005C429       unknown_libname_108
 0001:0005C435       CWinApp::DoWaitCursor(int)
 0001:0005C475       loc_45D475
 0001:0005C488       loc_45D488
 0001:0005C494       sub_45D494
 0001:0005C4A3       loc_45D4A3
 0001:0005C4A7       sub_45D4A7
 0001:0005C4BA       locret_45D4BA
 0001:0005C4BD       CWinApp::GetNextDocTemplate(__POSITION * &)
 0001:0005C4CF       CWinApp::OnUpdateRecentFileMenu(CCmdUI *)
 0001:0005C4E5       loc_45D4E5
 0001:0005C4EE       locret_45D4EE
 0001:0005C4F1       sub_45D4F1
 0001:0005C506       std::_Ref_count_base::_Get_deleter(type_info const &)
 0001:0005C508       locret_45D508
 0001:0005C536       loc_45D536
 0001:0005C53E       CDataExchange::PrepareCtrl(int)
 0001:0005C55E       loc_45D55E
 0001:0005C56D       DDX_Control(CDataExchange *,int,CWnd &)
 0001:0005C59B       loc_45D59B
 0001:0005C5B4       loc_45D5B4
 0001:0005C5B9       sub_45D5B9
 0001:0005C5FE       loc_45D5FE
 0001:0005C629       loc_45D629
 0001:0005C62E       AfxFormatStrings(CString &,uint,char const * const *,int)
 0001:0005C664       locret_45D664
 0001:0005C668       AfxFormatStrings(CString &,char const *,char const * const *,int)
 0001:0005C679       loc_45D679
 0001:0005C68B       loc_45D68B
 0001:0005C69F       loc_45D69F
 0001:0005C6A5       loc_45D6A5
 0001:0005C6C1       loc_45D6C1
 0001:0005C6CF       loc_45D6CF
 0001:0005C6D0       loc_45D6D0
 0001:0005C6D1       loc_45D6D1
 0001:0005C6D6       loc_45D6D6
 0001:0005C6E3       loc_45D6E3
 0001:0005C6FA       loc_45D6FA
 0001:0005C70E       loc_45D70E
 0001:0005C714       loc_45D714
 0001:0005C721       loc_45D721
 0001:0005C73E       loc_45D73E
 0001:0005C74E       loc_45D74E
 0001:0005C756       loc_45D756
 0001:0005C767       sub_45D767
 0001:0005C77E       sub_45D77E
 0001:0005C7B6       sub_45D7B6
 0001:0005C7EE       sub_45D7EE
 0001:0005C80A       loc_45D80A
 0001:0005C818       loc_45D818
 0001:0005C81C       CListBox::GetText(int,CString &)
 0001:0005C85F       sub_45D85F
 0001:0005C897       nullsub_24
 0001:0005C89A       std::_Ref_count_base::_Get_deleter(type_info const &)
 0001:0005C89F       CComboBox::OnChildNotify(uint,uint,long,long *)
 0001:0005C8C8       loc_45D8C8
 0001:0005C8DA       loc_45D8DA
 0001:0005C8E7       loc_45D8E7
 0001:0005C8F4       loc_45D8F4
 0001:0005C8FF       loc_45D8FF
 0001:0005C902       loc_45D902
 0001:0005C906       sub_45D906
 0001:0005C927       sub_45D927
 0001:0005C95F       _AFX_CHECKLIST_STATE::_AFX_CHECKLIST_STATE(void)
 0001:0005C9A6       loc_45D9A6
 0001:0005C9AB       loc_45D9AB
 0001:0005CA01       sub_45DA01
 0001:0005CA16       loc_45DA16
 0001:0005CA1C       sub_45DA1C
 0001:0005CA30       locret_45DA30
 0001:0005CA31       sub_45DA31
 0001:0005CA4A       loc_45DA4A
 0001:0005CA84       loc_45DA84
 0001:0005CA86       loc_45DA86
 0001:0005CAA7       loc_45DAA7
 0001:0005CAAC       sub_45DAAC
 0001:0005CACC       loc_45DACC
 0001:0005CACE       locret_45DACE
 0001:0005CAD1       sub_45DAD1
 0001:0005CAF2       loc_45DAF2
 0001:0005CAF5       locret_45DAF5
 0001:0005CAF8       CCheckListBox::CalcMinimumItemHeight(void)
 0001:0005CB71       loc_45DB71
 0001:0005CB7F       loc_45DB7F
 0001:0005CB83       loc_45DB83
 0001:0005CB93       CCheckListBox::InvalidateCheck(int)
 0001:0005CBE5       CCheckListBox::CheckFromPoint(CPoint,int &)
 0001:0005CC70       loc_45DC70
 0001:0005CC83       loc_45DC83
 0001:0005CCBE       loc_45DCBE
 0001:0005CCD1       loc_45DCD1
 0001:0005CCDB       loc_45DCDB
 0001:0005CCE5       sub_45DCE5
 0001:0005CD2B       loc_45DD2B
 0001:0005CD4D       loc_45DD4D
 0001:0005CD53       loc_45DD53
 0001:0005CD5D       sub_45DD5D
 0001:0005CDDA       loc_45DDDA
 0001:0005CE22       loc_45DE22
 0001:0005CE29       loc_45DE29
 0001:0005CE4D       loc_45DE4D
 0001:0005CE54       loc_45DE54
 0001:0005CE5A       CCheckListBox::OnLButtonDblClk(uint,CPoint)
 0001:0005CE88       loc_45DE88
 0001:0005CE8F       loc_45DE8F
 0001:0005CE94       sub_45DE94
 0001:0005CF36       loc_45DF36
 0001:0005CF67       loc_45DF67
 0001:0005CF74       loc_45DF74
 0001:0005CF76       loc_45DF76
 0001:0005CF80       loc_45DF80
 0001:0005CFA3       loc_45DFA3
 0001:0005CFCE       loc_45DFCE
 0001:0005CFEE       loc_45DFEE
 0001:0005CFF2       loc_45DFF2
 0001:0005CFF9       loc_45DFF9
 0001:0005D012       loc_45E012
 0001:0005D03B       loc_45E03B
 0001:0005D03D       loc_45E03D
 0001:0005D041       CCheckListBox::OnSetFont(uint,long)
 0001:0005D072       loc_45E072
 0001:0005D0A1       loc_45E0A1
 0001:0005D0A3       loc_45E0A3
 0001:0005D0B0       loc_45E0B0
 0001:0005D0D9       loc_45E0D9
 0001:0005D108       loc_45E108
 0001:0005D117       loc_45E117
 0001:0005D12A       loc_45E12A
 0001:0005D152       loc_45E152
 0001:0005D157       loc_45E157
 0001:0005D15A       loc_45E15A
 0001:0005D189       loc_45E189
 0001:0005D198       loc_45E198
 0001:0005D1AB       loc_45E1AB
 0001:0005D1D3       loc_45E1D3
 0001:0005D1D8       loc_45E1D8
 0001:0005D1DB       loc_45E1DB
 0001:0005D203       locret_45E203
 0001:0005D258       loc_45E258
 0001:0005D25A       loc_45E25A
 0001:0005D267       loc_45E267
 0001:0005D290       loc_45E290
 0001:0005D2BF       loc_45E2BF
 0001:0005D2CE       loc_45E2CE
 0001:0005D2E1       loc_45E2E1
 0001:0005D309       loc_45E309
 0001:0005D31D       loc_45E31D
 0001:0005D320       loc_45E320
 0001:0005D366       loc_45E366
 0001:0005D368       loc_45E368
 0001:0005D36A       loc_45E36A
 0001:0005D393       loc_45E393
 0001:0005D3B6       loc_45E3B6
 0001:0005D3B8       loc_45E3B8
 0001:0005D3D4       loc_45E3D4
 0001:0005D3E4       loc_45E3E4
 0001:0005D3F5       CDC::FillSolidRect(tagRECT const *,ulong)
 0001:0005D41F       sub_45E41F
 0001:0005D46B       CSharedFile::CSharedFile(uint,uint)
 0001:0005D495       sub_45E495
 0001:0005D4AB       loc_45E4AB
 0001:0005D4B1       CSharedFile::~CSharedFile(void)
 0001:0005D4D7       loc_45E4D7
 0001:0005D4EF       sub_45E4EF
 0001:0005D50E       locret_45E50E
 0001:0005D511       CSharedFile::Realloc(uchar *,ulong)
 0001:0005D537       loc_45E537
 0001:0005D53B       loc_45E53B
 0001:0005D545       loc_45E545
 0001:0005D549       CSharedFile::Free(uchar *)
 0001:0005D562       CSharedFile::Detach(void)
 0001:0005D571       AfxOleCanExitApp(void)
 0001:0005D581       AfxOleGetUserCtrl(void)
 0001:0005D58A       sub_45E58A
 0001:0005D59A       unknown_libname_109
 0001:0005D5AC       loc_45E5AC
 0001:0005D5B8       loc_45E5B8
 0001:0005D5C2       sub_45E5C2
 0001:0005D5D2       unknown_libname_110
 0001:0005D5E4       loc_45E5E4
 0001:0005D5F0       loc_45E5F0
 0001:0005D5FA       CThreadLocal<_AFX_THREAD_STATE>::CreateObject(void)
 0001:0005D622       loc_45E622
 0001:0005D62E       sub_45E62E
 0001:0005D634       sub_45E634
 0001:0005D63A       sub_45E63A
 0001:0005D64A       unknown_libname_111
 0001:0005D65C       loc_45E65C
 0001:0005D668       loc_45E668
 0001:0005D672       sub_45E672
 0001:0005D682       unknown_libname_112
 0001:0005D694       loc_45E694
 0001:0005D6A0       loc_45E6A0
 0001:0005D6BE       loc_45E6BE
 0001:0005D6C1       sub_45E6C1
 0001:0005D6C7       sub_45E6C7
 0001:0005D6CD       sub_45E6CD
 0001:0005D6D3       sub_45E6D3
 0001:0005D6F0       loc_45E6F0
 0001:0005D6F3       sub_45E6F3
 0001:0005D6F9       sub_45E6F9
 0001:0005D6FF       sub_45E6FF
 0001:0005D705       sub_45E705
 0001:0005D70B       sub_45E70B
 0001:0005D711       sub_45E711
 0001:0005D717       sub_45E717
 0001:0005D73F       loc_45E73F
 0001:0005D743       sub_45E743
 0001:0005D75D       loc_45E75D
 0001:0005D763       sub_45E763
 0001:0005D768       sub_45E768
 0001:0005D787       loc_45E787
 0001:0005D78A       sub_45E78A
 0001:0005D7A4       loc_45E7A4
 0001:0005D7AA       sub_45E7AA
 0001:0005D7D3       sub_45E7D3
 0001:0005D7E3       sub_45E7E3
 0001:0005D7F2       loc_45E7F2
 0001:0005D7FE       unknown_libname_113
 0001:0005D818       locret_45E818
 0001:0005D823       sub_45E823
 0001:0005D832       loc_45E832
 0001:0005D83E       unknown_libname_114
 0001:0005D858       locret_45E858
 0001:0005D859       sub_45E859
 0001:0005D85F       CWnd::CreateObject(void)
 0001:0005D885       loc_45E885
 0001:0005D891       sub_45E891
 0001:0005D897       sub_45E897
 0001:0005D8CA       loc_45E8CA
 0001:0005D8D7       sub_45E8D7
 0001:0005D8F1       loc_45E8F1
 0001:0005D8F7       CWnd::~CWnd(void)
 0001:0005D8FC       sub_45E8FC
 0001:0005D90C       sub_45E90C
 0001:0005D91B       loc_45E91B
 0001:0005D927       unknown_libname_115
 0001:0005D941       locret_45E941
 0001:0005D942       sub_45E942
 0001:0005D967       loc_45E967
 0001:0005D973       CProcessLocal<_AFX_CTL3D_STATE>::CreateObject(void)
 0001:0005D985       loc_45E985
 0001:0005D988       sub_45E988
 0001:0005D99D       loc_45E99D
 0001:0005D9A3       sub_45E9A3
 0001:0005D9A9       sub_45E9A9
 0001:0005D9AF       sub_45E9AF
 0001:0005D9B5       sub_45E9B5
 0001:0005D9BB       sub_45E9BB
 0001:0005D9CB       nullsub_13
 0001:0005D9CC       loc_45E9CC
 0001:0005D9D8       loc_45E9D8
 0001:0005D9E2       sub_45E9E2
 0001:0005DA07       loc_45EA07
 0001:0005DA13       sub_45EA13
 0001:0005DA19       _AFX_THREAD_STATE::_AFX_THREAD_STATE(void)
 0001:0005DA30       sub_45EA30
 0001:0005DA45       loc_45EA45
 0001:0005DA4B       sub_45EA4B
 0001:0005DA89       loc_45EA89
 0001:0005DA99       loc_45EA99
 0001:0005DAA3       loc_45EAA3
 0001:0005DAB1       loc_45EAB1
 0001:0005DABF       AfxGetThreadState(void)
 0001:0005DAD9       nullsub_14
 0001:0005DADA       loc_45EADA
 0001:0005DAE6       loc_45EAE6
 0001:0005DAF0       AFX_MODULE_STATE::AFX_MODULE_STATE(int)
 0001:0005DB53       sub_45EB53
 0001:0005DB68       loc_45EB68
 0001:0005DB6E       sub_45EB6E
 0001:0005DB9D       loc_45EB9D
 0001:0005DBC6       loc_45EBC6
 0001:0005DBE3       CThreadLocalObject::~CThreadLocalObject(void)
 0001:0005DBE8       sub_45EBE8
 0001:0005DC07       sub_45EC07
 0001:0005DC1C       loc_45EC1C
 0001:0005DC22       sub_45EC22
 0001:0005DC4D       loc_45EC4D
 0001:0005DC59       loc_45EC59
 0001:0005DC65       loc_45EC65
 0001:0005DC71       loc_45EC71
 0001:0005DC7D       loc_45EC7D
 0001:0005DC84       loc_45EC84
 0001:0005DC9B       loc_45EC9B
 0001:0005DCA8       loc_45ECA8
 0001:0005DCB5       loc_45ECB5
 0001:0005DCC2       loc_45ECC2
 0001:0005DCDA       nullsub_15
 0001:0005DCDB       loc_45ECDB
 0001:0005DCE7       loc_45ECE7
 0001:0005DCF1       AfxGetModuleState(void)
 0001:0005DD16       locret_45ED16
 0001:0005DD17       AfxGetModuleThreadState(void)
 0001:0005DD2E       CTypeLibCache::Unlock(void)
 0001:0005DD50       loc_45ED50
 0001:0005DD61       loc_45ED61
 0001:0005DD63       sub_45ED63
 0001:0005DD76       loc_45ED76
 0001:0005DD79       loc_45ED79
 0001:0005DD9D       loc_45ED9D
 0001:0005DDA1       sub_45EDA1
 0001:0005DDB6       loc_45EDB6
 0001:0005DDBC       sub_45EDBC
 0001:0005DDD5       loc_45EDD5
 0001:0005DDD8       sub_45EDD8
 0001:0005DDE3       loc_45EDE3
 0001:0005DDEE       CSimpleList::AddHead(void *)
 0001:0005DE01       sub_45EE01
 0001:0005DE0B       loc_45EE0B
 0001:0005DE20       loc_45EE20
 0001:0005DE28       loc_45EE28
 0001:0005DE35       loc_45EE35
 0001:0005DE40       loc_45EE40
 0001:0005DE43       loc_45EE43
 0001:0005DE44       locret_45EE44
 0001:0005DE47       CNoTrackObject::operator new(uint)
 0001:0005DE5F       loc_45EE5F
 0001:0005DE65       CNoTrackObject::operator delete(void *)
 0001:0005DE76       locret_45EE76
 0001:0005DE79       CThreadSlotData::CThreadSlotData(void)
 0001:0005DEAD       loc_45EEAD
 0001:0005DEBB       CThreadSlotData::~CThreadSlotData(void)
 0001:0005DECD       loc_45EECD
 0001:0005DED4       loc_45EED4
 0001:0005DEE7       loc_45EEE7
 0001:0005DF05       loc_45EF05
 0001:0005DF12       sub_45EF12
 0001:0005DF3E       loc_45EF3E
 0001:0005DF4B       loc_45EF4B
 0001:0005DF58       loc_45EF58
 0001:0005DF60       loc_45EF60
 0001:0005DF7E       loc_45EF7E
 0001:0005DFA0       loc_45EFA0
 0001:0005DFC9       loc_45EFC9
 0001:0005DFF7       loc_45EFF7
 0001:0005E002       loc_45F002
 0001:0005E024       CThreadSlotData::FreeSlot(int)
 0001:0005E044       loc_45F044
 0001:0005E059       loc_45F059
 0001:0005E060       loc_45F060
 0001:0005E067       loc_45F067
 0001:0005E081       sub_45F081
 0001:0005E0B2       loc_45F0B2
 0001:0005E0C7       loc_45F0C7
 0001:0005E0C9       loc_45F0C9
 0001:0005E0F4       loc_45F0F4
 0001:0005E10C       loc_45F10C
 0001:0005E11C       loc_45F11C
 0001:0005E128       loc_45F128
 0001:0005E158       loc_45F158
 0001:0005E16B       sub_45F16B
 0001:0005E180       loc_45F180
 0001:0005E186       nullsub_8
 0001:0005E187       sub_45F187
 0001:0005E19E       loc_45F19E
 0001:0005E1BD       loc_45F1BD
 0001:0005E1CD       loc_45F1CD
 0001:0005E1D4       loc_45F1D4
 0001:0005E1E0       loc_45F1E0
 0001:0005E20F       loc_45F20F
 0001:0005E219       loc_45F219
 0001:0005E220       CThreadSlotData::DeleteValues(HINSTANCE__ *,int)
 0001:0005E24F       loc_45F24F
 0001:0005E257       loc_45F257
 0001:0005E26D       loc_45F26D
 0001:0005E279       CThreadLocalObject::GetData(CNoTrackObject * (*)(void))
 0001:0005E2A0       loc_45F2A0
 0001:0005E2A2       loc_45F2A2
 0001:0005E2A8       loc_45F2A8
 0001:0005E2AF       loc_45F2AF
 0001:0005E2CF       loc_45F2CF
 0001:0005E2D1       loc_45F2D1
 0001:0005E2E9       loc_45F2E9
 0001:0005E2F0       CThreadLocalObject::~CThreadLocalObject(void)
 0001:0005E309       loc_45F309
 0001:0005E30E       sub_45F30E
 0001:0005E33B       loc_45F33B
 0001:0005E346       loc_45F346
 0001:0005E359       sub_45F359
 0001:0005E369       CProcessLocalObject::~CProcessLocalObject(void)
 0001:0005E38C       locret_45F38C
 0001:0005E38E       AfxTermLocalData(HINSTANCE__ *,int)
 0001:0005E3A5       locret_45F3A5
 0001:0005E3A8       AfxTlsRelease(void)
 0001:0005E3B9       loc_45F3B9
 0001:0005E3CF       locret_45F3CF
 0001:0005E3D0       sub_45F3D0
 0001:0005E3D9       sub_45F3D9
 0001:0005E3EE       loc_45F3EE
 0001:0005E3F4       CWinApp::CWinApp(char const *)
 0001:0005E42A       loc_45F42A
 0001:0005E42D       loc_45F42D
 0001:0005E4DE       sub_45F4DE
 0001:0005E4F4       loc_45F4F4
 0001:0005E4FA       CWinApp::InitApplication(void)
 0001:0005E515       loc_45F515
 0001:0005E51C       loc_45F51C
 0001:0005E52F       loc_45F52F
 0001:0005E536       loc_45F536
 0001:0005E53A       sub_45F53A
 0001:0005E53E       sub_45F53E
 0001:0005E56C       loc_45F56C
 0001:0005E57D       loc_45F57D
 0001:0005E59E       loc_45F59E
 0001:0005E5B5       loc_45F5B5
 0001:0005E5C5       loc_45F5C5
 0001:0005E5D5       loc_45F5D5
 0001:0005E5EB       loc_45F5EB
 0001:0005E5FA       loc_45F5FA
 0001:0005E60C       loc_45F60C
 0001:0005E61C       loc_45F61C
 0001:0005E624       loc_45F624
 0001:0005E674       sub_45F674
 0001:0005E686       loc_45F686
 0001:0005E6A2       loc_45F6A2
 0001:0005E6A4       CWinApp::ExitInstance(void)
 0001:0005E6B7       loc_45F6B7
 0001:0005E6C9       loc_45F6C9
 0001:0005E6D5       loc_45F6D5
 0001:0005E6DA       sub_45F6DA
 0001:0005E6EA       nullsub_16
 0001:0005E6EB       loc_45F6EB
 0001:0005E6F7       loc_45F6F7
 0001:0005E701       sub_45F701
 0001:0005E71B       loc_45F71B
 0001:0005E71E       sub_45F71E
 0001:0005E746       loc_45F746
 0001:0005E74A       sub_45F74A
 0001:0005E764       loc_45F764
 0001:0005E76A       sub_45F76A
 0001:0005E76F       sub_45F76F
 0001:0005E77F       sub_45F77F
 0001:0005E78E       loc_45F78E
 0001:0005E79A       unknown_libname_116
 0001:0005E7B4       locret_45F7B4
 0001:0005E7B5       sub_45F7B5
 0001:0005E7BB       sub_45F7BB
 0001:0005E7C1       _AfxLoadDotBitmap(void)
 0001:0005E7E7       loc_45F7E7
 0001:0005E808       loc_45F808
 0001:0005E812       loc_45F812
 0001:0005E84D       loc_45F84D
 0001:0005E89F       locret_45F89F
 0001:0005E8A1       sub_45F8A1
 0001:0005E8B7       loc_45F8B7
 0001:0005E8BD       CWinThread::CWinThread(void)
 0001:0005E8FA       CWinThread::CommonConstruct(void)
 0001:0005E92C       sub_45F92C
 0001:0005E932       sub_45F932
 0001:0005E944       loc_45F944
 0001:0005E947       sub_45F947
 0001:0005E95C       loc_45F95C
 0001:0005E979       loc_45F979
 0001:0005E97C       sub_45F97C
 0001:0005E99B       loc_45F99B
 0001:0005E99E       sub_45F99E
 0001:0005E9B8       loc_45F9B8
 0001:0005E9BE       sub_45F9BE
 0001:0005E9E7       sub_45F9E7
 0001:0005E9F7       sub_45F9F7
 0001:0005EA06       loc_45FA06
 0001:0005EA12       unknown_libname_117
 0001:0005EA2C       locret_45FA2C
 0001:0005EA41       loc_45FA41
 0001:0005EA44       sub_45FA44
 0001:0005EA4F       loc_45FA4F
 0001:0005EA6E       loc_45FA6E
 0001:0005EA71       sub_45FA71
 0001:0005EA7C       loc_45FA7C
 0001:0005EA87       sub_45FA87
 0001:0005EA8D       sub_45FA8D
 0001:0005EA93       sub_45FA93
 0001:0005EA99       sub_45FA99
 0001:0005EAA9       nullsub_17
 0001:0005EAAA       loc_45FAAA
 0001:0005EAB6       loc_45FAB6
 0001:0005EAC0       loc_45FAC0
 0001:0005EAC5       loc_45FAC5
 0001:0005EAD8       loc_45FAD8
 0001:0005EADB       sub_45FADB
 0001:0005EB27       loc_45FB27
 0001:0005EB38       loc_45FB38
 0001:0005EB3E       CWinApp::SetCurrentHandles(void)
 0001:0005EBBC       loc_45FBBC
 0001:0005EBE4       loc_45FBE4
 0001:0005EBEA       loc_45FBEA
 0001:0005EBF3       loc_45FBF3
 0001:0005EC28       loc_45FC28
 0001:0005EC56       loc_45FC56
 0001:0005EC5B       AfxGetFileName(char const *,char *,uint)
 0001:0005EC63       loc_45FC63
 0001:0005EC76       loc_45FC76
 0001:0005EC7F       loc_45FC7F
 0001:0005EC8A       loc_45FC8A
 0001:0005EC9B       loc_45FC9B
 0001:0005ECAC       loc_45FCAC
 0001:0005ECB1       sub_45FCB1
 0001:0005ECD7       loc_45FCD7
 0001:0005ECE5       loc_45FCE5
 0001:0005ECF2       sub_45FCF2
 0001:0005ED1C       loc_45FD1C
 0001:0005ED28       AfxGetCtl3dState(void)
 0001:0005ED42       nullsub_18
 0001:0005ED43       loc_45FD43
 0001:0005ED4F       loc_45FD4F
 0001:0005ED63       nullsub_19
 0001:0005ED64       loc_45FD64
 0001:0005ED70       loc_45FD70
 0001:0005ED84       sub_45FD84
 0001:0005ED8E       loc_45FD8E
 0001:0005ED9A       loc_45FD9A
 0001:0005EDA4       AfxEnableWin40Compatibility(void)
 0001:0005EDD3       locret_45FDD3
 0001:0005EDD4       AfxEnableWin31Compatibility(void)
 0001:0005EDF6       AUX_DATA::AUX_DATA(void)
 0001:0005EE49       loc_45FE49
 0001:0005EE91       AfxInitDBCS(void)
 0001:0005EEB9       loc_45FEB9
 0001:0005EEC4       sub_45FEC4
 0001:0005EEF0       loc_45FEF0
 0001:0005EF02       loc_45FF02
 0001:0005EF09       sub_45FF09
 0001:0005EF3B       loc_45FF3B
 0001:0005EF45       loc_45FF45
 0001:0005EF56       locret_45FF56
 0001:0005EF57       sub_45FF57
 0001:0005EF67       loc_45FF67
 0001:0005EFAC       loc_45FFAC
 0001:0005EFB4       loc_45FFB4
 0001:0005EFC3       loc_45FFC3
 0001:0005EFC7       AfxUnlockGlobals(int)
 0001:0005EFE5       locret_45FFE5
 0001:0005EFE8       CWinApp::GetAppRegistryKey(void)
 0001:0005F005       loc_460005
 0001:0005F05A       loc_46005A
 0001:0005F06A       loc_46006A
 0001:0005F074       loc_460074
 0001:0005F07C       CWinApp::GetSectionKey(char const *)
 0001:0005F097       loc_460097
 0001:0005F0BC       loc_4600BC
 0001:0005F0C2       sub_4600C2
 0001:0005F0C8       sub_4600C8
 0001:0005F0F5       AfxPostQuitMessage(int)
 0001:0005F10B       loc_46010B
 0001:0005F118       CWinThread::~CWinThread(void)
 0001:0005F141       loc_460141
 0001:0005F14F       loc_46014F
 0001:0005F167       loc_460167
 0001:0005F171       AfxWinTerm(void)
 0001:0005F18A       loc_46018A
 0001:0005F1B0       loc_4601B0
 0001:0005F1D2       loc_4601D2
 0001:0005F1F7       loc_4601F7
 0001:0005F214       loc_460214
 0001:0005F221       loc_460221
 0001:0005F230       sub_460230
 0001:0005F238       SEH_401180
 0001:0005F250       sub_460250
 0001:0005F258       SEH_4011C0
 0001:0005F270       unknown_libname_239
 0001:0005F27B       SEH_401200
 0001:0005F290       unknown_libname_240
 0001:0005F298       sub_460298
 0001:0005F2A0       SEH_401740
 0001:0005F2B0       unknown_libname_241
 0001:0005F2B8       sub_4602B8
 0001:0005F2C0       SEH_401890
 0001:0005F2D0       unknown_libname_242
 0001:0005F2DB       sub_4602DB
 0001:0005F2E3       SEH_401E40
 0001:0005F2F0       unknown_libname_243
 0001:0005F2F8       sub_4602F8
 0001:0005F300       unknown_libname_119
 0001:0005F310       sub_460310
 0001:0005F318       ?OnDeltapos@CSpin@@IAEXPAUtagNMHDR@@PAJ@Z_SEH
 0001:0005F330       sub_460330
 0001:0005F338       SEH_4026D0
 0001:0005F350       sub_460350
 0001:0005F358       ?OnMyNcPaint@CUEdit@@QAEJIJ@Z_SEH
 0001:0005F370       sub_460370
 0001:0005F378       ?OnNcCalcSize@CUEdit@@QAEXHPAUtagNCCALCSIZE_PARAMS@@@Z_SEH
 0001:0005F390       sub_460390
 0001:0005F398       SEH_402B20
 0001:0005F3B0       sub_4603B0
 0001:0005F3B8       ?OnKillfocus@CUEdit@@QAEXXZ_SEH
 0001:0005F3D0       unknown_libname_244
 0001:0005F3D8       sub_4603D8
 0001:0005F3E0       ?OnPaint@CUTab@@IAEXXZ_SEH
 0001:0005F3F0       sub_4603F0
 0001:0005F3F8       SEH_403700
 0001:0005F410       unknown_libname_245
 0001:0005F418       sub_460418
 0001:0005F420       sub_460420
 0001:0005F428       sub_460428
 0001:0005F430       SEH_4037C0
 0001:0005F440       sub_460440
 0001:0005F448       SEH_403B30
 0001:0005F460       unknown_libname_246
 0001:0005F46B       sub_46046B
 0001:0005F476       sub_460476
 0001:0005F47E       sub_46047E
 0001:0005F489       sub_460489
 0001:0005F494       sub_460494
 0001:0005F49C       sub_46049C
 0001:0005F4A7       sub_4604A7
 0001:0005F4B2       sub_4604B2
 0001:0005F4BD       sub_4604BD
 0001:0005F4C8       sub_4604C8
 0001:0005F4D3       sub_4604D3
 0001:0005F4DE       ?OnPaint@CULabel@@IAEXXZ_SEH
 0001:0005F4F0       unknown_libname_247
 0001:0005F4F8       sub_4604F8
 0001:0005F500       SEH_404170
 0001:0005F510       sub_460510
 0001:0005F518       SEH_404320
 0001:0005F530       unknown_libname_248
 0001:0005F538       sub_460538
 0001:0005F543       sub_460543
 0001:0005F54E       sub_46054E
 0001:0005F559       sub_460559
 0001:0005F564       sub_460564
 0001:0005F56F       sub_46056F
 0001:0005F57A       sub_46057A
 0001:0005F585       sub_460585
 0001:0005F590       ?OnPaint@CUShapeBox@@IAEXXZ_SEH
 0001:0005F5A0       sub_4605A0
 0001:0005F5A8       SEH_404960
 0001:0005F5C0       sub_4605C0
 0001:0005F5C8       SEH_405020
 0001:0005F5E0       unknown_libname_249
 0001:0005F5EB       SEH_405550
 0001:0005F600       unknown_libname_250
 0001:0005F608       sub_460608
 0001:0005F610       sub_460610
 0001:0005F618       sub_460618
 0001:0005F620       sub_460620
 0001:0005F628       SEH_405700
 0001:0005F640       sub_460640
 0001:0005F648       ?OnSelchange@CUFileBox@@IAEXXZ_SEH
 0001:0005F660       unknown_libname_251
 0001:0005F66B       SEH_405F40
 0001:0005F680       unknown_libname_252
 0001:0005F688       sub_460688
 0001:0005F693       sub_460693
 0001:0005F69E       sub_46069E
 0001:0005F6A9       sub_4606A9
 0001:0005F6B4       sub_4606B4
 0001:0005F6BF       __ehhandler$?UpdateDialogControls@CWnd@@QAEXPAVCCmdTarget@@H@Z
 0001:0005F6D0       sub_4606D0
 0001:0005F6D8       SEH_406400
 0001:0005F6F0       unknown_libname_253
 0001:0005F6FA       ?Create_Timer@@YGKPAEHKPAUHWND__@@IPAUHMENU__@@HHHHKK1H@Z_SEH
 0001:0005F710       sub_460710
 0001:0005F718       SEH_406920
 0001:0005F730       sub_460730
 0001:0005F738       SEH_406AA0
 0001:0005F750       sub_460750
 0001:0005F758       SEH_406E60
 0001:0005F770       sub_460770
 0001:0005F778       SEH_407380
 0001:0005F790       sub_460790
 0001:0005F798       SEH_4075F0
 0001:0005F7B0       sub_4607B0
 0001:0005F7B8       loc_4607B8
 0001:0005F7D0       sub_4607D0
 0001:0005F7D8       loc_4607D8
 0001:0005F7F0       sub_4607F0
 0001:0005F7F8       ?OnLButtonDblClk@CUChkListBox@@IAEXIVCPoint@@@Z_SEH
 0001:0005F810       unknown_libname_254
 0001:0005F818       sub_460818
 0001:0005F820       sub_460820
 0001:0005F828       sub_460828
 0001:0005F830       sub_460830
 0001:0005F838       SEH_407EA0
 0001:0005F850       unknown_libname_255
 0001:0005F85B       sub_46085B
 0001:0005F866       ?OnPaint@CUDrawPanel@@IAEXXZ_SEH
 0001:0005F870       unknown_libname_256
 0001:0005F878       sub_460878
 0001:0005F880       sub_460880
 0001:0005F888       sub_460888
 0001:0005F890       sub_460890
 0001:0005F898       sub_460898
 0001:0005F8A0       sub_4608A0
 0001:0005F8A8       sub_4608A8
 0001:0005F8B0       sub_4608B0
 0001:0005F8B8       sub_4608B8
 0001:0005F8C0       SEH_4084A0
 0001:0005F8D0       unknown_libname_257
 0001:0005F8D8       sub_4608D8
 0001:0005F8E0       ?OnPaint@CUDataSource@@IAEXXZ_SEH
 0001:0005F8F0       sub_4608F0
 0001:0005F8F8       ?OnDestroy@CUDataSource@@IAEXXZ_SEH
 0001:0005F910       sub_460910
 0001:0005F918       ?OnGetColName@CUDataSource@@IAEJIJ@Z_SEH
 0001:0005F930       unknown_libname_258
 0001:0005F938       sub_460938
 0001:0005F940       sub_460940
 0001:0005F948       ?OnPaint@CUGrid@@IAEXXZ_SEH
 0001:0005F960       unknown_libname_259
 0001:0005F968       sub_460968
 0001:0005F970       ?OnPaint@CUErrorControl@@IAEXXZ_SEH
 0001:0005F980       unknown_libname_260
 0001:0005F988       sub_460988
 0001:0005F993       __ehhandler$??0CDHtmlElementEventSink@@QAE@PAVCDHtmlEventSink@@PAUIDispatch@@@Z
 0001:0005F9A0       unknown_libname_261
 0001:0005F9AB       __ehhandler$??0CDHtmlElementEventSink@@QAE@PAVCDHtmlEventSink@@PAUIDispatch@@@Z_0
 0001:0005F9C0       unknown_libname_262
 0001:0005F9CB       sub_4609CB
 0001:0005F9D6       sub_4609D6
 0001:0005F9E1       unknown_libname_121
 0001:0005F9F0       unknown_libname_263
 0001:0005F9F8       sub_4609F8
 0001:0005FA06       sub_460A06
 0001:0005FA14       sub_460A14
 0001:0005FA22       sub_460A22
 0001:0005FA30       sub_460A30
 0001:0005FA3E       sub_460A3E
 0001:0005FA4C       sub_460A4C
 0001:0005FA5A       sub_460A5A
 0001:0005FA68       sub_460A68
 0001:0005FA76       sub_460A76
 0001:0005FA84       sub_460A84
 0001:0005FA92       sub_460A92
 0001:0005FAA0       sub_460AA0
 0001:0005FAAE       sub_460AAE
 0001:0005FABC       sub_460ABC
 0001:0005FACA       sub_460ACA
 0001:0005FAD8       sub_460AD8
 0001:0005FAE6       sub_460AE6
 0001:0005FAF4       sub_460AF4
 0001:0005FB02       sub_460B02
 0001:0005FB10       sub_460B10
 0001:0005FB1E       sub_460B1E
 0001:0005FB2C       sub_460B2C
 0001:0005FB3A       sub_460B3A
 0001:0005FB48       sub_460B48
 0001:0005FB56       sub_460B56
 0001:0005FB64       sub_460B64
 0001:0005FB72       sub_460B72
 0001:0005FB80       sub_460B80
 0001:0005FB8E       sub_460B8E
 0001:0005FB9C       sub_460B9C
 0001:0005FBAA       sub_460BAA
 0001:0005FBB8       unknown_libname_122
 0001:0005FBD0       unknown_libname_264
 0001:0005FBD8       sub_460BD8
 0001:0005FBE3       __ehhandler$??0CDHtmlElementEventSink@@QAE@PAVCDHtmlEventSink@@PAUIDispatch@@@Z_1
 0001:0005FBF0       unknown_libname_265
 0001:0005FBFB       __ehhandler$??0CDHtmlElementEventSink@@QAE@PAVCDHtmlEventSink@@PAUIDispatch@@@Z_2
 0001:0005FC10       unknown_libname_266
 0001:0005FC18       sub_460C18
 0001:0005FC26       sub_460C26
 0001:0005FC34       sub_460C34
 0001:0005FC42       sub_460C42
 0001:0005FC50       sub_460C50
 0001:0005FC5E       sub_460C5E
 0001:0005FC6C       sub_460C6C
 0001:0005FC7A       sub_460C7A
 0001:0005FC88       sub_460C88
 0001:0005FC96       sub_460C96
 0001:0005FCA4       sub_460CA4
 0001:0005FCB2       sub_460CB2
 0001:0005FCC0       sub_460CC0
 0001:0005FCCE       sub_460CCE
 0001:0005FCDC       sub_460CDC
 0001:0005FCEA       sub_460CEA
 0001:0005FCF8       sub_460CF8
 0001:0005FD06       sub_460D06
 0001:0005FD14       sub_460D14
 0001:0005FD22       sub_460D22
 0001:0005FD30       sub_460D30
 0001:0005FD3E       sub_460D3E
 0001:0005FD4C       sub_460D4C
 0001:0005FD5A       sub_460D5A
 0001:0005FD68       sub_460D68
 0001:0005FD76       sub_460D76
 0001:0005FD84       sub_460D84
 0001:0005FD92       sub_460D92
 0001:0005FDA0       sub_460DA0
 0001:0005FDAE       sub_460DAE
 0001:0005FDBC       sub_460DBC
 0001:0005FDCA       sub_460DCA
 0001:0005FDD8       sub_460DD8
 0001:0005FDE6       sub_460DE6
 0001:0005FDEE       sub_460DEE
 0001:0005FDF9       __ehhandler$??0CDHtmlElementEventSink@@QAE@PAVCDHtmlEventSink@@PAUIDispatch@@@Z_3
 0001:0005FE10       unknown_libname_267
 0001:0005FE1A       sub_460E1A
 0001:0005FE22       SEH_40B880
 0001:0005FE30       unknown_libname_268
 0001:0005FE38       sub_460E38
 0001:0005FE40       SEH_40C820
 0001:0005FE50       sub_460E50
 0001:0005FE58       unknown_libname_124
 0001:0005FE70       unknown_libname_269
 0001:0005FE78       sub_460E78
 0001:0005FE80       sub_460E80
 0001:0005FE88       sub_460E88
 0001:0005FE90       unknown_libname_125
 0001:0005FEA0       sub_460EA0
 0001:0005FEA8       unknown_libname_126
 0001:0005FEC0       unknown_libname_270
 0001:0005FEC8       sub_460EC8
 0001:0005FED0       sub_460ED0
 0001:0005FED8       sub_460ED8
 0001:0005FEE0       unknown_libname_127
 0001:0005FEF0       sub_460EF0
 0001:0005FEF8       unknown_libname_128
 0001:0005FF10       sub_460F10
 0001:0005FF18       unknown_libname_129
 0001:0005FF30       sub_460F30
 0001:0005FF38       unknown_libname_130
 0001:0005FF50       sub_460F50
 0001:0005FF58       unknown_libname_131
 0001:0005FF70       sub_460F70
 0001:0005FF78       SEH_411170
 0001:0005FF90       unknown_libname_271
 0001:0005FF9A       SEH_411980
 0001:0005FFB0       unknown_libname_272
 0001:0005FFBB       sub_460FBB
 0001:0005FFC6       sub_460FC6
 0001:0005FFCE       sub_460FCE
 0001:0005FFD9       sub_460FD9
 0001:0005FFE4       sub_460FE4
 0001:0005FFEF       sub_460FEF
 0001:0005FFFA       sub_460FFA
 0001:00060005       sub_461005
 0001:0006000D       sub_46100D
 0001:00060015       sub_461015
 0001:0006001D       sub_46101D
 0001:00060028       sub_461028
 0001:00060033       sub_461033
 0001:0006003B       sub_46103B
 0001:00060043       sub_461043
 0001:0006004B       sub_46104B
 0001:00060056       sub_461056
 0001:00060061       sub_461061
 0001:00060069       sub_461069
 0001:00060071       sub_461071
 0001:00060079       SEH_4127A0
 0001:00060090       unknown_libname_273
 0001:0006009B       sub_46109B
 0001:000600A6       sub_4610A6
 0001:000600B1       sub_4610B1
 0001:000600BC       sub_4610BC
 0001:000600C7       loc_4610C7
 0001:000600E0       unknown_libname_274
 0001:000600EB       sub_4610EB
 0001:000600F6       sub_4610F6
 0001:000600FE       sub_4610FE
 0001:00060109       sub_461109
 0001:00060114       sub_461114
 0001:0006011F       sub_46111F
 0001:00060127       sub_461127
 0001:0006012F       sub_46112F
 0001:00060137       ?LangCnvWinForm@@YGPAXPAEPAHP6GXPADKH@ZH@Z_SEH
 0001:00060150       unknown_libname_275
 0001:0006015A       ?CreateObject@CWinFormUnit@@SGPAVCObject@@XZ_SEH
 0001:00060170       unknown_libname_276
 0001:00060178       sub_461178
 0001:00060183       sub_461183
 0001:0006018E       sub_46118E
 0001:00060199       sub_461199
 0001:000601A4       sub_4611A4
 0001:000601B2       SEH_412D20
 0001:000601C0       unknown_libname_277
 0001:000601C8       sub_4611C8
 0001:000601D3       sub_4611D3
 0001:000601E1       sub_4611E1
 0001:000601EF       sub_4611EF
 0001:000601FD       sub_4611FD
 0001:00060205       sub_461205
 0001:00060210       sub_461210
 0001:0006021B       sub_46121B
 0001:00060226       sub_461226
 0001:00060231       sub_461231
 0001:0006023C       SEH_412E80
 0001:00060250       unknown_libname_278
 0001:00060258       sub_461258
 0001:00060260       sub_461260
 0001:00060268       sub_461268
 0001:00060270       sub_461270
 0001:00060278       SEH_413350
 0001:00060290       unknown_libname_279
 0001:00060298       sub_461298
 0001:000602A3       sub_4612A3
 0001:000602AE       sub_4612AE
 0001:000602B9       sub_4612B9
 0001:000602C4       sub_4612C4
 0001:000602CF       sub_4612CF
 0001:000602DA       sub_4612DA
 0001:000602E5       ?OnPaint@CWinFormUnit@@IAEXXZ_SEH
 0001:000602F0       unknown_libname_280
 0001:000602F8       sub_4612F8
 0001:00060300       sub_461300
 0001:00060308       SEH_4143D0
 0001:00060320       unknown_libname_281
 0001:00060328       sub_461328
 0001:00060330       sub_461330
 0001:00060338       sub_461338
 0001:00060340       SEH_414ED0
 0001:00060350       unknown_libname_282
 0001:00060358       sub_461358
 0001:00060360       __ehhandler$?GetPredefinedStrings@XPerPropertyBrowsing@COleControl@@UAGJJPAUtagCALPOLESTR@@PAUtagCADWORD@@@Z
 0001:00060370       sub_461370
 0001:00060378       SEH_416A10
 0001:00060390       sub_461390
 0001:00060398       SEH_416E60
 0001:000603B0       sub_4613B0
 0001:000603B8       SEH_416EF0
 0001:000603D0       sub_4613D0
 0001:000603D8       unknown_libname_132
 0001:000603F0       unknown_libname_283
 0001:000603F8       sub_4613F8
 0001:0006040E       locret_46140E
 0001:0006040F       unknown_libname_133
 0001:00060420       unknown_libname_284
 0001:00060428       SEH_4177C0
 0001:00060440       unknown_libname_285
 0001:00060448       sub_461448
 0001:00060453       sub_461453
 0001:0006045E       sub_46145E
 0001:00060469       sub_461469
 0001:00060474       sub_461474
 0001:0006047F       sub_46147F
 0001:0006048A       unknown_libname_134
 0001:00060495       SEH_4178B0
 0001:000604A0       sub_4614A0
 0001:000604A8       SEH_417F90
 0001:000604C0       sub_4614C0
 0001:000604C8       SEH_418110
 0001:000604E0       unknown_libname_286
 0001:000604F6       locret_4614F6
 0001:000604F7       ?OnDestroy@CBrowDlg@@IAEXXZ_SEH
 0001:00060510       unknown_libname_287
 0001:00060518       sub_461518
 0001:00060520       unknown_libname_135
 0001:00060530       unknown_libname_288
 0001:00060538       sub_461538
 0001:00060540       sub_461540
 0001:00060548       sub_461548
 0001:00060550       sub_461550
 0001:0006055B       sub_46155B
 0001:00060563       sub_461563
 0001:0006056E       SEH_418CB0
 0001:00060580       unknown_libname_289
 0001:0006058B       sub_46158B
 0001:00060596       sub_461596
 0001:000605A1       sub_4615A1
 0001:000605AC       sub_4615AC
 0001:000605B7       sub_4615B7
 0001:000605C2       SEH_419540
 0001:000605D0       unknown_libname_290
 0001:000605D8       sub_4615D8
 0001:000605E3       sub_4615E3
 0001:000605EE       sub_4615EE
 0001:000605FC       sub_4615FC
 0001:0006060A       SEH_419770
 0001:00060620       sub_461620
 0001:00060628       ?OnKillfocus@CFieldEdit@@IAEXXZ_SEH
 0001:00060640       sub_461640
 0001:00060648       ?OnPaint@CFieldLabel@@IAEXXZ_SEH
 0001:00060660       unknown_libname_291
 0001:00060668       sub_461668
 0001:00060673       sub_461673
 0001:0006067E       sub_46167E
 0001:0006068C       sub_46168C
 0001:0006069A       SEH_419D00
 0001:000606B0       unknown_libname_292
 0001:000606BB       sub_4616BB
 0001:000606C6       sub_4616C6
 0001:000606D1       SEH_419E30
 0001:000606E0       unknown_libname_293
 0001:000606EA       SEH_41A0B0
 0001:00060700       unknown_libname_294
 0001:0006070B       sub_46170B
 0001:00060716       sub_461716
 0001:00060721       sub_461721
 0001:0006072C       SEH_41A460
 0001:00060740       sub_461740
 0001:00060748       SEH_41A850
 0001:00060760       sub_461760
 0001:00060768       unknown_libname_136
 0001:00060780       sub_461780
 0001:00060788       unknown_libname_137
 0001:000607A0       sub_4617A0
 0001:000607A8       SEH_41AF30
 0001:000607C0       sub_4617C0
 0001:000607C8       SEH_41B170
 0001:000607E0       unknown_libname_295
 0001:000607E8       sub_4617E8
 0001:000607F0       sub_4617F0
 0001:000607F8       sub_4617F8
 0001:00060800       sub_461800
 0001:00060808       sub_461808
 0001:00060810       sub_461810
 0001:00060818       sub_461818
 0001:00060820       SEH_41B270
 0001:00060830       sub_461830
 0001:00060838       SEH_41B5F0
 0001:00060850       unknown_libname_296
 0001:00060858       sub_461858
 0001:00060860       sub_461860
 0001:00060868       sub_461868
 0001:00060870       SEH_41B630
 0001:00060880       unknown_libname_297
 0001:0006088B       sub_46188B
 0001:00060896       SEH_41B780
 0001:000608A0       sub_4618A0
 0001:000608A8       SEH_41B840
 0001:000608C0       sub_4618C0
 0001:000608C8       SEH_41C4D0
 0001:000608E0       unknown_libname_298
 0001:000608E8       sub_4618E8
 0001:000608F3       sub_4618F3
 0001:000608FE       sub_4618FE
 0001:00060909       sub_461909
 0001:00060914       SEH_41C840
 0001:00060920       sub_461920
 0001:00060928       SEH_41CDD0
 0001:00060940       sub_461940
 0001:00060948       SEH_41DEB0
 0001:00060960       sub_461960
 0001:00060968       SEH_41DFD0
 0001:00060980       unknown_libname_299
 0001:00060988       sub_461988
 0001:00060993       __ehhandler$?OnToolTipText@CFrameWnd@@IAEHIPAUtagNMHDR@@PAJ@Z
 0001:000609A0       sub_4619A0
 0001:000609A8       ?OnPaint@CPicWnd@@IAEXXZ_SEH
 0001:000609C0       unknown_libname_300
 0001:000609C8       SEH_41E820
 0001:000609E0       sub_4619E0
 0001:000609E8       SEH_41EA00
 0001:00060A00       unknown_libname_301
 0001:00060A0B       sub_461A0B
 0001:00060A16       sub_461A16
 0001:00060A21       unknown_libname_138
 0001:00060A30       unknown_libname_302
 0001:00060A3B       sub_461A3B
 0001:00060A46       sub_461A46
 0001:00060A51       unknown_libname_139
 0001:00060A60       sub_461A60
 0001:00060A68       ?OnDataIncoming@CUDPSockWnd@@IAEJIJ@Z_SEH
 0001:00060A80       unknown_libname_303
 0001:00060A88       sub_461A88
 0001:00060A90       __ehhandler$?GetPredefinedStrings@XPerPropertyBrowsing@COleControl@@UAGJJPAUtagCALPOLESTR@@PAUtagCADWORD@@@Z_0
 0001:00060AA0       unknown_libname_304
 0001:00060AA8       sub_461AA8
 0001:00060AB0       sub_461AB0
 0001:00060AB8       __ehhandler$?GetPredefinedStrings@XPerPropertyBrowsing@COleControl@@UAGJJPAUtagCALPOLESTR@@PAUtagCADWORD@@@Z_1
 0001:00060AD0       unknown_libname_305
 0001:00060AD9       sub_461AD9
 0001:00060AE2       ?OnHasEvent@CSerial@@IAEJIJ@Z_SEH
 0001:00060AF0       sub_461AF0
 0001:00060AF8       SEH_421DC0
 0001:00060B10       sub_461B10
 0001:00060B18       SEH_421E60
 0001:00060B30       sub_461B30
 0001:00060B38       SEH_421EF0
 0001:00060B50       unknown_libname_306
 0001:00060B58       SEH_4220D0
 0001:00060B70       unknown_libname_307
 0001:00060B78       SEH_4221B0
 0001:00060B90       unknown_libname_308
 0001:00060B98       sub_461B98
 0001:00060BA0       SEH_422270
 0001:00060BB0       unknown_libname_309
 0001:00060BB8       sub_461BB8
 0001:00060BC0       SEH_422460
 0001:00060BD0       unknown_libname_310
 0001:00060BDB       sub_461BDB
 0001:00060BE6       sub_461BE6
 0001:00060BF1       sub_461BF1
 0001:00060BFC       sub_461BFC
 0001:00060C07       sub_461C07
 0001:00060C12       sub_461C12
 0001:00060C1D       sub_461C1D
 0001:00060C28       sub_461C28
 0001:00060C33       sub_461C33
 0001:00060C3E       sub_461C3E
 0001:00060C49       sub_461C49
 0001:00060C54       sub_461C54
 0001:00060C5F       sub_461C5F
 0001:00060C6A       sub_461C6A
 0001:00060C75       sub_461C75
 0001:00060C80       sub_461C80
 0001:00060C8B       sub_461C8B
 0001:00060C96       sub_461C96
 0001:00060CA1       sub_461CA1
 0001:00060CAC       sub_461CAC
 0001:00060CB7       sub_461CB7
 0001:00060CC2       sub_461CC2
 0001:00060CCD       sub_461CCD
 0001:00060CD8       sub_461CD8
 0001:00060CE3       sub_461CE3
 0001:00060CEB       sub_461CEB
 0001:00060CF6       sub_461CF6
 0001:00060D01       sub_461D01
 0001:00060D0C       sub_461D0C
 0001:00060D17       sub_461D17
 0001:00060D22       sub_461D22
 0001:00060D2D       sub_461D2D
 0001:00060D38       sub_461D38
 0001:00060D43       sub_461D43
 0001:00060D4E       sub_461D4E
 0001:00060D59       sub_461D59
 0001:00060D64       sub_461D64
 0001:00060D6F       sub_461D6F
 0001:00060D7A       sub_461D7A
 0001:00060D85       sub_461D85
 0001:00060D90       sub_461D90
 0001:00060D9B       sub_461D9B
 0001:00060DA6       sub_461DA6
 0001:00060DB1       sub_461DB1
 0001:00060DBC       sub_461DBC
 0001:00060DC7       sub_461DC7
 0001:00060DD2       sub_461DD2
 0001:00060DDD       sub_461DDD
 0001:00060DE8       sub_461DE8
 0001:00060DF3       sub_461DF3
 0001:00060DFB       SEH_422620
 0001:00060E10       unknown_libname_311
 0001:00060E18       sub_461E18
 0001:00060E23       sub_461E23
 0001:00060E31       sub_461E31
 0001:00060E3F       sub_461E3F
 0001:00060E4D       sub_461E4D
 0001:00060E5B       sub_461E5B
 0001:00060E69       sub_461E69
 0001:00060E77       sub_461E77
 0001:00060E85       sub_461E85
 0001:00060E93       sub_461E93
 0001:00060EA1       sub_461EA1
 0001:00060EAF       sub_461EAF
 0001:00060EBD       sub_461EBD
 0001:00060ECB       sub_461ECB
 0001:00060ED9       sub_461ED9
 0001:00060EE7       sub_461EE7
 0001:00060EF5       sub_461EF5
 0001:00060F03       sub_461F03
 0001:00060F11       sub_461F11
 0001:00060F1F       sub_461F1F
 0001:00060F2D       sub_461F2D
 0001:00060F3B       sub_461F3B
 0001:00060F49       sub_461F49
 0001:00060F57       sub_461F57
 0001:00060F65       SEH_422B10
 0001:00060F70       unknown_libname_312
 0001:00060F7B       sub_461F7B
 0001:00060F86       sub_461F86
 0001:00060F91       sub_461F91
 0001:00060F9C       sub_461F9C
 0001:00060FA7       sub_461FA7
 0001:00060FB2       loc_461FB2
 0001:00060FC0       sub_461FC0
 0001:00060FC8       SEH_4230F0
 0001:00060FE0       sub_461FE0
 0001:00060FE8       SEH_423510
 0001:00061000       unknown_libname_313
 0001:0006100B       sub_46200B
 0001:00061016       sub_462016
 0001:00061021       SEH_423750
 0001:00061030       unknown_libname_314
 0001:0006103B       sub_46203B
 0001:00061046       __ehhandler$??0CDaoDatabase@@QAE@PAVCDaoWorkspace@@@Z
 0001:00061050       sub_462050
 0001:00061058       SEH_423BC0
 0001:00061070       sub_462070
 0001:00061078       unknown_libname_140
 0001:00061090       sub_462090
 0001:00061098       unknown_libname_141
 0001:000610B0       sub_4620B0
 0001:000610B8       unknown_libname_142
 0001:000610D0       sub_4620D0
 0001:000610D8       SEH_4243A0
 0001:000610F0       sub_4620F0
 0001:000610F8       SEH_424480
 0001:00061110       sub_462110
 0001:00061118       SEH_424560
 0001:00061130       sub_462130
 0001:00061138       SEH_424640
 0001:00061150       sub_462150
 0001:00061158       SEH_424770
 0001:00061170       unknown_libname_315
 0001:0006117B       sub_46217B
 0001:00061186       sub_462186
 0001:00061191       sub_462191
 0001:0006119C       sub_46219C
 0001:000611A7       sub_4621A7
 0001:000611B2       sub_4621B2
 0001:000611BD       sub_4621BD
 0001:000611C8       sub_4621C8
 0001:000611D3       sub_4621D3
 0001:000611DE       sub_4621DE
 0001:000611E9       sub_4621E9
 0001:000611F4       sub_4621F4
 0001:000611FF       sub_4621FF
 0001:0006120A       sub_46220A
 0001:00061215       sub_462215
 0001:00061220       sub_462220
 0001:0006122B       sub_46222B
 0001:00061236       sub_462236
 0001:00061241       sub_462241
 0001:0006124C       sub_46224C
 0001:00061257       sub_462257
 0001:00061262       sub_462262
 0001:0006126D       sub_46226D
 0001:00061278       sub_462278
 0001:00061283       sub_462283
 0001:0006128E       sub_46228E
 0001:00061299       sub_462299
 0001:000612A4       sub_4622A4
 0001:000612AF       SEH_424D30
 0001:000612C0       unknown_libname_316
 0001:000612C8       sub_4622C8
 0001:000612D0       sub_4622D0
 0001:000612D8       sub_4622D8
 0001:000612E0       sub_4622E0
 0001:000612E8       SEH_426470
 0001:00061300       sub_462300
 0001:00061308       SEH_426730
 0001:00061320       unknown_libname_317
 0001:00061328       sub_462328
 0001:00061330       SEH_426D10
 0001:00061340       unknown_libname_318
 0001:00061348       sub_462348
 0001:00061350       sub_462350
 0001:00061358       sub_462358
 0001:00061360       SEH_426FC0
 0001:00061370       unknown_libname_319
 0001:00061378       sub_462378
 0001:00061380       SEH_4274B0
 0001:00061390       unknown_libname_320
 0001:00061398       sub_462398
 0001:000613A0       sub_4623A0
 0001:000613AB       sub_4623AB
 0001:000613B6       sub_4623B6
 0001:000613C1       sub_4623C1
 0001:000613CC       sub_4623CC
 0001:000613D7       sub_4623D7
 0001:000613E2       sub_4623E2
 0001:000613ED       sub_4623ED
 0001:000613F5       SEH_427620
 0001:00061400       unknown_libname_321
 0001:00061408       sub_462408
 0001:00061410       sub_462410
 0001:00061418       sub_462418
 0001:00061420       SEH_427F60
 0001:00061430       sub_462430
 0001:00061438       SEH_428340
 0001:00061450       unknown_libname_322
 0001:00061458       sub_462458
 0001:00061460       SEH_4286A0
 0001:00061470       unknown_libname_323
 0001:00061478       sub_462478
 0001:00061480       ?OnLButtonDown@CMGrid@@IAEXIVCPoint@@@Z_SEH
 0001:00061490       unknown_libname_324
 0001:00061498       sub_462498
 0001:000614A0       SEH_4290D0
 0001:000614B0       unknown_libname_325
 0001:000614B8       sub_4624B8
 0001:000614C0       SEH_4294B0
 0001:000614D0       unknown_libname_326
 0001:000614D8       sub_4624D8
 0001:000614E0       sub_4624E0
 0001:000614E8       sub_4624E8
 0001:000614F0       sub_4624F0
 0001:000614F8       SEH_429710
 0001:00061510       unknown_libname_327
 0001:00061518       sub_462518
 0001:00061520       ?OnEndInPlaceEdit@CMGrid@@IAEXPAUtagNMHDR@@PAJ@Z_SEH
 0001:00061530       sub_462530
 0001:00061538       ?OnChar@CMGrid@@IAEXIII@Z_SEH
 0001:00061550       sub_462550
 0001:00061558       SEH_42A010
 0001:00061570       unknown_libname_328
 0001:00061578       sub_462578
 0001:00061580       sub_462580
 0001:00061588       sub_462588
 0001:00061592       sub_462592
 0001:0006159A       SEH_42A260
 0001:000615B0       unknown_libname_329
 0001:000615B8       sub_4625B8
 0001:000615C0       SEH_42A560
 0001:000615D0       sub_4625D0
 0001:000615D8       SEH_42A750
 0001:000615F0       unknown_libname_330
 0001:000615FB       sub_4625FB
 0001:00061606       sub_462606
 0001:00061611       sub_462611
 0001:00061619       SEH_42AA30
 0001:00061630       unknown_libname_331
 0001:00061638       sub_462638
 0001:00061643       sub_462643
 0001:00061651       SEH_42AB30
 0001:00061660       unknown_libname_332
 0001:0006166B       __ehhandler$??0CDHtmlElementEventSink@@QAE@PAVCDHtmlEventSink@@PAUIDispatch@@@Z_4
 0001:00061680       sub_462680
 0001:00061688       SEH_42AE70
 0001:000616A0       sub_4626A0
 0001:000616A8       unknown_libname_143
 0001:000616C0       sub_4626C0
 0001:000616C8       unknown_libname_144
 0001:000616E0       unknown_libname_333
 0001:000616E8       sub_4626E8
 0001:000616F0       SEH_42B500
 0001:00061700       unknown_libname_334
 0001:0006170E       unknown_libname_146
 0001:00061720       sub_462720
 0001:00061728       unknown_libname_147
 0001:00061740       sub_462740
 0001:00061748       SEH_42BE20
 0001:00061760       unknown_libname_335
 0001:00061768       sub_462768
 0001:00061770       SEH_42C070
 0001:00061780       sub_462780
 0001:00061788       unknown_libname_150
 0001:000617A0       unknown_libname_336
 0001:000617A8       sub_4627A8
 0001:000617B0       SEH_42C4E0
 0001:000617C0       sub_4627C0
 0001:000617C8       unknown_libname_152
 0001:000617E0       sub_4627E0
 0001:000617E8       unknown_libname_153
 0001:00061800       sub_462800
 0001:00061808       unknown_libname_154
 0001:00061820       sub_462820
 0001:00061828       unknown_libname_155
 0001:00061840       sub_462840
 0001:00061848       unknown_libname_156
 0001:00061860       unknown_libname_337
 0001:0006186B       sub_46286B
 0001:00061876       unknown_libname_157
 0001:00061880       sub_462880
 0001:00061888       unknown_libname_158
 0001:000618A0       unknown_libname_338
 0001:000618A8       sub_4628A8
 0001:000618B0       __ehhandler$?GetPredefinedStrings@XPerPropertyBrowsing@COleControl@@UAGJJPAUtagCALPOLESTR@@PAUtagCADWORD@@@Z_2
 0001:000618C0       sub_4628C0
 0001:000618C8       unknown_libname_159
 0001:000618E0       unknown_libname_339
 0001:000618E8       sub_4628E8
 0001:000618F0       __ehhandler$?GetPredefinedStrings@XPerPropertyBrowsing@COleControl@@UAGJJPAUtagCALPOLESTR@@PAUtagCADWORD@@@Z_3
 0001:00061900       unknown_libname_340
 0001:00061908       sub_462908
 0001:00061910       __ehhandler$?GetPredefinedStrings@XPerPropertyBrowsing@COleControl@@UAGJJPAUtagCALPOLESTR@@PAUtagCADWORD@@@Z_4
 0001:00061920       unknown_libname_341
 0001:00061928       sub_462928
 0001:00061933       sub_462933
 0001:0006193E       sub_46293E
 0001:00061949       ?OnPaint@CRgnBtn@@IAEXXZ_SEH
 0001:00061960       unknown_libname_342
 0001:00061968       sub_462968
 0001:00061973       sub_462973
 0001:0006197E       SEH_42EE20
 0001:00061990       unknown_libname_343
 0001:00061998       sub_462998
 0001:000619A3       SEH_42EEF0
 0001:000619B0       unknown_libname_344
 0001:000619BA       ?CreateObject@CColourPicker@@SGPAVCObject@@XZ_SEH
 0001:000619D0       unknown_libname_345
 0001:000619DA       ?OnLButtonUp@CColourPicker@@IAEXIVCPoint@@@Z_SEH
 0001:000619F0       unknown_libname_346
 0001:000619F8       sub_4629F8
 0001:00061A00       sub_462A00
 0001:00061A08       sub_462A08
 0001:00061A10       SEH_42F230
 0001:00061A20       sub_462A20
 0001:00061A28       unknown_libname_161
 0001:00061A40       sub_462A40
 0001:00061A48       unknown_libname_162
 0001:00061A60       sub_462A60
 0001:00061A68       ?OnPaint@CGifWnd@@IAEXXZ_SEH
 0001:00061A80       unknown_libname_347
 0001:00061A88       sub_462A88
 0001:00061A90       sub_462A90
 0001:00061A98       SEH_42FE10
 0001:00061AB0       sub_462AB0
 0001:00061AB8       SEH_430160
 0001:00061AD0       sub_462AD0
 0001:00061AD8       unknown_libname_163
 0001:00061AF0       unknown_libname_348
 0001:00061AF8       sub_462AF8
 0001:00061B00       sub_462B00
 0001:00061B08       sub_462B08
 0001:00061B13       sub_462B13
 0001:00061B1B       sub_462B1B
 0001:00061B23       sub_462B23
 0001:00061B2B       sub_462B2B
 0001:00061B33       SEH_4324F0
 0001:00061B40       sub_462B40
 0001:00061B48       SEH_432A40
 0001:00061B60       sub_462B60
 0001:00061B68       unknown_libname_165
 0001:00061B80       unknown_libname_349
 0001:00061B88       sub_462B88
 0001:00061B90       SEH_433AA0
 0001:00061BA0       unknown_libname_350
 0001:00061BA8       sub_462BA8
 0001:00061BB3       sub_462BB3
 0001:00061BC1       sub_462BC1
 0001:00061BCF       sub_462BCF
 0001:00061BDD       sub_462BDD
 0001:00061BEB       sub_462BEB
 0001:00061BF9       sub_462BF9
 0001:00061C07       sub_462C07
 0001:00061C15       sub_462C15
 0001:00061C23       sub_462C23
 0001:00061C31       sub_462C31
 0001:00061C3F       sub_462C3F
 0001:00061C4D       sub_462C4D
 0001:00061C5B       sub_462C5B
 0001:00061C69       sub_462C69
 0001:00061C77       sub_462C77
 0001:00061C85       sub_462C85
 0001:00061C93       sub_462C93
 0001:00061CA1       sub_462CA1
 0001:00061CAF       sub_462CAF
 0001:00061CBD       sub_462CBD
 0001:00061CCB       sub_462CCB
 0001:00061CD9       sub_462CD9
 0001:00061CE7       sub_462CE7
 0001:00061CF5       SEH_433FE0
 0001:00061D00       unknown_libname_351
 0001:00061D08       sub_462D08
 0001:00061D10       unknown_libname_166
 0001:00061D20       unknown_libname_352
 0001:00061D2B       sub_462D2B
 0001:00061D36       sub_462D36
 0001:00061D41       ?OnSetPrintIntoFile@CPrinterSetup@@IAEXXZ_SEH
 0001:00061D50       sub_462D50
 0001:00061D58       SEH_434720
 0001:00061D70       sub_462D70
 0001:00061D78       SEH_4350E0
 0001:00061D90       unknown_libname_353
 0001:00061D98       sub_462D98
 0001:00061DA0       sub_462DA0
 0001:00061DA8       ?OnPaint@CPreviewDlg@@IAEXXZ_SEH
 0001:00061DC0       unknown_libname_354
 0001:00061DCB       sub_462DCB
 0001:00061DD6       sub_462DD6
 0001:00061DE1       __ehhandler$?HttpExtensionProc@CHttpServer@@UAEKPAU_EXTENSION_CONTROL_BLOCK@@@Z
 0001:00061DF0       unknown_libname_355
 0001:00061DF8       sub_462DF8
 0001:00061E03       SEH_435E10
 0001:00061E10       sub_462E10
 0001:00061E18       SEH_436020
 0001:00061E30       sub_462E30
 0001:00061E38       SEH_4361A0
 0001:00061E50       unknown_libname_356
 0001:00061E58       sub_462E58
 0001:00061E63       sub_462E63
 0001:00061E6E       sub_462E6E
 0001:00061E79       unknown_libname_167
 0001:00061E84       ?OnPaint@CPreviewWnd@@IAEXXZ_SEH
 0001:00061E90       unknown_libname_357
 0001:00061E98       sub_462E98
 0001:00061EA3       SEH_4369F0
 0001:00061EB0       unknown_libname_358
 0001:00061EB8       sub_462EB8
 0001:00061EC0       SEH_436B50
 0001:00061ED0       unknown_libname_359
 0001:00061ED8       sub_462ED8
 0001:00061EE0       SEH_436C70
 0001:00061EF0       sub_462EF0
 0001:00061EF8       SEH_436FF0
 0001:00061F10       unknown_libname_360
 0001:00061F18       sub_462F18
 0001:00061F23       SEH_437120
 0001:00061F30       unknown_libname_361
 0001:00061F3B       sub_462F3B
 0001:00061F46       sub_462F46
 0001:00061F51       sub_462F51
 0001:00061F5C       sub_462F5C
 0001:00061F67       sub_462F67
 0001:00061F72       __ehhandler$?OnToolTipText@CFrameWnd@@IAEHIPAUtagNMHDR@@PAJ@Z_0
 0001:00061F80       unknown_libname_362
 0001:00061F88       sub_462F88
 0001:00061F93       sub_462F93
 0001:00061F9E       sub_462F9E
 0001:00061FAC       sub_462FAC
 0001:00061FBA       sub_462FBA
 0001:00061FC8       SEH_437AC0
 0001:00061FE0       unknown_libname_363
 0001:00061FE8       sub_462FE8
 0001:00061FF3       sub_462FF3
 0001:00061FFE       sub_462FFE
 0001:0006200C       sub_46300C
 0001:0006201A       sub_46301A
 0001:00062028       sub_463028
 0001:00062030       sub_463030
 0001:00062038       SEH_437CE0
 0001:00062050       sub_463050
 0001:00062058       SEH_437DA0
 0001:00062070       sub_463070
 0001:00062078       ?OnPaint@CColourPopup@@IAEXXZ_SEH
 0001:00062090       sub_463090
 0001:00062098       SEH_438650
 0001:000620B0       sub_4630B0
 0001:000620B8       SEH_438980
 0001:000620D0       unknown_libname_364
 0001:000620DB       SEH_438A70
 0001:000620F0       unknown_libname_365
 0001:000620F8       sub_4630F8
 0001:00062100       sub_463100
 0001:00062108       sub_463108
 0001:00062110       sub_463110
 0001:00062118       sub_463118
 0001:00062120       SEH_438B80
 0001:00062130       unknown_libname_366
 0001:00062138       sub_463138
 0001:00062143       SEH_439920
 0001:00062150       sub_463150
 0001:00062158       SEH_439A50
 0001:00062164       unknown_libname_169
 0001:0006216C       sub_46316C
 0001:00062182       locret_463182
 0001:00062183       loc_463183
 0001:00062190       unknown_libname_170
 0001:00062198       sub_463198
 0001:000621AE       locret_4631AE
 0001:000621AF       loc_4631AF
 0001:000621BC       unknown_libname_171
 0001:000621C4       sub_4631C4
 0001:000621DA       locret_4631DA
 0001:000621DB       loc_4631DB
 0001:000621E8       sub_4631E8
 0001:000621FE       locret_4631FE
 0001:000621FF       sub_4631FF
 0001:00062207       loc_463207
 0001:00062214       sub_463214
 0001:0006222A       locret_46322A
 0001:0006222B       sub_46322B
 0001:00062233       loc_463233
 0001:00062240       sub_463240
 0001:00062249       loc_463249
 0001:00062254       unknown_libname_172
 0001:0006225C       unknown_libname_367
 0001:00062267       loc_463267
 0001:00062274       sub_463274
 0001:0006227C       loc_46327C
 0001:00062288       sub_463288
 0001:00062290       loc_463290
 0001:0006229C       unknown_libname_173
 0001:000622A6       unknown_libname_81
 0001:000622B0       sub_4632B0
 0001:000622B8       loc_4632B8
 0001:000622C4       sub_4632C4
 0001:000622CC       loc_4632CC
 0001:000622D8       sub_4632D8
 0001:000622E0       loc_4632E0
 0001:000622EC       sub_4632EC
 0001:000622F4       loc_4632F4
 0001:00062300       sub_463300
 0001:00062308       loc_463308
 0001:00062314       sub_463314
 0001:0006231C       loc_46331C
 0001:00062328       sub_463328
 0001:00062330       loc_463330
 0001:0006233C       unknown_libname_174
 0001:00062346       unknown_libname_82
 0001:00062350       sub_463350
 0001:00062358       loc_463358
 0001:00062364       sub_463364
 0001:0006236C       loc_46336C
 0001:00062378       sub_463378
 0001:00062380       loc_463380
 0001:0006238C       sub_46338C
 0001:00062394       loc_463394
 0001:000623A0       unknown_libname_175
 0001:000623A8       sub_4633A8
 0001:000623B0       loc_4633B0
 0001:000623BC       loc_4633BC
 0001:000623C8       loc_4633C8
 0001:000623D4       unknown_libname_176
 0001:000623DE       unknown_libname_83
 0001:000623E8       loc_4633E8
 0001:000623F4       sub_4633F4
 0001:000623FC       loc_4633FC
 0001:00062408       loc_463408
 0001:00062414       sub_463414
 0001:0006241C       loc_46341C
 0001:00062428       unknown_libname_177
 0001:00062430       sub_463430
 0001:00062438       sub_463438
 0001:00062440       loc_463440
 0001:0006244C       sub_46344C
 0001:00062454       loc_463454
 0001:00062460       loc_463460
 0001:0006246C       sub_46346C
 0001:00062475       loc_463475
 0001:00062480       unknown_libname_178
 0001:0006248A       unknown_libname_84
 0001:00062494       sub_463494
 0001:0006249D       loc_46349D
 0001:000624A8       sub_4634A8
 0001:000624B0       loc_4634B0
 0001:000624BC       sub_4634BC
 0001:000624C4       loc_4634C4
 0001:000624D0       sub_4634D0
 0001:000624D8       loc_4634D8
 0001:000624E4       sub_4634E4
 0001:000624EC       loc_4634EC
 0001:000624F8       sub_4634F8
 0001:00062500       loc_463500
 0001:0006250C       unknown_libname_179
 0001:00062514       sub_463514
 0001:0006251C       sub_46351C
 0001:00062524       loc_463524
 0001:00062530       sub_463530
 0001:00062538       loc_463538
 0001:00062544       sub_463544
 0001:0006254D       loc_46354D
 0001:00062558       unknown_libname_180
 0001:00062560       sub_463560
 0001:0006256E       loc_46356E
 0001:00062578       sub_463578
 0001:00062580       loc_463580
 0001:0006258C       sub_46358C
 0001:00062594       loc_463594
 0001:000625A0       sub_4635A0
 0001:000625A8       sub_4635A8
 0001:000625B6       __ehhandler$??1AFX_MODULE_STATE@@UAE@XZ
 0001:000625C0       sub_4635C0
 0001:000625C8       loc_4635C8
 0001:000625D4       sub_4635D4
 0001:000625DC       loc_4635DC
 0001:000625E8       loc_4635E8
 0001:000625F4       unknown_libname_181
 0001:000625FC       sub_4635FC
 0001:00062612       locret_463612
 0001:00062613       loc_463613
 0001:00062620       unknown_libname_182
 0001:00062628       sub_463628
 0001:0006263E       locret_46363E
 0001:0006263F       loc_46363F
 0001:0006264C       sub_46364C
 0001:00062654       loc_463654
 0001:00062660       sub_463660
 0001:00062668       loc_463668
 0001:00062674       sub_463674
 0001:0006267C       loc_46367C
 0001:00062688       unknown_libname_183
 0001:00062690       sub_463690
 0001:000626A6       locret_4636A6
 0001:000626A7       loc_4636A7
 0001:000626B4       sub_4636B4
 0001:000626BC       loc_4636BC
 0001:000626C8       unknown_libname_184
 0001:000626D2       unknown_libname_85
 0001:000626DC       sub_4636DC
 0001:000626E4       loc_4636E4
 0001:000626F0       sub_4636F0
 0001:000626FB       loc_4636FB
 0001:00062708       sub_463708
 0001:00062713       loc_463713
 0001:00062720       sub_463720
 0001:00062728       sub_463728
 0001:00062730       loc_463730
 0001:0006273C       unknown_libname_185
 0001:00062745       sub_463745
 0001:0006274D       sub_46374D
 0001:00062758       loc_463758
 0001:00062764       sub_463764
 0001:0006276C       loc_46376C
 0001:00062778       sub_463778
 0001:00062780       loc_463780
 0001:0006278C       sub_46378C
 0001:00062794       loc_463794
 0001:000627A0       sub_4637A0
 0001:000627A8       loc_4637A8
 0001:000627B4       sub_4637B4
 0001:000627BC       loc_4637BC
 0001:000627C8       sub_4637C8
 0001:000627D0       loc_4637D0
 0001:000627DC       unknown_libname_186
 0001:000627E6       unknown_libname_86
 0001:000627F0       sub_4637F0
 0001:000627F8       loc_4637F8
 0001:00062804       sub_463804
 0001:0006280C       loc_46380C
 0001:00062818       sub_463818
 0001:00062820       loc_463820
 0001:0006282C       sub_46382C
 0001:00062834       loc_463834
 0001:00062840       sub_463840
 0001:00062848       sub_463848
 0001:00062850       loc_463850
 0001:0006285C       unknown_libname_187
 0001:00062865       sub_463865
 0001:0006286D       sub_46386D
 0001:00062878       loc_463878
 0001:00062884       sub_463884
 0001:0006288C       loc_46388C
 0001:00062898       sub_463898
 0001:000628A0       loc_4638A0
 0001:000628AC       unknown_libname_368
 0001:000628B4       sub_4638B4
 0001:000628BF       loc_4638BF
 0001:000628CC       sub_4638CC
 0001:000628D4       loc_4638D4
 0001:000628E0       loc_4638E0
 0001:000628EC       loc_4638EC
 0001:000628F8       unknown_libname_369
 0001:00062903       unknown_libname_87
 0001:0006290E       loc_46390E
 0001:00062918       loc_463918
 0001:00062924       unknown_libname_370
 0001:0006292F       unknown_libname_88
 0001:0006293A       loc_46393A
 0001:00062944       sub_463944
 0001:0006294C       loc_46394C
 0001:00062958       sub_463958
 0001:00062960       loc_463960
 0001:0006296C       sub_46396C
 0001:00062974       loc_463974
 0002:000006A0       dword_4646A0
 0002:000006A4       dword_4646A4
 0002:000006A8       dword_4646A8
 0002:000006AC       lp_yCFnOnTimerEvent
 0002:000006B0       off_4646B0
 0002:000006B4       dword_4646B4
 0002:000006B8       off_4646B8
 0002:000006BC       dword_4646BC
 0002:000006C0       dword_4646C0
 0002:000006C4       off_4646C4
 0002:000006C8       dword_4646C8
 0002:000006CC       dword_4646CC
 0002:000006D0       dword_4646D0
 0002:000006D4       off_4646D4
 0002:000006D8       dword_4646D8
 0002:00000768       aD09f2340818511d396f6aaf844c7e325
 0002:00000789       aZT
 0002:0000161C       off_46561C
 0002:00001638       off_465638
 0002:0000163C       off_46563C
 0002:00001640       off_465640
 0002:00001644       aThisIsATestStr
 0002:0000165C       asc_46565C
 0002:00001780       dbl_465780
 0002:00001788       dbl_465788
 0002:00001790       dbl_465790
 0002:00001798       dbl_465798
 0002:000017A0       dbl_4657A0
 0002:000017A8       dbl_4657A8
 0002:000017B0       off_4657B0
 0002:000017B4       off_4657B4
 0002:000017B8       dbl_4657B8
 0002:000017C0       dbl_4657C0
 0002:000017C8       dbl_4657C8
 0002:000017D0       off_4657D0
 0002:000017D8       off_4657D8
 0002:00001838       unk_465838
 0002:00002490       off_466490
 0002:00002498       unk_466498
 0002:00002F90       off_466F90
 0002:00002F98       unk_466F98
 0002:00002FB0       off_466FB0
 0002:00002FB8       unk_466FB8
 0002:00002FE8       off_466FE8
 0002:00002FF0       off_466FF0
 0002:00002FFC       off_466FFC
 0002:000030B8       off_4670B8
 0002:00003170       off_467170
 0002:00003178       off_467178
 0002:00003190       off_467190
 0002:000031A8       off_4671A8
 0002:00003244       off_467244
 0002:000032FC       off_4672FC
 0002:00003300       lpCWinIDManger__Serialize_lpCArchive_
 0002:0000330C       lpCIDDWordManger_Serialize_lpCArchive_
 0002:00003318       strCWinFormUnit
 0002:00003330       off_467330
 0002:00003338       unk_467338
 0002:00003560       off_467560
 0002:00003568       off_467568
 0002:00003620       dbl_467620
 0002:00003628       dbl_467628
 0002:00003630       flt_467630
 0002:00003638       dbl_467638
 0002:00003640       dbl_467640
 0002:00003648       dbl_467648
 0002:00003658       unk_467658
 0002:00003888       off_467888
 0002:00003890       unk_467890
 0002:00003920       off_467920
 0002:000039F0       off_4679F0
 0002:000039FC       flt_4679FC
 0002:00003A00       off_467A00
 0002:00003A08       unk_467A08
 0002:00003A38       off_467A38
 0002:00003A40       off_467A40
 0002:00003A48       off_467A48
 0002:00003A68       unk_467A68
 0002:00003B40       off_467B40
 0002:00003B50       unk_467B50
 0002:00003CF0       off_467CF0
 0002:00003CF4       off_467CF4
 0002:00003D00       unk_467D00
 0002:00003DB0       off_467DB0
 0002:00003DC8       off_467DC8
 0002:00003DD0       unk_467DD0
 0002:00003E78       off_467E78
 0002:00003F38       off_467F38
 0002:00003F40       unk_467F40
 0002:00003F70       off_467F70
 0002:0000402C       off_46802C
 0002:00004038       unk_468038
 0002:00004230       off_468230
 0002:00004300       dbl_468300
 0002:00004308       dbl_468308
 0002:00004310       dbl_468310
 0002:00004318       dbl_468318
 0002:00004320       dbl_468320
 0002:00004328       dbl_468328
 0002:00004330       dbl_468330
 0002:00004338       dbl_468338
 0002:00004340       dbl_468340
 0002:00004348       dbl_468348
 0002:00004350       dbl_468350
 0002:00004358       dbl_468358
 0002:00004360       dbl_468360
 0002:00004368       dbl_468368
 0002:00004378       unk_468378
 0002:00004560       off_468560
 0002:00004568       unk_468568
 0002:00004628       off_468628
 0002:000046E0       off_4686E0
 0002:000046E8       unk_4686E8
 0002:00004718       off_468718
 0002:000047E8       off_4687E8
 0002:000047F0       unk_4687F0
 0002:000048E0       off_4688E0
 0002:00004998       off_468998
 0002:000049A0       off_4689A0
 0002:000049A8       unk_4689A8
 0002:000049C0       off_4689C0
 0002:00004A90       dword_468A90
 0002:00004A98       dword_468A98
 0002:00004AA0       dword_468AA0
 0002:00004BA0       unk_468BA0
 0002:00004BE0       dword_468BE0
 0002:00004C20       dword_468C20
 0002:00004C60       dword_468C60
 0002:00004CA0       dword_468CA0
 0002:00004CE0       unk_468CE0
 0002:00004D60       unk_468D60
 0002:00004DA0       unk_468DA0
 0002:00004EA0       unk_468EA0
 0002:00004EAC       flt_468EAC
 0002:00004EB0       flt_468EB0
 0002:00004EB4       flt_468EB4
 0002:00004EB8       flt_468EB8
 0002:00004EC0       dword_468EC0
 0002:00004EC4       dword_468EC4
 0002:00004EC8       dword_468EC8
 0002:00004ECC       dword_468ECC
 0002:00004ED0       unk_468ED0
 0002:00004EE0       unk_468EE0
 0002:00004F50       a_F
 0002:00004F58       aI64
 0002:00004F60       dbl_468F60
 0002:00004F68       dbl_468F68
 0002:00004F70       off_468F70
 0002:00004F88       aCnotsupportede
 0002:00004FA0       off_468FA0
 0002:00004FB8       aCmemoryexcepti
 0002:00004FE8       aCexception
 0002:00004FF8       off_468FF8
 0002:00005010       off_469010
 0002:00005028       off_469028
 0002:00005040       aCfile
 0002:0000504C       off_46904C
 0002:000050A4       off_4690A4
 0002:000050B8       off_4690B8
 0002:000050D0       aCmemfile
 0002:000050E0       off_4690E0
 0002:00005148       off_469148
 0002:00005160       aCtempgdiobject
 0002:00005170       off_469170
 0002:00005188       aCtempdc
 0002:00005190       off_469190
 0002:000051A8       aCrgn
 0002:000051B0       off_4691B0
 0002:000051C8       aCpalette
 0002:000051D8       off_4691D8
 0002:000051F0       aCbitmap
 0002:000051F8       off_4691F8
 0002:00005210       aCfont
 0002:00005218       off_469218
 0002:00005230       aCbrush
 0002:00005238       off_469238
 0002:00005250       aCpen
 0002:00005258       off_469258
 0002:00005270       aCgdiobject
 0002:00005280       off_469280
 0002:00005298       aCpaintdc
 0002:000052A8       off_4692A8
 0002:000052C0       aCwindowdc
 0002:000052D0       off_4692D0
 0002:000052E8       aCclientdc
 0002:000052F8       off_4692F8
 0002:00005310       off_469310
 0002:00005318       off_469318
 0002:00005330       aCuserexception
 0002:00005340       off_469340
 0002:00005358       aCresourceexcep
 0002:00005370       off_469370
 0002:000053E8       off_4693E8
 0002:00005460       off_469460
 0002:000054D8       off_4694D8
 0002:00005550       off_469550
 0002:00005560       off_469560
 0002:00005570       off_469570
 0002:00005580       off_469580
 0002:000055F8       off_4695F8
 0002:00005608       off_469608
 0002:00005620       off_469620
 0002:00005638       off_469638
 0002:00005650       aCdialog
 0002:00005658       off_469658
 0002:00005660       unk_469660
 0002:00005738       aEdit
 0002:00005744       off_469744
 0002:00005814       aHelv
 0002:0000581C       aMsSansSerif
 0002:0000582C       aMsShellDlg
 0002:00005840       off_469840
 0002:00005858       aCtempwnd
 0002:00005868       off_469868
 0002:00005880       aCwnd
 0002:00005888       off_469888
 0002:00005890       unk_469890
 0002:00005B30       aAfxoldwndproc4
 0002:00005B44       aAfxwnd42s
 0002:00005B50       aAfxcontrolbar4
 0002:00005B64       aAfxmdiframe42s
 0002:00005B74       aAfxframeorview
 0002:00005B88       aAfxolecontrol4
 0002:00005B9C       aGetmonitorinfo
 0002:00005BAC       aEnumdisplaymon
 0002:00005BC0       aMonitorfrompoi
 0002:00005BD4       aMonitorfromrec
 0002:00005BE4       aMonitorfromwin
 0002:00005BF8       aGetsystemmetri
 0002:00005C0C       ModuleName
 0002:00005C14       aCommctrl_dragl
 0002:00005C30       off_469C30
 0002:00005CE8       aIme
 0002:00005CEC       aAfxXXXXX
 0002:00005D00       aAfxXX
 0002:00005D10       off_469D10
 0002:00005D20       aInitcommoncont
 0002:00005D38       aComctl32_dll_0
 0002:00005D4C       off_469D4C
 0002:00005E08       off_469E08
 0002:00005E10       off_469E10
 0002:00005E28       aCptrarray
 0002:00005E38       off_469E38
 0002:00005E48       off_469E48
 0002:00005E60       aCedit
 0002:00005E68       off_469E68
 0002:00005E80       aCcombobox
 0002:00005E90       off_469E90
 0002:00005EA8       aCbutton
 0002:00005EB0       off_469EB0
 0002:00005EC8       aCstatic
 0002:00005ED4       off_469ED4
 0002:00005F90       off_469F90
 0002:00006050       off_46A050
 0002:0000611C       off_46A11C
 0002:000061E0       unk_46A1E0
 0002:0000634C       off_46A34C
 0002:0000635C       off_46A35C
 0002:00006364       off_46A364
 0002:00006370       off_46A370
 0002:00006388       aCfiledialog
 0002:00006398       off_46A398
 0002:00006488       off_46A488
 0002:00006490       off_46A490
 0002:00006498       off_46A498
 0002:000064A0       off_46A4A0
 0002:000064A4       aCstringarray
 0002:000064B8       off_46A4B8
 0002:000064C8       off_46A4C8
 0002:000064D0       off_46A4D0
 0002:000064E8       aCwinapp
 0002:000064F0       off_46A4F0
 0002:000064F8       unk_46A4F8
 0002:00006558       ValueName
 0002:00006568       aSettings
 0002:00006578       off_46A578
 0002:00006580       off_46A580
 0002:00006620       off_46A620
 0002:00006638       aCtempimagelist
 0002:00006648       off_46A648
 0002:00006660       aCimagelist
 0002:00006670       off_46A670
 0002:00006688       aCprogressctrl
 0002:000066A0       unk_46A6A0
 0002:0000670C       off_46A70C
 0002:000067C8       off_46A7C8
 0002:000067D8       off_46A7D8
 0002:000067E8       off_46A7E8
 0002:00006800       aCarchiveexcept
 0002:00006818       off_46A818
 0002:00006830       off_46A830
 0002:00006848       aCsharedfile
 0002:00006858       off_46A858
 0002:000068D8       aCcmdtarget
 0002:000068E4       unk_46A8E4
 0002:000068F0       unk_46A8F0
 0002:00006910       unk_46A910
 0002:00006940       unk_46A940
 0002:00006978       unk_46A978
 0002:00006990       unk_46A990
 0002:000069A0       unk_46A9A0
 0002:000069B8       off_46A9B8
 0002:000069C8       off_46A9C8
 0002:000069E0       aCwinthread
 0002:000069F0       off_46A9F0
 0002:00006A70       off_46AA70
 0002:00006A78       off_46AA78
 0002:00006A90       aCtempmenu
 0002:00006AA0       off_46AAA0
 0002:00006AB8       aCmenu
 0002:00006AC4       off_46AAC4
 0002:00006ADC       off_46AADC
 0002:00006AF0       aCombobox
 0002:00006AFC       aCdwordarray
 0002:00006B0C       off_46AB0C
 0002:00006B18       aCwordarray
 0002:00006B28       off_46AB28
 0002:00006B38       off_46AB38
 0002:00006B50       aCfileexception
 0002:00006B60       off_46AB60
 0002:00006B78       aCmapptrtoptr
 0002:00006B8C       off_46AB8C
 0002:00006B98       off_46AB98
 0002:00006BB0       aCtooltipctrl
 0002:00006BC0       off_46ABC0
 0002:00006BC8       unk_46ABC8
 0002:00006C44       off_46AC44
 0002:00006D00       aTooltips_class
 0002:00006D18       off_46AD18
 0002:00006D30       aCcolordialog
 0002:00006D40       off_46AD40
 0002:00006D48       unk_46AD48
 0002:00006D7C       off_46AD7C
 0002:00006D84       off_46AD84
 0002:00006E70       aCobject
 0002:00006E78       a_ini
 0002:00006E80       a_hlp
 0002:00006E8C       off_46AE8C
 0002:00006E90       MultiByteStr
 0002:00006E98       off_46AE98
 0002:00006EA0       unk_46AEA0
 0002:00006ED0       aCommdlg_setrgb
 0002:00006EE4       aCommdlg_help
 0002:00006EF4       aCommdlg_coloro
 0002:00006F04       aCommdlg_filena
 0002:00006F18       aCommdlg_sharev
 0002:00006F30       String
 0002:00006F4C       SubKey
 0002:00006F58       off_46AF58
 0002:00006F70       aCmapstringtopt
 0002:00006F84       off_46AF84
 0002:00006F90       stru_46AF90
 0002:00006FA0       off_46AFA0
 0002:00006FA8       stru_46AFA8
 0002:00006FC0       stru_46AFC0
 0002:00006FD8       unk_46AFD8
 0002:00006FF8       aHMmSs
 0002:00007000       aDdddMmmmDdYyyy
 0002:00007014       aMDYy
 0002:0000701C       unk_46B01C
 0002:00007020       unk_46B020
 0002:00007024       aDecember
 0002:00007030       aNovember
 0002:0000703C       aOctober
 0002:00007044       aSeptember
 0002:00007050       aAugust
 0002:00007058       aJuly
 0002:00007060       aJune
 0002:00007068       aApril
 0002:00007070       aMarch
 0002:00007078       aFebruary
 0002:00007084       aJanuary
 0002:0000708C       unk_46B08C
 0002:00007090       unk_46B090
 0002:00007094       unk_46B094
 0002:00007098       unk_46B098
 0002:0000709C       unk_46B09C
 0002:000070A0       unk_46B0A0
 0002:000070A4       unk_46B0A4
 0002:000070A8       unk_46B0A8
 0002:000070AC       unk_46B0AC
 0002:000070B0       unk_46B0B0
 0002:000070B4       unk_46B0B4
 0002:000070B8       unk_46B0B8
 0002:000070BC       aSaturday
 0002:000070C8       aFriday
 0002:000070D0       aThursday
 0002:000070DC       aWednesday
 0002:000070E8       aTuesday
 0002:000070F0       aMonday
 0002:000070F8       aSunday
 0002:00007100       unk_46B100
 0002:00007104       unk_46B104
 0002:00007108       unk_46B108
 0002:0000710C       unk_46B10C
 0002:00007110       unk_46B110
 0002:00007114       unk_46B114
 0002:00007118       unk_46B118
 0002:00007120       stru_46B120
 0002:00007138       stru_46B138
 0002:00007150       stru_46B150
 0002:00007168       a__global_heap_
 0002:00007180       Name
 0002:00007198       aRuntimeError
 0002:000071A8       aTlossError
 0002:000071B8       aSingError
 0002:000071C8       aDomainError
 0002:000071D8       aR6028UnableToI
 0002:00007200       aR6027NotEnough
 0002:00007238       aR6026NotEnough
 0002:00007270       aR6025PureVirtu
 0002:00007298       aR6024NotEnough
 0002:000072D0       aR6019UnableToO
 0002:000072FC       aR6018Unexpecte
 0002:00007320       aR6017Unexpecte
 0002:00007350       aR6016NotEnough
 0002:0000737C       aAbnormalProgra
 0002:000073A0       aR6009NotEnough
 0002:000073CC       aR6008NotEnough
 0002:000073F8       aR6002FloatingP
 0002:00007420       aMicrosoftVisua
 0002:00007448       asc_46B448
 0002:0000744C       aRuntimeErrorPr
 0002:00007468       aProgramNameUnk
 0002:00007480       dbl_46B480
 0002:00007488       dbl_46B488
 0002:00007490       aIsprocessorfea
 0002:000074AC       aKernel32
 0002:000074B8       aE000
 0002:000074C0       dbl_46B4C0
 0002:000074D4       dbl_46B4D4
 0002:000074DC       dbl_46B4DC
 0002:000074E4       dbl_46B4E4
 0002:000074EC       dbl_46B4EC
 0002:000074F4       dbl_46B4F4
 0002:000074FC       dbl_46B4FC
 0002:000075B4       unk_46B5B4
 0002:000075C0       dbl_46B5C0
 0002:000075C8       dbl_46B5C8
 0002:000075D0       dbl_46B5D0
 0002:000075D8       dbl_46B5D8
 0002:000075E0       dbl_46B5E0
 0002:000075E8       dbl_46B5E8
 0002:000075F0       stru_46B5F0
 0002:00007600       stru_46B600
 0002:00007618       stru_46B618
 0002:00007628       stru_46B628
 0002:00007638       stru_46B638
 0002:00007650       stru_46B650
 0002:00007668       byte_46B668
 0002:0000766C       String1
 0002:00007670       stru_46B670
 0002:00007688       byte_46B688
 0002:000076E4       aNull_0
 0002:000076F4       aNull
 0002:00007700       stru_46B700
 0002:00007718       stru_46B718
 0002:00007728       stru_46B728
 0002:00007734       aSunmontuewedth
 0002:0000774C       aJanfebmaraprma
 0002:00007774       aTz
 0002:00007778       aGetlastactivep
 0002:0000778C       aGetactivewindo
 0002:0000779C       aMessageboxa
 0002:000077A8       LibFileName
 0002:000077B8       stru_46B7B8
 0002:000077D0       a1Qnan
 0002:000077D8       a1Inf
 0002:000077E0       a1Ind
 0002:000077E8       a1Snan
 0002:000078F8       unk_46B8F8
 0002:00007950       unk_46B950
 0002:000079A0       unk_46B9A0
 0002:000079F0       unk_46B9F0
 0002:00007A40       unk_46BA40
 0002:00007A90       unk_46BA90
 0002:00007AE0       unk_46BAE0
 0002:00007B30       unk_46BB30
 0002:00007B80       unk_46BB80
 0002:00007BE8       unk_46BBE8
 0002:00007C38       unk_46BC38
 0002:00007C70       unk_46BC70
 0002:00007CC0       unk_46BCC0
 0002:00007D10       unk_46BD10
 0002:00007D68       unk_46BD68
 0002:00007DC0       unk_46BDC0
 0002:00007E48       unk_46BE48
 0002:00007E80       unk_46BE80
 0002:00007EE8       unk_46BEE8
 0002:00007F40       unk_46BF40
 0002:00007FA8       unk_46BFA8
 0002:00007FF8       unk_46BFF8
 0002:00008050       unk_46C050
 0002:000080A8       unk_46C0A8
 0002:00008100       unk_46C100
 0002:00008158       unk_46C158
 0002:000081A8       unk_46C1A8
 0002:00008248       unk_46C248
 0002:000082C0       unk_46C2C0
 0002:00008310       unk_46C310
 0002:00008360       unk_46C360
 0002:000083B0       unk_46C3B0
 0002:00008400       unk_46C400
 0002:00008450       unk_46C450
 0002:000084A0       unk_46C4A0
 0002:000084F0       unk_46C4F0
 0002:00008560       unk_46C560
 0002:00008608       unk_46C608
 0002:00008658       unk_46C658
 0002:000086A8       unk_46C6A8
 0002:00008700       unk_46C700
 0002:00008768       unk_46C768
 0002:000087B8       unk_46C7B8
 0002:00008808       unk_46C808
 0002:00008858       unk_46C858
 0002:000088A8       unk_46C8A8
 0002:000088F8       unk_46C8F8
 0002:00008948       unk_46C948
 0002:00008A50       unk_46CA50
 0002:00008A98       unk_46CA98
 0002:00008AE8       unk_46CAE8
 0002:00008B30       unk_46CB30
 0002:00008B48       stru_46CB48
 0002:00008B70       stru_46CB70
 0002:00008B98       stru_46CB98
 0002:00008BC0       stru_46CBC0
 0002:00008C00       stru_46CC00
 0002:00008C18       stru_46CC18
 0002:00008C28       stru_46CC28
 0002:00008C68       stru_46CC68
 0002:00008C80       stru_46CC80
 0002:00008C90       stru_46CC90
 0002:00008CC0       stru_46CCC0
 0002:00008CF0       stru_46CCF0
 0002:00008D18       stru_46CD18
 0002:00008D40       stru_46CD40
 0002:00008D68       stru_46CD68
 0002:00008D90       stru_46CD90
 0002:00008DB8       stru_46CDB8
 0002:00008DE0       stru_46CDE0
 0002:00008E10       stru_46CE10
 0002:00008E38       stru_46CE38
 0002:00008E78       stru_46CE78
 0002:00008EA0       stru_46CEA0
 0002:00008F20       stru_46CF20
 0002:00008F50       stru_46CF50
 0002:00008F78       stru_46CF78
 0002:00008FE0       stru_46CFE0
 0002:00009008       stru_46D008
 0002:00009030       stru_46D030
 0002:00009058       stru_46D058
 0002:000090A0       stru_46D0A0
 0002:000090C8       stru_46D0C8
 0002:000090F0       stru_46D0F0
 0002:00009140       stru_46D140
 0002:00009178       stru_46D178
 0002:00009190       stru_46D190
 0002:000091A0       stru_46D1A0
 0002:000091C8       stru_46D1C8
 0002:000091F0       stru_46D1F0
 0002:00009218       stru_46D218
 0002:00009240       stru_46D240
 0002:00009268       stru_46D268
 0002:00009290       stru_46D290
 0002:000092B8       stru_46D2B8
 0002:000092E0       stru_46D2E0
 0002:00009308       stru_46D308
 0002:00009350       stru_46D350
 0002:00009380       stru_46D380
 0002:000093F0       stru_46D3F0
 0002:00009420       stru_46D420
 0002:00009448       stru_46D448
 0002:00009470       stru_46D470
 0002:000094A8       stru_46D4A8
 0002:000094D8       stru_46D4D8
 0002:00009508       stru_46D508
 0002:00009530       stru_46D530
 0002:00009568       stru_46D568
 0002:00009690       stru_46D690
 0002:000096C0       stru_46D6C0
 0002:000096E8       stru_46D6E8
 0002:00009828       stru_46D828
 0002:00009858       stru_46D858
 0002:000098A8       stru_46D8A8
 0002:000098D0       stru_46D8D0
 0002:000098E0       stru_46D8E0
 0002:000098F0       stru_46D8F0
 0002:00009918       stru_46D918
 0002:00009958       stru_46D958
 0002:00009980       stru_46D980
 0002:000099C0       stru_46D9C0
 0002:000099E8       stru_46D9E8
 0002:00009A10       stru_46DA10
 0002:00009A38       stru_46DA38
 0002:00009A60       stru_46DA60
 0002:00009A98       stru_46DA98
 0002:00009AB0       stru_46DAB0
 0002:00009AC0       stru_46DAC0
 0002:00009AE8       stru_46DAE8
 0002:00009BC0       stru_46DBC0
 0002:00009BD8       stru_46DBD8
 0002:00009BE8       stru_46DBE8
 0002:00009C30       stru_46DC30
 0002:00009C98       stru_46DC98
 0002:00009CC0       stru_46DCC0
 0002:00009D10       stru_46DD10
 0002:00009D88       stru_46DD88
 0002:00009DD0       stru_46DDD0
 0002:00009E30       stru_46DE30
 0002:00009E68       stru_46DE68
 0002:00009EA8       stru_46DEA8
 0002:00009ED8       stru_46DED8
 0002:00009F00       stru_46DF00
 0002:00009F28       stru_46DF28
 0002:00009F50       stru_46DF50
 0002:00009F78       stru_46DF78
 0002:00009FA8       stru_46DFA8
 0002:00009FD0       stru_46DFD0
 0002:0000A030       stru_46E030
 0002:0000A058       stru_46E058
 0002:0000A080       stru_46E080
 0002:0000A0A8       stru_46E0A8
 0002:0000A0D8       stru_46E0D8
 0002:0000A140       stru_46E140
 0002:0000A158       stru_46E158
 0002:0000A178       stru_46E178
 0002:0000A1C8       stru_46E1C8
 0002:0000A210       stru_46E210
 0002:0000A238       stru_46E238
 0002:0000A260       stru_46E260
 0002:0000A2A8       stru_46E2A8
 0002:0000A2E0       stru_46E2E0
 0002:0000A308       stru_46E308
 0002:0000A348       stru_46E348
 0002:0000A370       stru_46E370
 0002:0000A398       stru_46E398
 0002:0000A3C0       stru_46E3C0
 0002:0000A3E8       stru_46E3E8
 0002:0000A420       stru_46E420
 0002:0000A438       stru_46E438
 0002:0000A448       stru_46E448
 0002:0000A4A8       stru_46E4A8
 0002:0000A4D0       stru_46E4D0
 0002:0000A510       stru_46E510
 0002:0000A540       stru_46E540
 0002:0000A568       stru_46E568
 0002:0000A590       stru_46E590
 0002:0000A5D8       stru_46E5D8
 0002:0000A610       stru_46E610
 0002:0000A628       stru_46E628
 0002:0000A638       stru_46E638
 0002:0000A670       stru_46E670
 0002:0000A688       stru_46E688
 0002:0000A698       stru_46E698
 0002:0000A6D0       stru_46E6D0
 0002:0000A6E8       stru_46E6E8
 0002:0000A6F8       stru_46E6F8
 0002:0000A738       stru_46E738
 0002:0000A750       stru_46E750
 0002:0000A760       stru_46E760
 0002:0000A788       stru_46E788
 0002:0000A7B0       stru_46E7B0
 0002:0000A7E8       stru_46E7E8
 0002:0000A800       stru_46E800
 0002:0000A810       stru_46E810
 0002:0000A848       stru_46E848
 0002:0000A880       stru_46E880
 0002:0000A8A8       stru_46E8A8
 0002:0000A8D8       stru_46E8D8
 0002:0000A910       stru_46E910
 0002:0000A940       stru_46E940
 0002:0000A968       stru_46E968
 0002:0000A990       stru_46E990
 0002:0000A9B8       stru_46E9B8
 0002:0000A9E0       stru_46E9E0
 0002:0000AA08       stru_46EA08
 0002:0000AA48       stru_46EA48
 0002:0000AA60       stru_46EA60
 0002:0000AA70       stru_46EA70
 0002:0000AAB0       stru_46EAB0
 0002:0000AAC8       stru_46EAC8
 0002:0000AAD8       stru_46EAD8
 0002:0000AC90       stru_46EC90
 0002:0000AD78       stru_46ED78
 0002:0000ADC8       stru_46EDC8
 0002:0000ADF0       stru_46EDF0
 0002:0000AE18       stru_46EE18
 0002:0000AE50       stru_46EE50
 0002:0000AE80       stru_46EE80
 0002:0000AEA8       stru_46EEA8
 0002:0000AED0       stru_46EED0
 0002:0000AEF8       stru_46EEF8
 0002:0000AF20       stru_46EF20
 0002:0000AF48       stru_46EF48
 0002:0000AF70       stru_46EF70
 0002:0000AF98       stru_46EF98
 0002:0000AFC0       stru_46EFC0
 0002:0000AFE8       stru_46EFE8
 0002:0000B0F0       stru_46F0F0
 0002:0000B138       stru_46F138
 0002:0000B160       stru_46F160
 0002:0000B190       stru_46F190
 0002:0000B1D0       stru_46F1D0
 0002:0000B200       stru_46F200
 0002:0000B270       stru_46F270
 0002:0000B2B0       stru_46F2B0
 0002:0000B2D8       stru_46F2D8
 0002:0000B308       stru_46F308
 0002:0000B338       stru_46F338
 0002:0000B368       stru_46F368
 0002:0000B398       stru_46F398
 0002:0000B3E0       stru_46F3E0
 0002:0000B410       stru_46F410
 0002:0000B438       stru_46F438
 0002:0000B460       stru_46F460
 0002:0000B4A8       stru_46F4A8
 0002:0000B4D8       stru_46F4D8
 0002:0000B500       stru_46F500
 0002:0000B540       stru_46F540
 0002:0000B578       stru_46F578
 0002:0000B5A0       stru_46F5A0
 0002:0000B5C8       stru_46F5C8
 0002:0000B5F0       stru_46F5F0
 0002:0000B628       stru_46F628
 0002:0000B640       stru_46F640
 0002:0000B670       stru_46F670
 0002:0000B6B0       stru_46F6B0
 0002:0000B6C8       stru_46F6C8
 0002:0000B6E8       stru_46F6E8
 0002:0000B710       stru_46F710
 0002:0000B748       stru_46F748
 0002:0000B760       stru_46F760
 0002:0000B780       stru_46F780
 0002:0000B7B8       stru_46F7B8
 0002:0000B7D0       stru_46F7D0
 0002:0000B7F0       stru_46F7F0
 0002:0000B830       stru_46F830
 0002:0000B848       stru_46F848
 0002:0000B868       stru_46F868
 0002:0000B8A0       stru_46F8A0
 0002:0000B8B8       stru_46F8B8
 0002:0000B8D8       stru_46F8D8
 0002:0000B928       stru_46F928
 0002:0000B950       stru_46F950
 0002:0000B970       stru_46F970
 0002:0000B990       stru_46F990
 0002:0000B9B8       stru_46F9B8
 0002:0000B9E0       stru_46F9E0
 0002:0000BA08       stru_46FA08
 0002:0000BA30       stru_46FA30
 0002:0000BA58       stru_46FA58
 0002:0000BA88       stru_46FA88
 0002:0000BAB0       stru_46FAB0
 0002:0000BAE0       stru_46FAE0
 0002:0000BB08       stru_46FB08
 0002:0000BB38       stru_46FB38
 0002:0000BB68       stru_46FB68
 0002:0000BBA8       stru_46FBA8
 0002:0000BBE0       stru_46FBE0
 0002:0000BC10       stru_46FC10
 0002:0000BC38       stru_46FC38
 0002:0000BC60       stru_46FC60
 0002:0000BCA0       stru_46FCA0
 0002:0000BCC8       stru_46FCC8
 0002:0000BCF0       stru_46FCF0
 0002:0000BD18       stru_46FD18
 0002:0000BD50       stru_46FD50
 0002:0000BD78       stru_46FD78
 0002:0000BDA0       stru_46FDA0
 0002:0000BE10       stru_46FE10
 0002:0000BE28       stru_46FE28
 0002:0000BE38       stru_46FE38
 0002:0000BE60       stru_46FE60
 0002:0000BE98       stru_46FE98
 0002:0000BEB0       stru_46FEB0
 0002:0000BEC0       stru_46FEC0
 0002:0000BF10       stru_46FF10
 0002:0000BF38       stru_46FF38
 0002:0000BF48       stru_46FF48
 0002:0000BF58       stru_46FF58
 0002:0000C040       stru_470040
 0002:0000C070       stru_470070
 0002:0000C0A8       stru_4700A8
 0002:0000C0D0       stru_4700D0
 0002:0000C0F8       stru_4700F8
 0002:0000C130       stru_470130
 0002:0000C168       stru_470168
 0002:0000C198       stru_470198
 0002:0000C1C0       stru_4701C0
 0002:0000C1E8       stru_4701E8
 0002:0000C230       stru_470230
 0002:0000C260       stru_470260
 0002:0000C290       stru_470290
 0002:0000C2C0       stru_4702C0
 0002:0000C2E8       stru_4702E8
 0002:0000C318       stru_470318
 0002:0000C368       stru_470368
 0002:0000C3B8       stru_4703B8
 0002:0000C418       stru_470418
 0002:0000C440       stru_470440
 0002:0000C468       stru_470468
 0002:0000C490       stru_470490
 0002:0000C4B8       stru_4704B8
 0002:0000C4E0       stru_4704E0
 0002:0000C530       stru_470530
 0002:0000C560       stru_470560
 0002:0000C588       stru_470588
 0002:0000C5B8       stru_4705B8
 0002:0000C5E8       stru_4705E8
 0002:0000C618       stru_470618
 0002:0000C648       stru_470648
 0002:0000C686       word_470686
 0002:0000C730       unk_470730
 0002:0000C778       unk_470778
 0002:0000C788       stru_470788
 0002:0000C7B0       stru_4707B0
 0002:0000C7E0       stru_4707E0
 0002:0000C808       stru_470808
 0002:0000C830       stru_470830
 0002:0000C858       stru_470858
 0002:0000C880       stru_470880
 0002:0000C8A8       stru_4708A8
 0002:0000C8D0       stru_4708D0
 0002:0000C8F8       stru_4708F8
 0002:0000C920       stru_470920
 0002:0000C948       stru_470948
 0002:0000C970       stru_470970
 0002:0000C998       stru_470998
 0002:0000C9C0       stru_4709C0
 0002:0000C9E8       stru_4709E8
 0002:0000CA48       unk_470A48
 0002:0000CA58       stru_470A58
 0002:0000CA80       stru_470A80
 0002:0000CAC0       stru_470AC0
 0002:0000CAD8       stru_470AD8
 0002:0000CAE8       stru_470AE8
 0002:0000CB18       stru_470B18
 0002:0000CB30       stru_470B30
 0002:0000CB40       stru_470B40
 0002:0000CB70       stru_470B70
 0002:0000CB88       stru_470B88
 0002:0000CB98       stru_470B98
 0002:0000CBC0       stru_470BC0
 0002:0000CBF0       stru_470BF0
 0002:0000CC08       stru_470C08
 0002:0000CC18       stru_470C18
 0002:0000CC40       stru_470C40
 0002:0000CC70       stru_470C70
 0002:0000CC88       stru_470C88
 0002:0000CC98       stru_470C98
 0002:0000CCC0       stru_470CC0
 0002:0000CCF8       stru_470CF8
 0002:0000CD20       stru_470D20
 0002:0000CD50       stru_470D50
 0002:0000CD68       stru_470D68
 0002:0000CD88       stru_470D88
 0002:0000CDB0       stru_470DB0
 0002:0000CDD8       stru_470DD8
 0002:0000CE00       stru_470E00
 0002:0000CE28       stru_470E28
 0002:0000CE50       stru_470E50
 0002:0000CE78       stru_470E78
 0002:0000CEA0       stru_470EA0
 0002:0000CEC8       stru_470EC8
 0002:0000CF00       stru_470F00
 0002:0000CF28       stru_470F28
 0002:0000CF50       stru_470F50
 0002:0000CF80       stru_470F80
 0002:0000CFA8       stru_470FA8
 0002:0000CFD0       stru_470FD0
 0002:0000D000       stru_471000
 0002:0000D028       stru_471028
 0002:0000D050       stru_471050
 0002:0000D080       stru_471080
 0002:0000D098       stru_471098
 0002:0000D0A8       stru_4710A8
 0002:0000D0D8       stru_4710D8
 0002:0000D108       stru_471108
 0002:0000D130       stru_471130
 0002:0000D158       stru_471158
 0002:0000D180       stru_471180
 0002:0000D1B0       stru_4711B0
 0002:0000D1D8       stru_4711D8
 0002:0000D200       stru_471200
 0002:0000D228       stru_471228
 0002:0000D250       stru_471250
 0002:0000D278       stru_471278
 0002:0000D2E0       unk_4712E0
 0002:0000D2F0       stru_4712F0
 0002:0000D328       stru_471328
 0002:0000D350       stru_471350
 0002:0000D378       stru_471378
 0002:0000D3A0       stru_4713A0
 0002:0000D3C8       stru_4713C8
 0002:0000D3F0       stru_4713F0
 0002:0000D418       stru_471418
 0002:0000D440       stru_471440
 0002:0000D468       stru_471468
 0002:0000D490       stru_471490
 0002:0000D4B8       stru_4714B8
 0002:0000D4E0       stru_4714E0
 0002:0000D548       unk_471548
 0002:0000D558       stru_471558
 0002:0000D590       stru_471590
 0002:0000D5B8       stru_4715B8
 0002:0000D5E0       stru_4715E0
 0002:0000D610       stru_471610
 0002:0000D638       stru_471638
 0002:0000D668       stru_471668
 0002:0000D680       stru_471680
 0002:0000D690       stru_471690
 0002:0000D6C0       stru_4716C0
 0002:0000D6D8       stru_4716D8
 0002:0000D6E8       stru_4716E8
 0002:0000D718       stru_471718
 0002:0000D748       stru_471748
 0002:0000D760       stru_471760
 0002:0000D770       stru_471770
 0002:0000D7A0       stru_4717A0
 0002:0000D7C8       stru_4717C8
 0002:0000D7F0       stru_4717F0
 0002:0000D818       __IMPORT_DESCRIPTOR_KERNEL32
 0002:0000D82C       __IMPORT_DESCRIPTOR_USER32
 0002:0000D840       __IMPORT_DESCRIPTOR_GDI32
 0002:0000D854       __IMPORT_DESCRIPTOR_WINMM
 0002:0000D868       __IMPORT_DESCRIPTOR_WINSPOOL_DRV
 0002:0000D87C       __IMPORT_DESCRIPTOR_ADVAPI32
 0002:0000D890       __IMPORT_DESCRIPTOR_SHELL32
 0002:0000D8A4       __IMPORT_DESCRIPTOR_ole32
 0002:0000D8B8       __IMPORT_DESCRIPTOR_OLEAUT32
 0002:0000D8CC       __IMPORT_DESCRIPTOR_COMCTL32
 0002:0000D8E0       __IMPORT_DESCRIPTOR_WS2_32
 0002:0000D8F4       __IMPORT_DESCRIPTOR_comdlg32
 0002:0000D91C       off_47191C
 0002:0000D934       off_471934
 0002:0000D940       off_471940
 0002:0000DA8C       off_471A8C
 0002:0000DC8C       dword_471C8C
 0002:0000DC9C       off_471C9C
 0002:0000DCA8       off_471CA8
 0002:0000DF14       off_471F14
 0002:0000DF5C       off_471F5C
 0002:0000DF6C       dword_471F6C
 0002:0000DF94       off_471F94
 0002:0000DFA8       off_471FA8
 0002:0000DFB8       word_471FB8
 0002:0000DFC6       word_471FC6
 0002:0000DFDC       word_471FDC
 0002:0000DFEC       word_471FEC
 0002:0000DFFE       word_471FFE
 0002:0000E008       word_472008
 0002:0000E01A       word_47201A
 0002:0000E02E       word_47202E
 0002:0000E046       word_472046
 0002:0000E05E       word_47205E
 0002:0000E074       word_472074
 0002:0000E080       word_472080
 0002:0000E092       word_472092
 0002:0000E0A2       word_4720A2
 0002:0000E0B0       word_4720B0
 0002:0000E0BE       word_4720BE
 0002:0000E0C6       word_4720C6
 0002:0000E0D6       word_4720D6
 0002:0000E0E6       word_4720E6
 0002:0000E104       word_472104
 0002:0000E114       word_472114
 0002:0000E120       word_472120
 0002:0000E130       word_472130
 0002:0000E13E       word_47213E
 0002:0000E152       word_472152
 0002:0000E15E       word_47215E
 0002:0000E170       word_472170
 0002:0000E17E       word_47217E
 0002:0000E18A       word_47218A
 0002:0000E19A       word_47219A
 0002:0000E1AA       word_4721AA
 0002:0000E1B6       word_4721B6
 0002:0000E1C0       word_4721C0
 0002:0000E1CC       word_4721CC
 0002:0000E1E8       word_4721E8
 0002:0000E200       word_472200
 0002:0000E20E       word_47220E
 0002:0000E21C       word_47221C
 0002:0000E22A       word_47222A
 0002:0000E240       word_472240
 0002:0000E256       word_472256
 0002:0000E266       word_472266
 0002:0000E276       word_472276
 0002:0000E286       word_472286
 0002:0000E292       word_472292
 0002:0000E2A0       word_4722A0
 0002:0000E2BA       word_4722BA
 0002:0000E2CA       word_4722CA
 0002:0000E2D6       word_4722D6
 0002:0000E2E2       word_4722E2
 0002:0000E2F6       word_4722F6
 0002:0000E30E       word_47230E
 0002:0000E326       word_472326
 0002:0000E33A       word_47233A
 0002:0000E34A       word_47234A
 0002:0000E35E       aKernel32_dll
 0002:0000E36C       word_47236C
 0002:0000E378       word_472378
 0002:0000E38A       word_47238A
 0002:0000E39E       word_47239E
 0002:0000E3AE       word_4723AE
 0002:0000E3C2       word_4723C2
 0002:0000E3D4       word_4723D4
 0002:0000E3E8       word_4723E8
 0002:0000E3F8       word_4723F8
 0002:0000E406       word_472406
 0002:0000E416       word_472416
 0002:0000E426       word_472426
 0002:0000E436       word_472436
 0002:0000E442       word_472442
 0002:0000E44E       word_47244E
 0002:0000E45E       word_47245E
 0002:0000E46E       word_47246E
 0002:0000E47A       word_47247A
 0002:0000E486       word_472486
 0002:0000E496       word_472496
 0002:0000E4A8       word_4724A8
 0002:0000E4B8       word_4724B8
 0002:0000E4C8       word_4724C8
 0002:0000E4D4       word_4724D4
 0002:0000E4E4       word_4724E4
 0002:0000E4FA       word_4724FA
 0002:0000E508       word_472508
 0002:0000E512       word_472512
 0002:0000E51E       word_47251E
 0002:0000E52C       word_47252C
 0002:0000E538       word_472538
 0002:0000E540       word_472540
 0002:0000E54C       word_47254C
 0002:0000E55A       word_47255A
 0002:0000E56A       word_47256A
 0002:0000E57C       word_47257C
 0002:0000E58A       word_47258A
 0002:0000E59C       word_47259C
 0002:0000E5AE       word_4725AE
 0002:0000E5BE       word_4725BE
 0002:0000E5CE       word_4725CE
 0002:0000E5E0       word_4725E0
 0002:0000E5EE       word_4725EE
 0002:0000E5FA       word_4725FA
 0002:0000E608       word_472608
 0002:0000E618       word_472618
 0002:0000E622       word_472622
 0002:0000E630       word_472630
 0002:0000E640       word_472640
 0002:0000E652       word_472652
 0002:0000E664       word_472664
 0002:0000E672       word_472672
 0002:0000E680       word_472680
 0002:0000E692       word_472692
 0002:0000E69E       word_47269E
 0002:0000E6AA       word_4726AA
 0002:0000E6B6       word_4726B6
 0002:0000E6C4       word_4726C4
 0002:0000E6D0       word_4726D0
 0002:0000E6EA       word_4726EA
 0002:0000E6FC       word_4726FC
 0002:0000E70C       word_47270C
 0002:0000E71C       word_47271C
 0002:0000E736       word_472736
 0002:0000E742       word_472742
 0002:0000E754       word_472754
 0002:0000E760       word_472760
 0002:0000E76C       word_47276C
 0002:0000E77C       word_47277C
 0002:0000E786       word_472786
 0002:0000E790       word_472790
 0002:0000E7A2       word_4727A2
 0002:0000E7B2       word_4727B2
 0002:0000E7C0       word_4727C0
 0002:0000E7D0       word_4727D0
 0002:0000E7DC       word_4727DC
 0002:0000E7EE       word_4727EE
 0002:0000E806       word_472806
 0002:0000E814       word_472814
 0002:0000E82C       word_47282C
 0002:0000E83E       word_47283E
 0002:0000E84C       word_47284C
 0002:0000E85A       word_47285A
 0002:0000E872       word_472872
 0002:0000E884       word_472884
 0002:0000E896       word_472896
 0002:0000E8A4       word_4728A4
 0002:0000E8B4       word_4728B4
 0002:0000E8CE       word_4728CE
 0002:0000E8DC       word_4728DC
 0002:0000E8EA       word_4728EA
 0002:0000E8F8       word_4728F8
 0002:0000E90A       word_47290A
 0002:0000E918       word_472918
 0002:0000E932       word_472932
 0002:0000E94E       word_47294E
 0002:0000E96A       word_47296A
 0002:0000E97A       word_47297A
 0002:0000E98E       word_47298E
 0002:0000E99C       word_47299C
 0002:0000E9AE       word_4729AE
 0002:0000E9BE       word_4729BE
 0002:0000E9CA       word_4729CA
 0002:0000E9DE       word_4729DE
 0002:0000E9EA       word_4729EA
 0002:0000E9FE       word_4729FE
 0002:0000EA16       aUser32_dll
 0002:0000EA22       word_472A22
 0002:0000EA32       word_472A32
 0002:0000EA4A       word_472A4A
 0002:0000EA56       word_472A56
 0002:0000EA6A       word_472A6A
 0002:0000EA74       word_472A74
 0002:0000EA7E       word_472A7E
 0002:0000EA8A       word_472A8A
 0002:0000EA94       word_472A94
 0002:0000EAAA       word_472AAA
 0002:0000EAB4       word_472AB4
 0002:0000EAC0       word_472AC0
 0002:0000EACC       word_472ACC
 0002:0000EAD8       word_472AD8
 0002:0000EAE2       word_472AE2
 0002:0000EAEC       word_472AEC
 0002:0000EB02       word_472B02
 0002:0000EB14       word_472B14
 0002:0000EB28       word_472B28
 0002:0000EB36       word_472B36
 0002:0000EB46       word_472B46
 0002:0000EB50       word_472B50
 0002:0000EB5A       word_472B5A
 0002:0000EB66       word_472B66
 0002:0000EB74       word_472B74
 0002:0000EB84       word_472B84
 0002:0000EB94       word_472B94
 0002:0000EBA0       word_472BA0
 0002:0000EBBA       word_472BBA
 0002:0000EBCC       word_472BCC
 0002:0000EBE0       word_472BE0
 0002:0000EBEA       word_472BEA
 0002:0000EBF8       word_472BF8
 0002:0000EC04       word_472C04
 0002:0000EC14       word_472C14
 0002:0000EC2A       word_472C2A
 0002:0000EC3E       word_472C3E
 0002:0000EC4E       word_472C4E
 0002:0000EC58       word_472C58
 0002:0000EC64       word_472C64
 0002:0000EC76       word_472C76
 0002:0000EC8A       word_472C8A
 0002:0000EC9C       word_472C9C
 0002:0000ECA8       word_472CA8
 0002:0000ECBA       word_472CBA
 0002:0000ECCA       word_472CCA
 0002:0000ECD8       word_472CD8
 0002:0000ECE8       word_472CE8
 0002:0000ED02       word_472D02
 0002:0000ED14       word_472D14
 0002:0000ED24       word_472D24
 0002:0000ED34       word_472D34
 0002:0000ED48       word_472D48
 0002:0000ED56       word_472D56
 0002:0000ED6A       word_472D6A
 0002:0000ED82       word_472D82
 0002:0000ED90       aGdi32_dll
 0002:0000ED9A       word_472D9A
 0002:0000EDAE       word_472DAE
 0002:0000EDC0       word_472DC0
 0002:0000EDD0       word_472DD0
 0002:0000EDE2       word_472DE2
 0002:0000EDF2       word_472DF2
 0002:0000EE0A       word_472E0A
 0002:0000EE20       word_472E20
 0002:0000EE32       word_472E32
 0002:0000EE4C       word_472E4C
 0002:0000EE5A       word_472E5A
 0002:0000EE6E       word_472E6E
 0002:0000EE7E       word_472E7E
 0002:0000EE8E       word_472E8E
 0002:0000EE9E       word_472E9E
 0002:0000EEAE       word_472EAE
 0002:0000EEC6       word_472EC6
 0002:0000EEE0       aWinmm_dll
 0002:0000EEEA       word_472EEA
 0002:0000EEFA       word_472EFA
 0002:0000EF10       word_472F10
 0002:0000EF20       aWinspool_drv
 0002:0000EF2E       word_472F2E
 0002:0000EF3C       word_472F3C
 0002:0000EF4C       word_472F4C
 0002:0000EF5E       word_472F5E
 0002:0000EF70       aAdvapi32_dll
 0002:0000EF7E       word_472F7E
 0002:0000EF8E       word_472F8E
 0002:0000EFA2       aShell32_dll
 0002:0000EFAE       word_472FAE
 0002:0000EFC0       word_472FC0
 0002:0000EFD2       word_472FD2
 0002:0000EFE2       aOle32_dll
 0002:0000EFEC       aOleaut32_dll
 0002:0000EFFA       word_472FFA
 0002:0000F00E       aComctl32_dll
 0002:0000F01C       aWs2_32_dll
 0002:0000F028       word_473028
 0002:0000F040       word_473040
 0002:0000F058       word_473058
 0002:0000F06E       word_47306E
 0002:0000F084       word_473084
 0002:0000F090       word_473090
 0002:0000F0A8       word_4730A8
 0002:0000F0C2       word_4730C2
 0002:0000F0D2       word_4730D2
 0002:0000F0DE       word_4730DE
 0002:0000F0F0       word_4730F0
 0002:0000F104       word_473104
 0002:0000F116       word_473116
 0002:0000F12A       word_47312A
 0002:0000F136       word_473136
 0002:0000F144       word_473144
 0002:0000F154       word_473154
 0002:0000F160       word_473160
 0002:0000F174       word_473174
 0002:0000F186       word_473186
 0002:0000F198       word_473198
 0002:0000F1AE       word_4731AE
 0002:0000F1BC       word_4731BC
 0002:0000F1C8       word_4731C8
 0002:0000F1D6       word_4731D6
 0002:0000F1E2       word_4731E2
 0002:0000F1F2       word_4731F2
 0002:0000F1FC       word_4731FC
 0002:0000F20A       word_47320A
 0002:0000F21A       word_47321A
 0002:0000F228       word_473228
 0002:0000F236       word_473236
 0002:0000F244       word_473244
 0002:0000F258       word_473258
 0002:0000F266       word_473266
 0002:0000F276       word_473276
 0002:0000F28A       word_47328A
 0002:0000F296       word_473296
 0002:0000F2A2       word_4732A2
 0002:0000F2B4       word_4732B4
 0002:0000F2C0       word_4732C0
 0002:0000F2D2       word_4732D2
 0002:0000F2EC       word_4732EC
 0002:0000F2FC       word_4732FC
 0002:0000F30C       word_47330C
 0002:0000F320       word_473320
 0002:0000F32C       word_47332C
 0002:0000F336       word_473336
 0002:0000F352       word_473352
 0002:0000F36C       word_47336C
 0002:0000F386       word_473386
 0002:0000F39E       word_47339E
 0002:0000F3B8       word_4733B8
 0002:0000F3CA       word_4733CA
 0002:0000F3DA       word_4733DA
 0002:0000F3E8       word_4733E8
 0002:0000F402       word_473402
 0002:0000F410       word_473410
 0002:0000F41E       word_47341E
 0002:0000F42C       word_47342C
 0002:0000F446       word_473446
 0002:0000F456       word_473456
 0002:0000F466       word_473466
 0002:0000F476       word_473476
 0002:0000F486       word_473486
 0002:0000F498       word_473498
 0002:0000F4AA       word_4734AA
 0002:0000F4C8       word_4734C8
 0002:0000F4DA       word_4734DA
 0002:0000F4EC       word_4734EC
 0002:0000F4FC       word_4734FC
 0002:0000F50C       word_47350C
 0002:0000F51C       word_47351C
 0002:0000F52E       word_47352E
 0002:0000F546       word_473546
 0002:0000F554       word_473554
 0002:0000F562       word_473562
 0002:0000F570       word_473570
 0002:0000F57C       word_47357C
 0002:0000F58E       word_47358E
 0002:0000F59A       word_47359A
 0002:0000F5A8       word_4735A8
 0002:0000F5B6       word_4735B6
 0002:0000F5C6       word_4735C6
 0002:0000F5E4       word_4735E4
 0002:0000F5F0       word_4735F0
 0002:0000F604       word_473604
 0002:0000F61A       word_47361A
 0002:0000F634       word_473634
 0002:0000F64A       word_47364A
 0002:0000F660       word_473660
 0002:0000F672       word_473672
 0002:0000F680       word_473680
 0002:0000F692       word_473692
 0002:0000F69E       word_47369E
 0002:0000F6B4       word_4736B4
 0002:0000F6C0       word_4736C0
 0002:0000F6D0       word_4736D0
 0002:0000F6E2       word_4736E2
 0002:0000F6F6       word_4736F6
 0002:0000F708       word_473708
 0002:0000F718       word_473718
 0002:0000F72C       word_47372C
 0002:0000F73E       word_47373E
 0002:0000F74E       word_47374E
 0002:0000F764       word_473764
 0002:0000F776       word_473776
 0002:0000F78C       word_47378C
 0002:0000F79E       word_47379E
 0002:0000F7B2       word_4737B2
 0002:0000F7C4       word_4737C4
 0002:0000F7D2       word_4737D2
 0002:0000F7E2       word_4737E2
 0002:0000F7F8       word_4737F8
 0002:0000F808       word_473808
 0002:0000F826       word_473826
 0002:0000F836       word_473836
 0002:0000F84A       word_47384A
 0002:0000F858       word_473858
 0002:0000F86C       word_47386C
 0002:0000F876       word_473876
 0002:0000F882       word_473882
 0002:0000F88E       word_47388E
 0002:0000F8A0       word_4738A0
 0002:0000F8AA       word_4738AA
 0002:0000F8BA       word_4738BA
 0002:0000F8C8       word_4738C8
 0002:0000F8DC       word_4738DC
 0002:0000F8F2       word_4738F2
 0002:0000F906       word_473906
 0002:0000F91C       word_47391C
 0002:0000F92E       word_47392E
 0002:0000F940       word_473940
 0002:0000F954       word_473954
 0002:0000F962       word_473962
 0002:0000F974       word_473974
 0002:0000F980       word_473980
 0002:0000F98A       word_47398A
 0002:0000F99E       word_47399E
 0002:0000F9B2       word_4739B2
 0002:0000F9BE       word_4739BE
 0002:0000F9CC       word_4739CC
 0002:0000F9D8       word_4739D8
 0002:0000F9E6       word_4739E6
 0002:0000F9F0       word_4739F0
 0002:0000FA02       word_473A02
 0002:0000FA12       word_473A12
 0002:0000FA26       word_473A26
 0002:0000FA3A       word_473A3A
 0002:0000FA4A       aComdlg32_dll
 0002:0000FA58       word_473A58
 0002:0000FA6A       word_473A6A
 0003:00000000       unk_474000
 0003:000000A4       unk_4740A4
 0003:000000A8       unk_4740A8
 0003:000000BC       unk_4740BC
 0003:000000C0       unk_4740C0
 0003:000000CC       unk_4740CC
 0003:000000D0       unk_4740D0
 0003:000000D8       unk_4740D8
 0003:00000198       asc_474198
 0003:0000019C       aU
 0003:000001A0       aDDD
 0003:000001B0       aDDDI
 0003:000001C0       asc_4741C0
 0003:000001C8       stru_4741C8
 0003:000001E8       stru_4741E8
 0003:00000210       stru_474210
 0003:00000230       aW
 0003:00000234       aSS
 0003:00000240       aPrn
 0003:00000244       unk_474244
 0003:00000274       asc_474274
 0003:00000278       asc_474278
 0003:00000290       dword_474290
 0003:00002B74       off_476B74
 0003:00002B78       off_476B78
 0003:00002CB4       dword_476CB4
 0003:00002CB8       word_476CB8
 0003:00002CBA       word_476CBA
 0003:00002CBC       dword_476CBC
 0003:00002CC0       dword_476CC0
 0003:00002CC4       dword_476CC4
 0003:00002CC8       dword_476CC8
 0003:00002CCC       word_476CCC
 0003:00002CCE       word_476CCE
 0003:00002CD0       dword_476CD0
 0003:00002CD4       dword_476CD4
 0003:00002CD8       dword_476CD8
 0003:00002CDC       dword_476CDC
 0003:00002CE0       word_476CE0
 0003:00002CE2       word_476CE2
 0003:00002CE4       dword_476CE4
 0003:00002CE8       dword_476CE8
 0003:00002CEC       dword_476CEC
 0003:00002CF0       dword_476CF0
 0003:00002CF4       word_476CF4
 0003:00002CF6       word_476CF6
 0003:00002CF8       dword_476CF8
 0003:00002CFC       dword_476CFC
 0003:00002D00       dword_476D00
 0003:00002D04       dword_476D04
 0003:00002D08       word_476D08
 0003:00002D0A       word_476D0A
 0003:00002D0C       dword_476D0C
 0003:00002D10       dword_476D10
 0003:00002D14       dword_476D14
 0003:00002D18       dword_476D18
 0003:00002D1C       word_476D1C
 0003:00002D1E       word_476D1E
 0003:00002D20       dword_476D20
 0003:00002D24       dword_476D24
 0003:00002D28       dword_476D28
 0003:00002D2C       dword_476D2C
 0003:00002D30       word_476D30
 0003:00002D32       word_476D32
 0003:00002D34       dword_476D34
 0003:00002D38       dword_476D38
 0003:00002D3C       dword_476D3C
 0003:00002D40       dword_476D40
 0003:00002D44       word_476D44
 0003:00002D46       word_476D46
 0003:00002D48       dword_476D48
 0003:00002D4C       dword_476D4C
 0003:00002D50       dword_476D50
 0003:00002D54       dword_476D54
 0003:00002D58       word_476D58
 0003:00002D5A       word_476D5A
 0003:00002D5C       dword_476D5C
 0003:00002D60       dword_476D60
 0003:00002D64       dword_476D64
 0003:00002D68       dword_476D68
 0003:00002D6C       word_476D6C
 0003:00002D6E       word_476D6E
 0003:00002D70       dword_476D70
 0003:00002E48       dword_476E48
 0003:00002E4C       word_476E4C
 0003:00002E4E       word_476E4E
 0003:00002E50       dword_476E50
 0003:00002E54       dword_476E54
 0003:00002E58       dword_476E58
 0003:00002E5C       dword_476E5C
 0003:00002E60       word_476E60
 0003:00002E62       word_476E62
 0003:00002E64       dword_476E64
 0003:00002E68       dword_476E68
 0003:00002E6C       dword_476E6C
 0003:00002E70       dword_476E70
 0003:00002E74       word_476E74
 0003:00002E76       word_476E76
 0003:00002E78       dword_476E78
 0003:00002E7C       dword_476E7C
 0003:00002E80       dword_476E80
 0003:00002E84       dword_476E84
 0003:00002E88       word_476E88
 0003:00002E8A       word_476E8A
 0003:00002E8C       dword_476E8C
 0003:00002E90       dword_476E90
 0003:00002E94       dword_476E94
 0003:00002E98       dword_476E98
 0003:00002E9C       word_476E9C
 0003:00002E9E       word_476E9E
 0003:00002EA0       dword_476EA0
 0003:00002EA4       dword_476EA4
 0003:00002EA8       dword_476EA8
 0003:00002EAC       dword_476EAC
 0003:00002EB0       word_476EB0
 0003:00002EB2       word_476EB2
 0003:00002EB4       dword_476EB4
 0003:00002EB8       dword_476EB8
 0003:00002EBC       dword_476EBC
 0003:00002EC0       dword_476EC0
 0003:00002EC4       word_476EC4
 0003:00002EC6       word_476EC6
 0003:00002EC8       dword_476EC8
 0003:00002ECC       dword_476ECC
 0003:00002ED0       dword_476ED0
 0003:00002ED4       dword_476ED4
 0003:00002ED8       word_476ED8
 0003:00002EDA       word_476EDA
 0003:00002EDC       dword_476EDC
 0003:00002EE0       dword_476EE0
 0003:00002EE4       dword_476EE4
 0003:00002EE8       dword_476EE8
 0003:00002EEC       word_476EEC
 0003:00002EEE       word_476EEE
 0003:00002EF0       dword_476EF0
 0003:00002EF4       dword_476EF4
 0003:00002EF8       dword_476EF8
 0003:00002EFC       dword_476EFC
 0003:00002F00       word_476F00
 0003:00002F02       word_476F02
 0003:00002F04       dword_476F04
 0003:00002F08       dword_476F08
 0003:00002F0C       dword_476F0C
 0003:00002F10       dword_476F10
 0003:00002F14       word_476F14
 0003:00002F16       word_476F16
 0003:00002F18       dword_476F18
 0003:00002F1C       dword_476F1C
 0003:00002F20       dword_476F20
 0003:00002F24       dword_476F24
 0003:00002F28       word_476F28
 0003:00002F2A       word_476F2A
 0003:00002F2C       dword_476F2C
 0003:00002F30       dword_476F30
 0003:00002F34       dword_476F34
 0003:00002F38       dword_476F38
 0003:00002F3C       word_476F3C
 0003:00002F3E       word_476F3E
 0003:00002F40       dword_476F40
 0003:00002F44       dword_476F44
 0003:00002F48       dword_476F48
 0003:00002F4C       dword_476F4C
 0003:00002F50       word_476F50
 0003:00002F52       word_476F52
 0003:00002F54       dword_476F54
 0003:00002F58       dword_476F58
 0003:00002F5C       dword_476F5C
 0003:00002F60       dword_476F60
 0003:00002F64       word_476F64
 0003:00002F66       word_476F66
 0003:00002F68       dword_476F68
 0003:00002F6C       dword_476F6C
 0003:00002F70       dword_476F70
 0003:00002F74       dword_476F74
 0003:00002F78       word_476F78
 0003:00002F7A       word_476F7A
 0003:00002F7C       dword_476F7C
 0003:00002F80       dword_476F80
 0003:00002F84       dword_476F84
 0003:00002F88       dword_476F88
 0003:00002F8C       word_476F8C
 0003:00002F8E       word_476F8E
 0003:00002F90       dword_476F90
 0003:00002F94       dword_476F94
 0003:00002F98       dword_476F98
 0003:00002F9C       dword_476F9C
 0003:00002FA0       word_476FA0
 0003:00002FA2       word_476FA2
 0003:00002FA4       dword_476FA4
 0003:00002FA8       dword_476FA8
 0003:00002FAC       dword_476FAC
 0003:00002FB0       dword_476FB0
 0003:00002FB4       word_476FB4
 0003:00002FB6       word_476FB6
 0003:00002FB8       dword_476FB8
 0003:00002FBC       dword_476FBC
 0003:00002FC0       dword_476FC0
 0003:00002FC4       dword_476FC4
 0003:00002FC8       word_476FC8
 0003:00002FCA       word_476FCA
 0003:00002FCC       dword_476FCC
 0003:00002FD0       dword_476FD0
 0003:00002FD4       dword_476FD4
 0003:00002FD8       dword_476FD8
 0003:00002FDC       word_476FDC
 0003:00002FDE       word_476FDE
 0003:00002FE0       dword_476FE0
 0003:00002FE4       dword_476FE4
 0003:00002FE8       dword_476FE8
 0003:00002FEC       dword_476FEC
 0003:00002FF0       word_476FF0
 0003:00002FF2       word_476FF2
 0003:00002FF4       dword_476FF4
 0003:00002FF8       dword_476FF8
 0003:00002FFC       dword_476FFC
 0003:00003000       dword_477000
 0003:00003004       word_477004
 0003:00003006       word_477006
 0003:00003008       dword_477008
 0003:0000300C       dword_47700C
 0003:00003010       dword_477010
 0003:00003014       dword_477014
 0003:00003018       word_477018
 0003:0000301A       word_47701A
 0003:0000301C       dword_47701C
 0003:00003020       dword_477020
 0003:00003024       dword_477024
 0003:00003028       dword_477028
 0003:0000302C       word_47702C
 0003:0000302E       word_47702E
 0003:00003030       dword_477030
 0003:00003ABC       dword_477ABC
 0003:00003AC0       off_477AC0
 0003:00003AD8       aShell32_dll_0
 0003:00003AE4       aMpr_dll
 0003:00003AEC       aAdvapi32_dll_0
 0003:00003AFC       aUser32_dll_0
 0003:00003B08       aGdi32_dll_0
 0003:00003B14       aKernel32_dll_0
 0003:00003B24       unk_477B24
 0003:00003B44       unk_477B44
 0003:00003B88       unk_477B88
 0003:00003BC4       unk_477BC4
 0003:00003BEC       unk_477BEC
 0003:00003C28       unk_477C28
 0003:00003C44       unk_477C44
 0003:00003C5C       unk_477C5C
 0003:00003C7C       unk_477C7C
 0003:00003CB4       unk_477CB4
 0003:00003CD0       unk_477CD0
 0003:00003CF0       aEdit_0
 0003:00003CF8       aD
 0003:00003CFC       a0
 0003:00003D00       a__
 0003:00003D04       a_
 0003:00003D08       a__0
 0003:00003D0C       asc_477D0C
 0003:00003D14       asc_477D14
 0003:00003D18       a1_0
 0003:00003D1C       a1
 0003:00003D24       aShellOpenComma
 0003:00003D38       a_htm
 0003:00003D40       Operation
 0003:00003D48       aMailto
 0003:00003D50       aHlp
 0003:00003D54       String2
 0003:00003D5C       aM
 0003:00003D6C       aOpendatabase
 0003:00003D7C       aClosedatabase
 0003:00003D8C       aGetconnectstri
 0003:00003DA0       aGettablist
 0003:00003DAC       asc_477DAC
 0003:00003DCC       asc_477DCC
 0003:00003DD0       unk_477DD0
 0003:00003DF4       unk_477DF4
 0003:00003E08       unk_477E08
 0003:00003E38       unk_477E38
 0003:00003E60       aFDCZ
 0003:00003E78       aA_0
 0003:00003E84       asc_477E84
 0003:00003E8C       aA
 0003:00003E98       asc_477E98
 0003:00003EA8       aDllunregisters
 0003:00003EBC       ProcName
 0003:00003ED0       name
 0003:00003EE0       aII
 0003:00003EF4       unk_477EF4
 0003:00003F14       asc_477F14
 0003:00003F1C       unk_477F1C
 0003:00003F34       unk_477F34
 0003:00003F50       unk_477F50
 0003:00003F68       unk_477F68
 0003:00003F80       aRemoveplayer
 0003:00004214       unk_478214
 0003:000045E0       aCwinformunit
 0003:000045F0       aWtwindow
 0003:000045FC       off_4785FC
 0003:00004614       off_478614
 0003:00004648       dword_478648
 0003:00004684       dword_478684
 0003:00004688       a_6g
 0003:00004690       a_13g
 0003:00004698       aD_0
 0003:000046A0       aDD_0
 0003:000046AC       aC
 0003:000046B0       Caption
 0003:00007DE8       word_47BDE8
 0003:000089C4       unk_47C9C4
 0003:000089EC       unk_47C9EC
 0003:00008A10       aZheng
 0003:00008A18       aZeng
 0003:00008A20       aZen
 0003:00008A24       aZhen
 0003:00008A6C       a___
 0003:00008A70       aGCZ
 0003:00008A84       asc_47CA84
 0003:00008A88       a??D
 0003:00008A94       aDD
 0003:00008AA0       asc_47CAA0
 0003:00008AAC       asc_47CAAC
 0003:00008AB4       aRN
 0003:00008ABC       aS
 0003:00008AC4       aV
 0003:00008AD0       aP
 0003:00008ADC       asc_47CADC
 0003:00008AF0       Text
 0003:00008B04       unk_47CB04
 0003:00008B18       asc_47CB18
 0003:00008B30       asc_47CB30
 0003:00008B88       asc_47CB88
 0003:00008BB4       asc_47CBB4
 0003:00008BC4       off_47CBC4
 0003:00008CFC       byte_47CCFC
 0003:00008D24       aJKLMNOPQRSTUVW
 0003:00008D6A       aP_0
 0003:00008E34       unk_47CE34
 0003:00008E38       unk_47CE38
 0003:00008E3C       aCtrlShiftF12
 0003:00008E4C       aCtrlShiftF11
 0003:00008E5C       aCtrlShiftF10
 0003:00008E6C       aCtrlShiftF9
 0003:00008E7C       aCtrlShiftF8
 0003:00008E8C       aCtrlShiftF7
 0003:00008E9C       aCtrlShiftF6
 0003:00008EAC       aCtrlShiftF5
 0003:00008EBC       aCtrlShiftF4
 0003:00008ECC       aCtrlShiftF3
 0003:00008EDC       aCtrlShiftF2
 0003:00008EEC       aCtrlShiftF1
 0003:00008EFC       aShiftF12
 0003:00008F08       aShiftF11
 0003:00008F14       aShiftF10
 0003:00008F20       aShiftF9
 0003:00008F2C       aShiftF8
 0003:00008F38       aShiftF7
 0003:00008F44       aShiftF6
 0003:00008F50       aShiftF5
 0003:00008F5C       aShiftF4
 0003:00008F68       aShiftF3
 0003:00008F74       aShiftF2
 0003:00008F80       aShiftF1
 0003:00008F8C       aCtrlF12
 0003:00008F98       aCtrlF11
 0003:00008FA4       aCtrlF10
 0003:00008FB0       aCtrlF9
 0003:00008FB8       aCtrlF8
 0003:00008FC0       aCtrlF7
 0003:00008FC8       aCtrlF6
 0003:00008FD0       aCtrlF5
 0003:00008FD8       aCtrlF4
 0003:00008FE0       aCtrlF3
 0003:00008FE8       aCtrlF2
 0003:00008FF0       aCtrlF1
 0003:00008FF8       aF12
 0003:00008FFC       aF11
 0003:00009000       aF10
 0003:00009004       aF9
 0003:00009008       aF8
 0003:0000900C       aF7
 0003:00009010       aF6
 0003:00009014       aF5
 0003:00009018       aF4
 0003:0000901C       aF3
 0003:00009020       aF2
 0003:00009024       aF1
 0003:00009028       aCtrlZ
 0003:00009030       aCtrlY
 0003:00009038       aCtrlX
 0003:00009040       aCtrlW
 0003:00009048       aCtrlV
 0003:00009050       aCtrlU
 0003:00009058       aCtrlT
 0003:00009060       aCtrlS
 0003:00009068       aCtrlR
 0003:00009070       aCtrlQ
 0003:00009078       aCtrlP
 0003:00009080       aCtrlO
 0003:00009088       aCtrlN
 0003:00009090       aCtrlM
 0003:00009098       aCtrlL
 0003:000090A0       aCtrlK
 0003:000090A8       aCtrlJ
 0003:000090B0       aCtrlI
 0003:000090B8       aCtrlH
 0003:000090C0       aCtrlG
 0003:000090C8       aCtrlF
 0003:000090D0       aCtrlE
 0003:000090D8       aCtrlD
 0003:000090E0       aCtrlC
 0003:000090E8       aCtrlB
 0003:000090F0       aCtrlA
 0003:000090F8       aGiGi
 0003:00009100       byte_47D100
 0003:00009104       unk_47D104
 0003:000091D0       aSD
 0003:000091D8       aNone
 0003:000091E0       aDevices
 0003:000091E8       AppName
 0003:000091F0       KeyName
 0003:000091F8       Default
 0003:000091FC       off_47D1FC
 0003:00009220       aTrue
 0003:00009228       a1_1
 0003:0000922C       szFormat
 0003:00009238       aD_1
 0003:00009248       unk_47D248
 0003:0000924C       off_47D24C
 0003:000094D0       aZI
 0003:00009CA8       unk_47DCA8
 0003:00009CB4       aCcolourpicker
 0003:00009CC4       asc_47DCC4
 0003:00009CD0       aData
 0003:00009CD8       aFmt
 0003:00009CE0       aWave
 0003:00009CE8       aRiff
 0003:00009CF0       unk_47DCF0
 0003:00009D08       unk_47DD08
 0003:00009D48       asc_47DD48
 0003:00009D4C       a0X
 0003:00009D50       a00
 0003:00009D54       asc_47DD54
 0003:00009D68       unk_47DD68
 0003:00009D80       aOut_prn
 0003:00009D88       asc_47DD88
 0003:00009DB8       unk_47DDB8
 0003:00009DE0       unk_47DDE0
 0003:00009DEC       aS_0
 0003:00009DF8       unk_47DDF8
 0003:00009E04       asc_47DE04
 0003:00009E10       aD_D
 0003:00009EC0       aDD_1
 0003:00009EC8       asc_47DEC8
 0003:00009ED4       asc_47DED4
 0003:00009EF8       aI
 0003:00009F0C       aII_0
 0003:00009F20       asc_47DF20
 0003:00009F28       asc_47DF28
 0003:00009F30       unk_47DF30
 0003:00009F4C       aIA
 0003:00009F58       off_47DF58
 0003:00009F5C       wParam
 0003:0000A148       aR
 0003:0000A150       asc_47E150
 0003:0000A158       aBogusMessageCo
 0003:0000A170       aIFI
 0003:0000A18C       aLdC
 0003:0000A194       aJpegmem
 0003:0000A19C       off_47E19C
 0003:0000A1A0       off_47E1A0
 0003:0000A1A4       off_47E1A4
 0003:0000A1A8       unk_47E1A8
 0003:0000A1B4       dword_47E1B4
 0003:0000A1B8       dword_47E1B8
 0003:0000A458       stru_47E458
 0003:0000A740       off_47E740
 0003:0000A794       dword_47E794
 0003:0000A7A0       a_?av_afx_win_s
 0003:0000A7C0       a_?avcwinthread
 0003:0000A7E0       a_?avcwinapp@@
 0003:0000A7F8       a_?avcprogressc
 0003:0000A818       a_?avcimagelist
 0003:0000A838       a_?avctempimage
 0003:0000A858       a_pavcarchiveex
 0003:0000A878       a_?avcarchiveex
 0003:0000A898       a_?avcsharedfil
 0003:0000A908       off_47E908
 0003:0000A940       off_47E940
 0003:0000AA38       off_47EA38
 0003:0000AA3C       dword_47EA3C
 0003:0000AA48       off_47EA48
 0003:0000AA60       dbl_47EA60
 0003:0000AA68       unk_47EA68
 0003:0000AA6C       dword_47EA6C
 0003:0000AA70       unk_47EA70
 0003:0000AAC0       dword_47EAC0
 0003:0000AAC4       unk_47EAC4
 0003:0000AB00       off_47EB00
 0003:0000AB10       unk_47EB10
 0003:0000AB20       unk_47EB20
 0003:0000AB40       unk_47EB40
 0003:0000AB70       unk_47EB70
 0003:0000AD60       unk_47ED60
 0003:0000AD80       off_47ED80
 0003:0000AD84       dword_47ED84
 0003:0000AD90       off_47ED90
 0003:0000AE40       unk_47EE40
 0003:0000AE44       dword_47EE44
 0003:0000AFA8       byte_47EFA8
 0003:0000AFB0       unk_47EFB0
 0003:0000AFB4       aVyv
 0003:0000AFC0       aJ
 0003:0000AFC8       aBe
 0003:0000B0A0       unk_47F0A0
 0003:0000B118       dword_47F118
 0003:0000B11C       dword_47F11C
 0003:0000B124       dword_47F124
 0003:0000B128       unk_47F128
 0003:0000B14C       dwTlsIndex
 0003:0000B158       dword_47F158
 0003:0000B15C       off_47F15C
 0003:0000B1E8       off_47F1E8
 0003:0000B1EC       off_47F1EC
 0003:0000B1F0       off_47F1F0
 0003:0000B1F4       off_47F1F4
 0003:0000B1F8       off_47F1F8
 0003:0000B1FC       off_47F1FC
 0003:0000B200       tbyte_47F200
 0003:0000B20A       tbyte_47F20A
 0003:0000B21E       tbyte_47F21E
 0003:0000B232       dbl_47F232
 0003:0000B260       tbyte_47F260
 0003:0000B274       dbl_47F274
 0003:0000B27C       unk_47F27C
 0003:0000B290       unk_47F290
 0003:0000B294       off_47F294
 0003:0000B368       dbl_47F368
 0003:0000B370       dbl_47F370
 0003:0000B378       dbl_47F378
 0003:0000B388       dbl_47F388
 0003:0000B390       tbyte_47F390
 0003:0000B39C       tbyte_47F39C
 0003:0000B3B0       byte_47F3B0
 0003:0000B3C0       flt_47F3C0
 0003:0000B3C4       flt_47F3C4
 0003:0000B3C8       flt_47F3C8
 0003:0000B3CC       byte_47F3CC
 0003:0000B3E4       dbl_47F3E4
 0003:0000B3EC       dbl_47F3EC
 0003:0000B3FC       dbl_47F3FC
 0003:0000B404       tbyte_47F404
 0003:0000B510       dword_47F510
 0003:0000B514       off_47F514
 0003:0000B534       off_47F534
 0003:0000B544       off_47F544
 0003:0000B554       lpCriticalSection
 0003:0000B5E0       off_47F5E0
 0003:0000B5E4       off_47F5E4
 0003:0000B5EC       __ctype
 0003:0000B7F0       cbMultiByte
 0003:0000B7F4       byte_47F7F4
 0003:0000B800       off_47F800
 0003:0000B804       off_47F804
 0003:0000B810       dword_47F810
 0003:0000B818       unk_47F818
 0003:0000C008       unk_480008
 0003:0000D820       off_481820
 0003:0000D824       dword_481824
 0003:0000D828       off_481828
 0003:0000D82C       off_48182C
 0003:0000D940       asc_481940
 0003:0000D948       asc_481948
 0003:0000D950       dword_481950
 0003:0000D954       dword_481954
 0003:0000D958       dword_481958
 0003:0000D95C       unk_48195C
 0003:0000D99C       unk_48199C
 0003:0000D9DC       lpMultiByteStr
 0003:0000D9E0       off_4819E0
 0003:0000D9E8       dword_4819E8
 0003:0000D9EC       dword_4819EC
 0003:0000D9F0       dword_4819F0
 0003:0000D9F8       dword_4819F8
 0003:0000D9FC       dword_4819FC
 0003:0000DA00       dword_481A00
 0003:0000DA04       dword_481A04
 0003:0000DA34       dword_481A34
 0003:0000DA38       dword_481A38
 0003:0000DA70       unk_481A70
 0003:0000DA88       unk_481A88
 0003:0000DAA0       dword_481AA0
 0003:0000DAF0       unk_481AF0
 0003:0000DC50       unk_481C50
 0003:0000E0F4       dword_4820F4
 0003:0000E0F8       dword_4820F8
 0003:0000E13C       unk_48213C
 0003:0000E144       lpMainWindowName
 0003:0000E148       dword_482148
 0003:0000E150       dword_482150
 0003:0000E158       dword_482158
 0003:0000E15C       byte_48215C
 0003:0000E178       dword_482178
 0003:0000E17C       byte_48217C
 0003:0000E180       unk_482180
 0003:0001A1E4       hHeap
 0003:0001A1E8       dword_48E1E8
 0003:0001A1EC       dword_48E1EC
 0003:0001A1F0       dword_48E1F0
 0003:0001A1F4       dword_48E1F4
 0003:0001A1F8       lpLibToSysNotifyFunction
 0003:0001A218       dword_48E218
 0003:0001A220       byte_48E220
 0003:0001A2E4       dword_48E2E4
 0003:0001A408       dword_48E408
 0003:0001A4B4       hEvent
 0003:0001A5B0       unk_48E5B0
 0003:0001A610       dword_48E610
 0003:0001A634       dword_48E634
 0003:0001A638       dword_48E638
 0003:0001A63C       dword_48E63C
 0003:0001A680       dbl_48E680
 0003:0001A6D8       byte_48E6D8
 0003:0001A7D8       dword_48E7D8
 0003:0001A820       lpNewItem
 0003:0001AC28       dword_48EC28
 0003:0001AC48       dword_48EC48
 0003:0001AC4C       dword_48EC4C
 0003:0001AC50       unk_48EC50
 0003:0001AC88       dword_48EC88
 0003:0001AC90       byte_48EC90
 0003:0001AC98       unk_48EC98
 0003:0001AC9C       dword_48EC9C
 0003:0001ACA0       dword_48ECA0
 0003:0001ACB0       CriticalSection
 0003:0001ACC8       byte_48ECC8
 0003:0001ACCC       dword_48ECCC
 0003:0001ACD0       dword_48ECD0
 0003:0001ACD4       dword_48ECD4
 0003:0001AD08       dword_48ED08
 0003:0001AD10       unk_48ED10
 0003:0001AD38       unk_48ED38
 0003:0001AD60       unk_48ED60
 0003:0001AD88       unk_48ED88
 0003:0001ADB0       byte_48EDB0
 0003:0001ADB8       unk_48EDB8
 0003:0001AE50       unk_48EE50
 0003:0001AEE8       byte_48EEE8
 0003:0001AEF0       unk_48EEF0
 0003:0001AF88       unk_48EF88
 0003:0001B020       unk_48F020
 0003:0001B048       unk_48F048
 0003:0001B070       byte_48F070
 0003:0001B074       dword_48F074
 0003:0001B078       dword_48F078
 0003:0001C008       unk_490008
 0003:0001C878       unk_490878
 0003:0001C8A0       unk_4908A0
 0003:0001C8E0       unk_4908E0
 0003:0001C920       unk_490920
 0003:0001C95C       byte_49095C
 0003:0001C960       unk_490960
 0003:0001C99C       dword_49099C
 0003:0001C9A0       dword_4909A0
 0003:0001C9A4       dword_4909A4
 0003:0001C9A8       dword_4909A8
 0003:0001C9AC       dword_4909AC
 0003:0001C9B0       dword_4909B0
 0003:0001C9B4       dword_4909B4
 0003:0001C9B8       dword_4909B8
 0003:0001C9BC       unk_4909BC
 0003:0001C9C0       unk_4909C0
 0003:0001C9C4       byte_4909C4
 0003:0001C9C8       unk_4909C8
 0003:0001C9CC       byte_4909CC
 0003:0001C9D4       dword_4909D4
 0003:0001C9D8       dword_4909D8
 0003:0001C9DC       unk_4909DC
 0003:0001CA10       unk_490A10
 0003:0001CA14       dword_490A14
 0003:0001CA18       dword_490A18
 0003:0001CA20       byte_490A20
 0003:0001CA28       unk_490A28
 0003:0001CA50       byte_490A50
 0003:0001CA58       unk_490A58
 0003:0001CA88       unk_490A88
 0003:0001CA8C       unk_490A8C
 0003:0001CA90       dword_490A90
 0003:0001CA98       dword_490A98
 0003:0001CA9C       dword_490A9C
 0003:0001CAD4       hCursor
 0003:0001CAD8       dword_490AD8
 0003:0001CAE8       hBitmapChecked
 0003:0001CAEC       dword_490AEC
 0003:0001CAF4       dword_490AF4
 0003:0001CB00       dword_490B00
 0003:0001CB04       dword_490B04
 0003:0001CB08       dword_490B08
 0003:0001CB50       stru_490B50
 0003:0001CB68       stru_490B68
 0003:0001CD00       dword_490D00
 0003:0001CD04       dword_490D04
 0003:0001CD08       dword_490D08
 0003:0001CD0C       dword_490D0C
 0003:0001CD10       dword_490D10
 0003:0001CD14       dword_490D14
 0003:0001CD18       dword_490D18
 0003:0001CD1C       dword_490D1C
 0003:0001CD30       dword_490D30
 0003:0001CD38       dword_490D38
 0003:0001CD3C       dword_490D3C
 0003:0001CD40       dword_490D40
 0003:0001CD44       dword_490D44
 0003:0001CD48       dword_490D48
 0003:0001CD50       word_490D50
 0003:0001CD52       word_490D52
 0003:0001CD56       word_490D56
 0003:0001CD58       word_490D58
 0003:0001CD5A       word_490D5A
 0003:0001CD64       dword_490D64
 0003:0001CD68       dword_490D68
 0003:0001CD6C       dword_490D6C
 0003:0001CD70       dword_490D70
 0003:0001CD74       dword_490D74
 0003:0001CD78       dword_490D78
 0003:0001CD80       dword_490D80
 0003:0001CD84       dword_490D84
 0003:0001CD88       dword_490D88
 0003:0001CD90       dword_490D90
 0003:0001CD98       byte_490D98
 0003:0001CD9C       dword_490D9C
 0003:0001CDA0       dword_490DA0
 0003:0001CDA8       unk_490DA8
 0003:0001CDCC       dword_490DCC
 0003:0001CDD0       Filename
 0003:0001CED4       dword_490ED4
 0003:0001CED8       dword_490ED8
 0003:0001CEE0       unk_490EE0
 0003:0001CEF8       unk_490EF8
 0003:0001CF10       unk_490F10
 0003:0001CF28       unk_490F28
 0003:0001CF40       dword_490F40
 0003:0001CF44       dword_490F44
 0003:0001CF48       dword_490F48
 0003:0001CF4C       dword_490F4C
 0003:0001CF64       unk_490F64
 0003:0001CF6C       dword_490F6C
 0003:0001CF7C       dword_490F7C
 0003:0001CF84       dword_490F84
 0003:0001CF88       lpfn
 0003:0001CF90       dword_490F90
 0003:0001CF98       TimeZoneInformation
 0003:0001D044       dword_491044
 0003:0001D048       dword_491048
 0003:0001D04C       dword_49104C
 0003:0001D050       dword_491050
 0003:0001D054       dword_491054
 0003:0001D058       dword_491058
 0003:0001D0C0       dword_4910C0
 0003:0001D0C4       dword_4910C4
 0003:0001D0C8       dword_4910C8
 0003:0001D0CC       dword_4910CC
 0003:0001D0F4       byte_4910F4
 0003:0001D0F8       dword_4910F8
 0003:0001D0FC       Addend
 0003:0001D100       dword_491100
 0003:0001D104       dword_491104
 0003:0001D108       dword_491108
 0003:0001D10C       dword_49110C
 0003:0001D110       dword_491110
 0003:0001D114       lpMem
 0003:0001D118       dword_491118
 0003:0001D11C       dword_49111C
 0003:0001D120       dword_491120
 0003:0001D140       dword_491140
 0003:0001D144       unk_491144
 0003:0001D240       uNumber
 0003:0001D244       CodePage
 0003:0001D250       unk_491250
 0003:0001D25C       dword_49125C
 0003:0001D260       byte_491260
 0003:0001D360       unk_491360
 0003:0001D361       byte_491361
 0003:0001D464       Locale
 0003:0001D468       dword_491468
 0003:0001D46C       dword_49146C
 0003:0001D470       dword_491470
 0003:0001D474       dword_491474
 0003:0001D478       dword_491478
 0003:0001D480       unk_491480
 0003:0001E480       dword_492480
 0003:0001E484       dword_492484

Program entry point at 0001:000445D1
