 Start         Length     Name                   Class
  Address         Publics by Value
 401000       sub_401000
 401002       nullsub_1
 401004       yCFnOnTimerEvent
 40103b       nullsub_2
 40103c       nullsub_3
 40103d       sub_40103D
 401076       j__krnl_MMessageLoop
 40107c       j__krnl_MLoadBeginWin
 401082       sub_401082
 401088       j__krnl_MCallKrnlLibCmd
 401090       _krnln_fnLen
 4010b0       CFreqMem::`scalar_deleting_destructor'(uint)
 4010ce       loc_4010CE
 4010e0       sub_4010E0
 4010f8       loc_4010F8
 401100       sub_401100
 401110       AfxTryCleanup(void)
 401120       CObject::operator_delete(void_*)
 401130       CWinUnitIDManger::GetCursorDataPtr(uchar_*)
 4012b0       sub_4012B0
 4012c0       loc_4012C0
 4012d0       CFile::SetFilePath(char_const_*)
 401310       CFreqMem::CFreqMem(void)
 401330       CFreqMem::Alloc(int)
 401400       CFreqMem::Realloc(int)
 401510       CFreqMem::Free(void)
 401530       CFreqMem::_Free(uchar_*)
 401570       loc_401570
 401584       loc_401584
 40158e       loc_40158E
 4015a0       unknown_libname_192
 4015c5       loc_4015C5
 4015e0       unknown_libname_193
 401607       loc_401607
 401620       CFreqMem::AddByte(uchar)
 401640       loc_401640
 401650       CFreqMem::XchgMem(CFreqMem_&)
 401690       CFreqMem::Serialize(CArchive_&)
 401740       CFreqMem::ReadFile(CString_&,int)
 401890       CFreqMem::WriteFile(CString_&,int,int)
 4019a0       CFreqMem::Insert(int,uchar_*,int)
 401a40       CFreqMem::Append(uchar_*,int)
 401aa0       CFreqMem::Replace(int,int,uchar_*,int)
 401bc0       CFreqMem::Remove(int,int)
 401c70       FindInt(int_*,int,int)
 401c90       IsEmptyStr(char_*)
 401ca0       loc_401CA0
 401cb0       MoveMem(uchar_*,uchar_*,ulong)
 401d03       locret_401D03
 401d10       ZeroMem(uchar_*,ulong)
 401d60       tcsallbytes(char_*)
 401d80       tcsbytes(char_*)
 401da0       FindByte(uchar_*,int,uchar)
 401df0       FindDWord(ulong_*,int,ulong)
 401e40       CPropertyInfo::SaveData(int_*)
 401f60       CPropertyInfo::LoadData(uchar_*,int)
 40202d       loc_40202D
 402050       ProcessSysBackColor(ulong)
 402063       locret_402063
 402070       MyCreateFont(CFont_&,tagLOGFONTA_*)
 40208c       loc_40208C
 4020d0       SerializeCString(CString_&,CArchive_&)
 402100       loc_402100
 402121       loc_402121
 402142       loc_402142
 40216b       loc_40216B
 402170       SetStr(CString_&,char_*)
 402183       loc_402183
 402190       FindDataSource(ulong,CProvider_*)
 4021c7       loc_4021C7
 40221c       loc_40221C
 40221f       loc_40221F
 402226       loc_402226
 402230       FindDataSource(ulong,char_*,HWND___*_*)
 402243       loc_402243
 402281       loc_402281
 4022b4       loc_4022B4
 4022f2       loc_4022F2
 4022fa       loc_4022FA
 402310       FindProvider(ulong,char_*)
 402351       loc_402351
 402384       loc_402384
 4023c0       loc_4023C0
 4023d0       CArchive::operator>>(long_&)
 4023ed       loc_4023ED
 402410       CPropertyInfo::Serialize(CArchive_&)
 402423       loc_402423
 402430       nullsub_20
 402440       CWnd::BeginModalState(void)
 402450       CWnd::EndModalState(void)
 402460       CSpin::OnDeltapos(tagNMHDR_*,long_*)
 402516       loc_402516
 402525       loc_402525
 402527       loc_402527
 4025ae       loc_4025AE
 402607       loc_402607
 402626       loc_402626
 402645       loc_402645
 402670       CSpin::CtlColor(CDC_*,uint)
 402689       loc_402689
 402690       sub_402690
 4026a8       loc_4026A8
 4026b0       sub_4026B0
 4026c8       loc_4026C8
 4026d0       unknown_libname_194
 402710       sub_402710
 402728       loc_402728
 402730       CUEdit::OnInit(uint,long)
 40274a       loc_40274A
 40276e       loc_40276E
 402772       loc_402772
 402777       loc_402777
 40277c       loc_40277C
 402783       loc_402783
 402790       CUEdit::OnEraseBkgnd(CDC_*)
 4027bb       loc_4027BB
 4027d8       loc_4027D8
 4027f0       CUEdit::OnMyNcPaint(uint,long)
 40289f       loc_40289F
 4028e5       loc_4028E5
 402900       CUEdit::OnNcHitTest(CPoint)
 40294d       loc_40294D
 402960       CUEdit::OnNcCalcSize(int,tagNCCALCSIZE_PARAMS_*)
 402a1e       loc_402A1E
 402a40       CUEdit::OnDestroy(void)
 402a60       CUEdit::OnGetDSWnd(uint,long)
 402a90       CUEdit::SetDataSourceUnit(void)
 402ad0       CUEdit::RefrushState(void)
 402b00       loc_402B00
 402b20       CUEdit::RefrushFromDataSource(void)
 402b84       loc_402B84
 402bf0       CUEdit::OnChange(void)
 402c33       loc_402C33
 402c40       CUEdit::OnWindowPosChanged(tagWINDOWPOS_*)
 402c7e       loc_402C7E
 402c90       CUEdit::CtlColor(CDC_*,uint)
 402cc8       loc_402CC8
 402cd0       CUEdit::OnChar(uint,uint,uint)
 402cf0       loc_402CF0
 402cff       loc_402CFF
 402d09       loc_402D09
 402d16       loc_402D16
 402d25       loc_402D25
 402d2a       locret_402D2A
 402d30       CUEdit::GetConvertContext(CString_&)
 402d57       loc_402D57
 402d7f       loc_402D7F
 402d9b       loc_402D9B
 402dab       loc_402DAB
 402dd6       loc_402DD6
 402def       loc_402DEF
 402dfa       loc_402DFA
 402e0d       loc_402E0D
 402e25       loc_402E25
 402e3e       loc_402E3E
 402e4d       loc_402E4D
 402e65       loc_402E65
 402e74       loc_402E74
 402e83       loc_402E83
 402e96       loc_402E96
 402eb4       loc_402EB4
 402ed4       loc_402ED4
 402eef       loc_402EEF
 402f2d       loc_402F2D
 402f32       loc_402F32
 402f52       loc_402F52
 402f7f       loc_402F7F
 402f8c       off_402F8C
 402fb0       CUEdit::OnKillfocus(void)
 403033       loc_403033
 403090       CUEdit::OnSetfocus(void)
 4030e0       CUEdit::OnShowWindow(int,uint)
 40310e       locret_40310E
 403120       CUEdit::OnSize(uint,int,int)
 403140       CPaneFrameWnd::OnMoving(uint,tagRECT_*)
 403160       CUEdit::OnEnable(int)
 403184       locret_403184
 403190       CUEdit::AdjustSpinPos(void)
 4031e0       loc_4031E0
 4031fb       loc_4031FB
 403240       loc_403240
 403250       CUTab::OnInit2(uint,long)
 403260       CUTab::OnPaint(void)
 4032eb       loc_4032EB
 403312       loc_403312
 403333       loc_403333
 403350       CUTab::GetCurTab(void)
 403364       loc_403364
 403380       CUTab::OnClick(tagNMHDR_*,long_*)
 4033d0       CUTab::OnSelchanging(tagNMHDR_*,long_*)
 40343b       loc_40343B
 403450       CUTab::ChkCurChildTab(void)
 403488       loc_403488
 4034e7       loc_4034E7
 4034fb       loc_4034FB
 403500       CUTab::OnSelchange(tagNMHDR_*,long_*)
 403573       loc_403573
 403590       unknown_libname_195
 4035a7       loc_4035A7
 4035c0       CULabel::OnInit(uint,long)
 4035da       loc_4035DA
 4035fe       loc_4035FE
 403602       loc_403602
 403607       loc_403607
 40360c       loc_40360C
 403613       loc_403613
 403620       CULabel::OnDllMsg(uint,long)
 40368e       loc_40368E
 4036a0       CULabel::OnGetDSWnd(uint,long)
 4036d0       CULabel::SetDataSourceUnit(void)
 403700       CULabel::RefrushFromDataSource(void)
 403764       loc_403764
 4037c0       DrawUnitPic(int,CDC_*,PIC_INFO_*,CRect_const_&,CRect_const_&,CRgn_*)
 40387f       loc_40387F
 40389c       loc_40389C
 4038a6       loc_4038A6
 4038d5       loc_4038D5
 40390b       loc_40390B
 40399a       loc_40399A
 4039a8       loc_4039A8
 4039b5       loc_4039B5
 403a28       loc_403A28
 403a3c       loc_403A3C
 403a53       loc_403A53
 403a67       loc_403A67
 403aeb       loc_403AEB
 403af0       loc_403AF0
 403afe       loc_403AFE
 403b10       sub_403B10
 403b28       loc_403B28
 403b30       unknown_libname_196
 403b70       CULabel::OnPaint(void)
 403c04       loc_403C04
 403c13       loc_403C13
 403c22       loc_403C22
 403c93       loc_403C93
 403cd4       loc_403CD4
 403d52       loc_403D52
 403d55       loc_403D55
 403d6d       loc_403D6D
 403d9c       loc_403D9C
 403dc0       loc_403DC0
 403dd2       loc_403DD2
 403de4       loc_403DE4
 403e3c       loc_403E3C
 403e7d       loc_403E7D
 403eae       loc_403EAE
 403eb1       loc_403EB1
 403ee1       loc_403EE1
 403f2a       loc_403F2A
 403f63       loc_403F63
 403f66       loc_403F66
 403f88       loc_403F88
 403f93       loc_403F93
 403faa       loc_403FAA
 403fb4       loc_403FB4
 403fc2       loc_403FC2
 403fd2       loc_403FD2
 403fdc       loc_403FDC
 403fdf       loc_403FDF
 40402e       loc_40402E
 40407e       loc_40407E
 4040c9       loc_4040C9
 4040d7       loc_4040D7
 40413a       loc_40413A
 404143       loc_404143
 404170       CPicWnd::~CPicWnd(void)
 4041c3       loc_4041C3
 4041d6       loc_4041D6
 4041df       loc_4041DF
 404220       CPicWnd::`scalar_deleting_destructor'(uint)
 404238       loc_404238
 404240       CUPicBox::OnInit(uint,long)
 40425a       loc_40425A
 40427e       loc_40427E
 404282       loc_404282
 404287       loc_404287
 40428c       loc_40428C
 404293       loc_404293
 4042a0       CUPicBox::OnDestroy(void)
 4042c0       CUPicBox::OnGetDSWnd(uint,long)
 4042f0       CUPicBox::SetDataSourceUnit(void)
 404320       CUPicBox::RefrushFromDataSource(void)
 4043a6       loc_4043A6
 4043e6       loc_4043E6
 4043f9       loc_4043F9
 404408       loc_404408
 404419       loc_404419
 40441c       loc_40441C
 404450       CUShapeBox::OnPaint(void)
 4044cb       loc_4044CB
 404507       loc_404507
 404513       loc_404513
 40451f       loc_40451F
 40452b       loc_40452B
 404538       loc_404538
 404547       loc_404547
 40454c       loc_40454C
 4045a0       loc_4045A0
 4045c1       loc_4045C1
 4045db       loc_4045DB
 4045fc       loc_4045FC
 404600       loc_404600
 404604       loc_404604
 40467e       loc_40467E
 40469a       loc_40469A
 4046b2       loc_4046B2
 4046dd       loc_4046DD
 4046f4       loc_4046F4
 404730       loc_404730
 404736       loc_404736
 404741       loc_404741
 404754       loc_404754
 404783       loc_404783
 4047b2       loc_4047B2
 404802       loc_404802
 404836       loc_404836
 404868       loc_404868
 40487a       loc_40487A
 40491c       off_40491C
 404940       sub_404940
 404958       loc_404958
 404960       unknown_libname_197
 4049a0       sub_4049A0
 4049b8       loc_4049B8
 4049c0       CUGroupBox::CtlColor(CDC_*,uint)
 4049f5       loc_4049F5
 404a00       CUGroupBox::OnEraseBkgnd(CDC_*)
 404a2b       loc_404A2B
 404a3f       loc_404A3F
 404a50       CUButton::OnClicked(void)
 404a90       CUButton::OnKillFocus(CWnd_*)
 404ae0       CUButton::OnSetFocus(CWnd_*)
 404b30       unknown_libname_198
 404b71       loc_404B71
 404b79       loc_404B79
 404b7d       loc_404B7D
 404b82       loc_404B82
 404b87       loc_404B87
 404b8c       loc_404B8C
 404b91       loc_404B91
 404b96       loc_404B96
 404b9a       loc_404B9A
 404ba4       loc_404BA4
 404ba6       loc_404BA6
 404bae       loc_404BAE
 404bb4       loc_404BB4
 404bf9       loc_404BF9
 404c04       off_404C04
 404c30       unknown_libname_199
 404c71       loc_404C71
 404c79       loc_404C79
 404c7d       loc_404C7D
 404c82       loc_404C82
 404c87       loc_404C87
 404c8c       loc_404C8C
 404c91       loc_404C91
 404c96       loc_404C96
 404c9a       loc_404C9A
 404ca4       loc_404CA4
 404ca6       loc_404CA6
 404cae       loc_404CAE
 404cb4       loc_404CB4
 404cf9       loc_404CF9
 404d04       off_404D04
 404d30       unknown_libname_200
 404d80       unknown_libname_201
 404dd0       unknown_libname_202
 404e25       loc_404E25
 404e30       CUSliderBar::OnKillFocus(CWnd_*)
 404e80       CUSliderBar::OnSetFocus(CWnd_*)
 404ed0       CUAnimate::OnPaint(void)
 404ee5       loc_404EE5
 404ef0       CUDateTimePicker::OnInit(uint,long)
 404f0a       loc_404F0A
 404f2e       loc_404F2E
 404f32       loc_404F32
 404f37       loc_404F37
 404f3c       loc_404F3C
 404f43       loc_404F43
 404f50       CUDateTimePicker::OnDestroy(void)
 404f70       CUDateTimePicker::OnGetDSWnd(uint,long)
 404fa0       CUDateTimePicker::SetDataSourceUnit(void)
 404fe0       CUDateTimePicker::RefrushState(void)
 405005       loc_405005
 405020       CUDateTimePicker::RefrushFromDataSource(void)
 405086       loc_405086
 4050b9       loc_4050B9
 4050c3       loc_4050C3
 405100       CUDateTimePicker::OnMyDateTimeChange(uint,long)
 405170       loc_405170
 405190       CUDateTimePicker::OnDatetimechange(tagNMHDR_*,long_*)
 4051b0       CUDateTimePicker::OnKillfocus(tagNMHDR_*,long_*)
 405210       CUDateTimePicker::OnSetfocus(tagNMHDR_*,long_*)
 405270       CUMonthCalCtrl::OnSelchange(tagNMHDR_*,long_*)
 4052c0       CArchive::operator>>(uchar_&)
 4052db       loc_4052DB
 405300       sub_405300
 405318       loc_405318
 405320       CUDrvBox::CtlColor(CDC_*,uint)
 405355       loc_405355
 405360       CUDrvBox::OnKillfocus(void)
 4053a0       CUDrvBox::OnSetfocus(void)
 4053e0       CUDrvBox::OnSelendok(void)
 40540c       loc_40540C
 40541c       loc_40541C
 405460       CUDirTree::OnKillfocus(tagNMHDR_*,long_*)
 4054c0       CUDirTree::OnSetfocus(tagNMHDR_*,long_*)
 405520       CUDirTree::CtlColor(CDC_*,uint)
 40554a       loc_40554A
 405550       CUDirTree::AddDirsToTree(_TREEITEM_*)
 4055d2       loc_4055D2
 40560e       loc_40560E
 405622       loc_405622
 405692       loc_405692
 4056d9       loc_4056D9
 405700       CUDirTree::BuildPathFromTree(_TREEITEM_*)
 405764       loc_405764
 4057f8       loc_4057F8
 405870       CUDirTree::DeleteChildren(_TREEITEM_*)
 4058bb       loc_4058BB
 4058db       loc_4058DB
 4058e9       loc_4058E9
 4058f0       CUDirTree::DeletePeers(_TREEITEM_*)
 405911       loc_405911
 405931       loc_405931
 405943       loc_405943
 405963       loc_405963
 405970       CUDirTree::OnDblclk(tagNMHDR_*,long_*)
 4059dc       loc_4059DC
 4059f3       loc_4059F3
 4059fd       loc_4059FD
 405a1b       loc_405A1B
 405a39       loc_405A39
 405a50       CUDirTree::OnKeyDown(uint,uint,uint)
 405a65       loc_405A65
 405a70       CUFileBox::OnKillfocus(void)
 405ac0       CUFileBox::OnSetfocus(void)
 405b10       CUFileBox::OnDblclk(void)
 405b60       CUFileBox::CtlColor(CDC_*,uint)
 405b9b       loc_405B9B
 405bb0       CUFileBox::OnSelchange(void)
 405c11       loc_405C11
 405c45       loc_405C45
 405c51       loc_405C51
 405c5a       loc_405C5A
 405c6f       loc_405C6F
 405c8a       loc_405C8A
 405cbe       loc_405CBE
 405ce0       CUColorPicker::OnSelEndOK(uint,long)
 405d0e       loc_405D0E
 405d50       CUColorPicker::OnKillFocus(CWnd_*)
 405da0       CUColorPicker::OnSetFocus(CWnd_*)
 405df0       CUHyperLinker::OnLButtonDown(uint,CPoint)
 405e13       loc_405E13
 405e20       CUHyperLinker::OnMouseMove(uint,CPoint)
 405e7c       loc_405E7C
 405e9d       loc_405E9D
 405ec1       loc_405EC1
 405ed0       CUHyperLinker::GetRegKey(HKEY___*,char_const_*,char_*)
 405f32       loc_405F32
 405f40       CUHyperLinker::GotoURL(int)
 405fa6       loc_405FA6
 405fbe       loc_405FBE
 406078       loc_406078
 4060ac       loc_4060AC
 4060af       loc_4060AF
 4060cd       loc_4060CD
 4060ef       loc_4060EF
 406110       CUHyperLinker::OnPaint(void)
 40618b       loc_40618B
 406223       loc_406223
 40622d       loc_40622D
 406249       loc_406249
 406256       loc_406256
 406259       loc_406259
 4062a0       loc_4062A0
 4062a3       loc_4062A3
 4062c5       loc_4062C5
 4062d0       loc_4062D0
 406380       CUSpin::OnDeltapos(tagNMHDR_*,long_*)
 4063f0       CDC::ReleaseOutputDC(void)
 406400       unknown_libname_203
 406434       loc_406434
 40646b       loc_40646B
 406496       loc_406496
 4064a6       loc_4064A6
 4064be       loc_4064BE
 4064e5       loc_4064E5
 4064ef       loc_4064EF
 406516       loc_406516
 406522       loc_406522
 406550       Create_Timer(uchar_*,int,ulong,HWND___*,uint,HMENU___*,int,int,int,int,ulong,ulong,HWND___*,int)
 40658c       loc_40658C
 40658e       loc_40658E
 4065ae       loc_4065AE
 4065e1       loc_4065E1
 406604       loc_406604
 406680       NotifyPropertyChanged_Timer(ulong,int,UNIT_PROPERTY_VALUE_*,char_*_*)
 406697       loc_406697
 4066d5       loc_4066D5
 4066fb       loc_4066FB
 406702       loc_406702
 406710       GetPropertyData_Timer(ulong,int,UNIT_PROPERTY_VALUE_*)
 40671b       loc_40671B
 406728       loc_406728
 406740       krnln_GetInterface_Timer(x)
 406751       loc_406751
 40675e       loc_40675E
 40676b       loc_40676B
 406780       CUTimer::CUTimer(void)
 4067b0       sub_4067B0
 4067c8       loc_4067C8
 4067d0       sub_4067D0
 4067e0       sub_4067E0
 4067f0       CUTimer::PostNcDestroy(void)
 406817       loc_406817
 406820       CUTimer::OnTimer(uint)
 406870       CUTimer::OnCreate(tagCREATESTRUCTA_*)
 406883       loc_406883
 4068aa       loc_4068AA
 4068b0       CUTimer::OnPaint(void)
 4068c5       loc_4068C5
 4068d0       CUTimer::OnDestroy(void)
 4068f4       loc_4068F4
 406900       CUCommonDlg::OnPaint(void)
 406918       loc_406918
 406920       CFileDialog::~CFileDialog(void)
 406970       CUCheckBox::OnInit(uint,long)
 40698a       loc_40698A
 4069ae       loc_4069AE
 4069b2       loc_4069B2
 4069b7       loc_4069B7
 4069bc       loc_4069BC
 4069c3       loc_4069C3
 4069d0       CUCheckBox::OnDestroy(void)
 4069f0       CUCheckBox::OnGetDSWnd(uint,long)
 406a20       CUCheckBox::SetDataSourceUnit(void)
 406a60       CUCheckBox::RefrushState(void)
 406a85       loc_406A85
 406aa0       CUCheckBox::RefrushFromDataSource(void)
 406b04       loc_406B04
 406b50       unknown_libname_204
 406ba0       CUCheckBox::CtlColor(CDC_*,uint)
 406bd8       loc_406BD8
 406be0       CURadio::OnClicked(void)
 406c23       loc_406C23
 406c30       CURadio::OnKillFocus(CWnd_*)
 406c90       CURadio::OnSetFocus(CWnd_*)
 406cf0       CURadio::CtlColor(CDC_*,uint)
 406d28       loc_406D28
 406d30       CUComboBox::OnInit(uint,long)
 406d4a       loc_406D4A
 406d6e       loc_406D6E
 406d72       loc_406D72
 406d77       loc_406D77
 406d7c       loc_406D7C
 406d83       loc_406D83
 406d90       CUComboBox::OnDestroy(void)
 406db0       CUComboBox::OnGetDSWnd(uint,long)
 406de0       CUComboBox::SetDataSourceUnit(void)
 406e20       CUComboBox::RefrushState(void)
 406e45       loc_406E45
 406e60       CUComboBox::RefrushFromDataSource(void)
 406ec4       loc_406EC4
 406efa       loc_406EFA
 406f25       loc_406F25
 406f60       CUComboBox::OnKillfocus(void)
 406fb0       CUComboBox::OnSetfocus(void)
 407000       CUComboBox::OnCloseup(void)
 407050       CUComboBox::OnDropdown(void)
 4070a0       CUComboBox::OnDblclk(void)
 4070f0       CUComboBox::OnEditchange(void)
 407137       loc_407137
 407140       CUComboBox::OnSelendok(void)
 40715d       locret_40715D
 407160       CUComboBox::OnSelendOkNotify(void)
 4071a3       loc_4071A3
 4071b0       CUComboBox::CtlColor(CDC_*,uint)
 4071e8       loc_4071E8
 4071f0       CUComboBox::OnEraseBkgnd(CDC_*)
 407225       loc_407225
 407239       loc_407239
 407250       CUListBox::OnInit(uint,long)
 40726a       loc_40726A
 40728e       loc_40728E
 407292       loc_407292
 407297       loc_407297
 40729c       loc_40729C
 4072a3       loc_4072A3
 4072b0       unknown_libname_205
 4072d0       CUListBox::OnGetDSWnd(uint,long)
 407300       CUListBox::SetDataSourceUnit(void)
 407340       CUListBox::RefrushState(void)
 407365       loc_407365
 407380       CUListBox::RefrushFromDataSource(void)
 4073e4       loc_4073E4
 407419       loc_407419
 407450       CUListBox::CtlColor(CDC_*,uint)
 407488       loc_407488
 407490       CUListBox::OnSelchange(void)
 4074d3       loc_4074D3
 4074e0       CUListBox::OnKillfocus(void)
 407530       CUListBox::OnSetfocus(void)
 407580       CUListBox::OnDblclk(void)
 4075d0       sub_4075D0
 4075e8       loc_4075E8
 4075f0       unknown_libname_206
 407630       unknown_libname_207
 407680       unknown_libname_208
 4076c0       CUChkListBox::OnDblclk(void)
 407710       CUChkListBox::SaveCurSel(void)
 407747       loc_407747
 40775d       loc_40775D
 407763       loc_407763
 407770       CUChkListBox::ProcessOnlyOne(void)
 4077b0       loc_4077B0
 4077c4       loc_4077C4
 4077c8       loc_4077C8
 4077e9       loc_4077E9
 4077f7       loc_4077F7
 4077f9       loc_4077F9
 40780e       loc_40780E
 407817       loc_407817
 40783c       loc_40783C
 407846       loc_407846
 40789e       loc_40789E
 4078b5       loc_4078B5
 4078b7       loc_4078B7
 407916       loc_407916
 40792e       loc_40792E
 407969       loc_407969
 4079a0       loc_4079A0
 4079aa       loc_4079AA
 407a2e       loc_407A2E
 407a45       loc_407A45
 407a47       loc_407A47
 407aa6       loc_407AA6
 407abe       loc_407ABE
 407af9       loc_407AF9
 407b30       loc_407B30
 407b3a       loc_407B3A
 407b70       CUChkListBox::OnLButtonDblClk(uint,CPoint)
 407bbe       loc_407BBE
 407bd5       loc_407BD5
 407bd7       loc_407BD7
 407c36       loc_407C36
 407c4e       loc_407C4E
 407c89       loc_407C89
 407cc0       loc_407CC0
 407cca       loc_407CCA
 407d10       unknown_libname_209
 407ea0       CUDrawPanel::ClearPanel(CDC_*,CRect_&)
 407ef4       loc_407EF4
 407ef7       loc_407EF7
 407f0f       loc_407F0F
 407f1d       loc_407F1D
 407fc5       loc_407FC5
 407fc8       loc_407FC8
 407ff4       loc_407FF4
 408006       loc_408006
 408074       loc_408074
 408079       loc_408079
 408090       CUDrawPanel::OnPaint(void)
 40819b       loc_40819B
 40819e       loc_40819E
 408227       loc_408227
 40822f       loc_40822F
 408232       loc_408232
 408252       loc_408252
 408328       loc_408328
 408360       CUDrawPanel::OnSize(uint,int,int)
 408390       CUDrawPanel::OnMouseActivate(CWnd_*,uint,uint)
 408482       loc_408482
 40848e       loc_40848E
 4084a0       CUDrawPanel::ReCreateBitmap(int)
 4084fb       loc_4084FB
 40850f       loc_40850F
 4085b9       loc_4085B9
 4085bc       loc_4085BC
 4085d4       loc_4085D4
 408684       loc_408684
 408687       loc_408687
 4086bb       loc_4086BB
 4086d1       loc_4086D1
 408733       loc_408733
 408775       loc_408775
 4087e1       loc_4087E1
 4087e4       loc_4087E4
 4087fb       loc_4087FB
 408805       loc_408805
 408835       loc_408835
 408851       loc_408851
 408858       loc_408858
 408865       loc_408865
 4088bf       loc_4088BF
 4088f0       unknown_libname_210
 408ca0       fnCallNewPage(void_*)
 408d1b       loc_408D1B
 408d60       loc_408D60
 408d6b       loc_408D6B
 408d8b       loc_408D8B
 408d92       loc_408D92
 408da0       fnPrintBeginDraw(void_*,int)
 408dc1       loc_408DC1
 408e06       loc_408E06
 408e17       loc_408E17
 408e20       fnPrintEndDraw(void_*)
 408e30       CUPrinter::OnGetPrintInfo(uint,long)
 408e79       loc_408E79
 408e80       CUPrinter::OnPaint(void)
 408e98       loc_408E98
 408ea0       CUPrinter::SetPrinterDCMapMode(void)
 408ec0       CUPrinter::_BeginDraw(int)
 408ef3       loc_408EF3
 408ef6       loc_408EF6
 408f0d       loc_408F0D
 408f1e       loc_408F1E
 408f37       loc_408F37
 408f3a       loc_408F3A
 408f57       loc_408F57
 408f68       loc_408F68
 408f81       loc_408F81
 408f84       loc_408F84
 408fa5       loc_408FA5
 408fb6       loc_408FB6
 408fc2       loc_408FC2
 408fc5       loc_408FC5
 408fe6       loc_408FE6
 40900e       loc_40900E
 409031       loc_409031
 409050       loc_409050
 409075       loc_409075
 409078       loc_409078
 409099       loc_409099
 4090c5       loc_4090C5
 4090e4       loc_4090E4
 4090f0       CUPrinter::_EndDraw(void)
 409121       locret_409121
 409130       CUPrinter::AbortPrint(void)
 409168       loc_409168
 409187       loc_409187
 4091a3       loc_4091A3
 4091b0       CDaoRecordset::ResetCursor(void)
 4091d0       CUUDPSock::OnPaint(void)
 4091e5       loc_4091E5
 4091f0       CUClientSock::OnPaint(void)
 409205       loc_409205
 409210       CUServerSock::OnPaint(void)
 409228       loc_409228
 409230       CUSerialPort::OnPaint(void)
 409248       loc_409248
 409250       CUDataSource::OnPaint(void)
 4092b5       loc_4092B5
 4092dc       loc_4092DC
 409300       CUDataSource::OnDestroy(void)
 409379       loc_409379
 40938b       loc_40938B
 40939f       loc_40939F
 4093b0       CUDataSource::SetProviderUnit(void)
 4093d0       CUDataSource::OnInit(uint,long)
 4093e1       loc_4093E1
 409456       loc_409456
 4094b4       loc_4094B4
 4094b7       loc_4094B7
 4094c0       CUDataSource::OnGetColCount(uint,long)
 4094d0       CUDataSource::OnGetColName(uint,long)
 409570       CUProvider::OnInit(uint,long)
 40958c       loc_40958C
 4095a0       CUProvider::OnPaint(void)
 4095b5       loc_4095B5
 4095c0       CUGrid::OnKillFocus(CWnd_*)
 409610       CUGrid::OnSetFocus(CWnd_*)
 409660       CUGrid::OnInit(uint,long)
 409673       loc_409673
 409697       loc_409697
 40969b       loc_40969B
 4096a0       loc_4096A0
 4096a6       loc_4096A6
 4096ad       loc_4096AD
 4096c0       CUGrid::OnDestroy(void)
 4096e0       CUGrid::SetDataSourceUnit(void)
 409710       CUGrid::OnPaint(void)
 40978c       loc_40978C
 409805       loc_409805
 409826       loc_409826
 409840       CUBaseProvider::OnInit(uint,long)
 409857       loc_409857
 4098c3       loc_4098C3
 409911       loc_409911
 409931       loc_409931
 409935       loc_409935
 40993a       loc_40993A
 40994e       loc_40994E
 409954       loc_409954
 409960       CUBaseProvider::OnDestroy(void)
 409986       locret_409986
 409990       CUDBProvider::OnPaint(void)
 4099a5       loc_4099A5
 4099b0       CUODBCDB::OnPaint(void)
 4099c5       loc_4099C5
 4099d0       CUODBCProvider::OnPaint(void)
 4099e5       loc_4099E5
 4099f0       CUODBCProvider::OnGetODBCTalbesName(uint,long)
 409a03       loc_409A03
 409a30       loc_409A30
 409a40       CUODBCProvider::OnGetODBCConnectStr(uint,long)
 409aa5       loc_409AA5
 409abb       loc_409ABB
 409ad0       unknown_libname_211
 409aeb       loc_409AEB
 409af0       CUErrorControl::OnPaint(void)
 409bb0       GetIDSubType(ulong)
 409bc0       GetIDGroupType(ulong)
 409bd0       GetIDVaule(ulong)
 409be0       IsValidateID(ulong)
 409c06       loc_409C06
 409c10       CIDManger::CopyFrom(CIDManger_*)
 409c40       loc_409C40
 409c50       CIDManger::xchg(CIDManger_*)
 409c80       CIDManger::GetIDData(int,int_*)
 409c97       loc_409C97
 409c9a       loc_409C9A
 409cb7       loc_409CB7
 409cbe       loc_409CBE
 409cd0       CIDManger::GetID(int)
 409cea       loc_409CEA
 409cf3       loc_409CF3
 409d00       CIDManger::FindIDData(ulong,int_*,int_*)
 409d1c       loc_409D1C
 409d27       loc_409D27
 409d2a       loc_409D2A
 409d39       loc_409D39
 409d53       loc_409D53
 409d6b       loc_409D6B
 409d72       loc_409D72
 409d7c       loc_409D7C
 409d88       loc_409D88
 409da0       CIDManger::_Replace(int,int,int,uchar_*,int)
 409db2       loc_409DB2
 409db5       loc_409DB5
 409ddd       loc_409DDD
 409e0a       loc_409E0A
 409e0d       loc_409E0D
 409e30       CIDManger::AddID(uchar_*,int,ulong)
 409ea1       loc_409EA1
 409ec0       CIDManger::AddSpecID(ulong,uchar_*,int)
 409f1d       loc_409F1D
 409f30       CIDManger::InsertSpecID(int,ulong,uchar_*,int)
 409f49       loc_409F49
 409f6c       loc_409F6C
 409f9e       loc_409F9E
 409fa1       loc_409FA1
 409ff0       loc_409FF0
 409ff3       loc_409FF3
 40a020       CIDManger::InsertID(int,uchar_*,int,ulong)
 40a060       CIDManger::Serialize(CArchive_&)
 40a091       loc_40A091
 40a0b0       loc_40A0B0
 40a0c8       loc_40A0C8
 40a0f0       CIDDWordManger::FindIDByData(ulong)
 40a0fc       loc_40A0FC
 40a0ff       loc_40A0FF
 40a10d       loc_40A10D
 40a12a       loc_40A12A
 40a140       CIDDWordManger::GetIDData(int,ulong_*)
 40a15b       loc_40A15B
 40a15e       loc_40A15E
 40a171       loc_40A171
 40a180       CIDDWordManger::FindIDData(ulong,ulong_*,int_*)
 40a19c       loc_40A19C
 40a1a7       loc_40A1A7
 40a1aa       loc_40A1AA
 40a1ba       loc_40A1BA
 40a1cb       loc_40A1CB
 40a1e4       loc_40A1E4
 40a1fc       loc_40A1FC
 40a206       loc_40A206
 40a215       loc_40A215
 40a220       CIDDWordManger::InsertFrom(int,CIDDWordManger_*,int,int)
 40a23c       loc_40A23C
 40a25d       loc_40A25D
 40a277       loc_40A277
 40a27f       loc_40A27F
 40a2cd       loc_40A2CD
 40a2e0       CIDDWordManger::AppendFrom(CIDDWordManger_*)
 40a300       CIDDWordManger::Serialize(CArchive_&)
 40a317       loc_40A317
 40a330       IsMenuItemID(ulong)
 40a35c       loc_40A35C
 40a360       CWinUnitIDManger::IsMenuItem(int)
 40a380       CWinUnitIDManger::GetUnitData(uchar_*,int_*)
 40a3a1       loc_40A3A1
 40a3b0       GetUnitDataPtr(CWinUnitIDManger_*,uchar_*)
 40a400       CWinUnitIDManger::ChkTabVisible(uchar_*,int,int)
 40a47d       loc_40A47D
 40a49e       loc_40A49E
 40a4b0       loc_40A4B0
 40a52a       loc_40A52A
 40a533       loc_40A533
 40a542       loc_40A542
 40a54f       loc_40A54F
 40a553       loc_40A553
 40a56d       loc_40A56D
 40a571       loc_40A571
 40a60e       loc_40A60E
 40a61d       loc_40A61D
 40a621       loc_40A621
 40a67c       loc_40A67C
 40a695       loc_40A695
 40a69d       loc_40A69D
 40a713       loc_40A713
 40a71c       loc_40A71C
 40a726       loc_40A726
 40a73d       loc_40A73D
 40a750       CWinUnitIDManger::GetMenuCount(int_*)
 40a75a       loc_40A75A
 40a77f       loc_40A77F
 40a784       loc_40A784
 40a787       loc_40A787
 40a792       loc_40A792
 40a79c       loc_40A79C
 40a7b0       CWinUnitIDManger::~CWinUnitIDManger(void)
 40a7f0       loc_40A7F0
 40a7f4       loc_40A7F4
 40a817       loc_40A817
 40a857       loc_40A857
 40a87d       loc_40A87D
 40a886       loc_40A886
 40a88f       loc_40A88F
 40a8a3       loc_40A8A3
 40a8f0       CIDManger::~CIDManger(void)
 40a950       CIDManger::init(void)
 40a960       CIDManger::GetNameStr(uchar_*)
 40a970       CIDManger::`scalar_deleting_destructor'(uint)
 40a988       loc_40A988
 40a990       CWinUnitIDManger::AddID(uchar_*,int,ulong)
 40a9b0       CWinUnitIDManger::InsertID(int,uchar_*,int,ulong)
 40a9e0       CWinUnitIDManger::GetNameStr(uchar_*)
 40a9f0       CWinUnitIDManger::`scalar_deleting_destructor'(uint)
 40aa08       loc_40AA08
 40aa10       CWinForm::FindUnit(HWND___*,int)
 40aa2a       loc_40AA2A
 40aa2c       loc_40AA2C
 40aa67       loc_40AA67
 40aa97       loc_40AA97
 40aa9b       loc_40AA9B
 40aa9e       loc_40AA9E
 40aac5       loc_40AAC5
 40aad2       loc_40AAD2
 40aad6       loc_40AAD6
 40aaf0       CWinForm::Serialize(CArchive_&)
 40ab1c       loc_40AB1C
 40ab44       loc_40AB44
 40ab57       loc_40AB57
 40ab6f       loc_40AB6F
 40ab93       loc_40AB93
 40aba2       loc_40ABA2
 40abd0       CWinForm::ClearAllRadio(HWND___*)
 40abf7       loc_40ABF7
 40ac48       loc_40AC48
 40ac55       loc_40AC55
 40ac60       CWinIDManger::init(void)
 40ac68       loc_40AC68
 40ac96       loc_40AC96
 40acb0       CWinForm::~CWinForm(void)
 40ad20       CWinIDManger::Serialize(CArchive_&)
 40ad42       loc_40AD42
 40ad45       loc_40AD45
 40ad65       loc_40AD65
 40adc0       loc_40ADC0
 40adc2       loc_40ADC2
 40ade7       loc_40ADE7
 40aded       loc_40ADED
 40adfb       loc_40ADFB
 40ae10       CWinIDManger::GetWnd(int)
 40ae69       loc_40AE69
 40ae70       CloneTextData(char_*)
 40aeb7       loc_40AEB7
 40aec0       CloneBinData(uchar_*,int)
 40aecd       loc_40AECD
 40af10       sub_40AF10
 40af20       CKrnlApp::InitInstance(void)
 40af70       CKrnlApp::CKrnlApp(void)
 40b2a0       std::strstreambuf::~strstreambuf(void)
 40b310       CIDDWordManger::~CIDDWordManger(void)
 40b370       CIDDWordManger::init(void)
 40b380       CIDDWordManger::`scalar_deleting_destructor'(uint)
 40b398       loc_40B398
 40b3a0       sub_40B3A0
 40b3b8       loc_40B3B8
 40b3c0       CDllFunc::~CDllFunc(void)
 40b3d6       locret_40B3D6
 40b3e0       CDllFunc::`scalar_deleting_destructor'(uint)
 40b3f9       loc_40B3F9
 40b409       loc_40B409
 40b410       sub_40B410
 40b428       loc_40B428
 40b430       sub_40B430
 40b440       CKrnlApp::`scalar_deleting_destructor'(uint)
 40b458       loc_40B458
 40b460       CKrnlApp::~CKrnlApp(void)
 40b4dc       loc_40B4DC
 40b51d       loc_40B51D
 40b53e       loc_40B53E
 40b7b0       CKrnlApp::ExitInstance(void)
 40b7d0       CKrnlApp::IsEWin(HWND___*)
 40b7fa       loc_40B7FA
 40b812       loc_40B812
 40b86c       loc_40B86C
 40b880       CKrnlApp::Notify(int,ulong,ulong)
 40b8ca       loc_40B8CA
 40b8db       loc_40B8DB
 40b8f0       loc_40B8F0
 40b8fb       loc_40B8FB
 40b90e       loc_40B90E
 40b922       loc_40B922
 40b92c       loc_40B92C
 40b94d       loc_40B94D
 40b977       loc_40B977
 40b9bc       loc_40B9BC
 40ba01       loc_40BA01
 40ba2e       loc_40BA2E
 40ba45       loc_40BA45
 40ba5d       loc_40BA5D
 40ba73       loc_40BA73
 40ba87       loc_40BA87
 40bac8       loc_40BAC8
 40baeb       loc_40BAEB
 40bafc       loc_40BAFC
 40bb8a       loc_40BB8A
 40bba9       loc_40BBA9
 40bbe1       loc_40BBE1
 40bbf7       loc_40BBF7
 40bc08       loc_40BC08
 40bc57       loc_40BC57
 40bc66       loc_40BC66
 40bca9       loc_40BCA9
 40bcc8       loc_40BCC8
 40bcd3       loc_40BCD3
 40bcde       loc_40BCDE
 40bd11       loc_40BD11
 40bd8a       loc_40BD8A
 40bd9c       loc_40BD9C
 40bdbd       loc_40BDBD
 40bdce       loc_40BDCE
 40bddf       loc_40BDDF
 40be22       loc_40BE22
 40be34       loc_40BE34
 40be3c       loc_40BE3C
 40be6e       loc_40BE6E
 40be8b       loc_40BE8B
 40bef0       loc_40BEF0
 40befc       loc_40BEFC
 40bf28       loc_40BF28
 40bf36       loc_40BF36
 40bf65       loc_40BF65
 40bf9f       loc_40BF9F
 40bfac       loc_40BFAC
 40bfbb       loc_40BFBB
 40bfc7       loc_40BFC7
 40bff9       loc_40BFF9
 40c006       loc_40C006
 40c077       loc_40C077
 40c08a       loc_40C08A
 40c098       loc_40C098
 40c0d9       loc_40C0D9
 40c0ec       loc_40C0EC
 40c10f       loc_40C10F
 40c11d       loc_40C11D
 40c126       loc_40C126
 40c12c       loc_40C12C
 40c13d       loc_40C13D
 40c14b       loc_40C14B
 40c165       loc_40C165
 40c177       loc_40C177
 40c189       loc_40C189
 40c1a0       loc_40C1A0
 40c1b2       loc_40C1B2
 40c1d9       loc_40C1D9
 40c1eb       loc_40C1EB
 40c1f6       loc_40C1F6
 40c204       loc_40C204
 40c238       loc_40C238
 40c24a       loc_40C24A
 40c25c       loc_40C25C
 40c298       loc_40C298
 40c301       loc_40C301
 40c375       loc_40C375
 40c448       loc_40C448
 40c4ac       loc_40C4AC
 40c4b3       loc_40C4B3
 40c4fd       loc_40C4FD
 40c51d       loc_40C51D
 40c524       loc_40C524
 40c526       loc_40C526
 40c53c       off_40C53C
 40c578       off_40C578
 40c620       CKrnlApp::ShowSpecWindow(ulong,int)
 40c6c6       loc_40C6C6
 40c710       loc_40C710
 40c75e       loc_40C75E
 40c761       loc_40C761
 40c78f       loc_40C78F
 40c793       loc_40C793
 40c7af       loc_40C7AF
 40c7d7       loc_40C7D7
 40c7e0       CKrnlApp::InitManyMusicPlay(void)
 40c820       CKrnlApp::CloseAllFile(void)
 40c858       loc_40C858
 40c888       loc_40C888
 40c894       loc_40C894
 40c89d       loc_40C89D
 40c8cb       loc_40C8CB
 40c8d7       loc_40C8D7
 40c8dd       loc_40C8DD
 40c8f5       loc_40C8F5
 40c920       CKrnlApp::PlayMusic(uchar_*,int,int)
 40c951       loc_40C951
 40c959       loc_40C959
 40c973       loc_40C973
 40c99b       loc_40C99B
 40c99e       loc_40C99E
 40c9c1       loc_40C9C1
 40c9d0       CKrnlApp::ShowFormWindow(ulong,CWinForm_*,int)
 40ca33       loc_40CA33
 40ca43       loc_40CA43
 40ca45       loc_40CA45
 40ca4a       loc_40CA4A
 40ca7f       loc_40CA7F
 40cac3       loc_40CAC3
 40cac7       loc_40CAC7
 40cace       loc_40CACE
 40cae0       CreateWin(x,x,x,x,x)
 40cb71       loc_40CB71
 40cb73       loc_40CB73
 40cb86       loc_40CB86
 40cbaf       loc_40CBAF
 40cbd1       loc_40CBD1
 40cbeb       loc_40CBEB
 40cc61       loc_40CC61
 40ccab       loc_40CCAB
 40cce4       loc_40CCE4
 40cdd7       loc_40CDD7
 40cdf3       loc_40CDF3
 40ce0e       loc_40CE0E
 40ce1e       loc_40CE1E
 40cecf       loc_40CECF
 40cf2d       loc_40CF2D
 40cf61       loc_40CF61
 40cf69       loc_40CF69
 40cfc9       loc_40CFC9
 40cff5       loc_40CFF5
 40d004       loc_40D004
 40d00f       loc_40D00F
 40d01a       loc_40D01A
 40d029       loc_40D029
 40d038       loc_40D038
 40d041       loc_40D041
 40d07a       loc_40D07A
 40d089       loc_40D089
 40d098       loc_40D098
 40d0a7       loc_40D0A7
 40d0b2       loc_40D0B2
 40d10f       loc_40D10F
 40d113       loc_40D113
 40d11a       loc_40D11A
 40d146       loc_40D146
 40d155       loc_40D155
 40d15f       loc_40D15F
 40d178       loc_40D178
 40d17e       loc_40D17E
 40d192       loc_40D192
 40d197       loc_40D197
 40d19b       loc_40D19B
 40d1bf       loc_40D1BF
 40d1ee       loc_40D1EE
 40d221       loc_40D221
 40d227       loc_40D227
 40d23b       loc_40D23B
 40d241       loc_40D241
 40d251       loc_40D251
 40d298       loc_40D298
 40d29a       loc_40D29A
 40d30f       loc_40D30F
 40d317       loc_40D317
 40d329       loc_40D329
 40d387       loc_40D387
 40d38d       loc_40D38D
 40d38f       loc_40D38F
 40d3bc       loc_40D3BC
 40d3dd       loc_40D3DD
 40d3f2       loc_40D3F2
 40d53d       loc_40D53D
 40d56c       loc_40D56C
 40d610       loc_40D610
 40d62c       loc_40D62C
 40d68a       loc_40D68A
 40d68e       loc_40D68E
 40d692       loc_40D692
 40d6b2       loc_40D6B2
 40d6c0       loc_40D6C0
 40d710       CKrnlApp::OnIdle(long)
 40d741       loc_40D741
 40d76a       loc_40D76A
 40d78c       loc_40D78C
 40d79d       loc_40D79D
 40d7c7       loc_40D7C7
 40d800       loc_40D800
 40d81c       loc_40D81C
 40d824       loc_40D824
 40d829       loc_40D829
 40d840       unknown_libname_212
 40d84a       unknown_libname_1
 40d860       CKrnlApp::IsHaveVaildateWinForm(void)
 40d873       loc_40D873
 40d8ca       loc_40D8CA
 40d8e0       CKrnlApp::LoadBeginWin(ulong)
 40d914       loc_40D914
 40d922       loc_40D922
 40d930       CKrnlApp::RegisterIdleCallBack(HWND___*,void_(*)(void_*),void_*)
 40d973       loc_40D973
 40d99f       loc_40D99F
 40d9b0       CKrnlApp::UnregisterIdleCallBack(HWND___*)
 40da15       loc_40DA15
 40da20       CKrnlApp::UnregisterAllIdleCallBack(void)
 40da50       CKrnlApp::MessageLoop(int)
 40da67       loc_40DA67
 40da74       loc_40DA74
 40da9d       loc_40DA9D
 40dadd       loc_40DADD
 40daf3       loc_40DAF3
 40dafb       loc_40DAFB
 40db16       loc_40DB16
 40db25       loc_40DB25
 40db2f       loc_40DB2F
 40db3e       loc_40DB3E
 40db56       loc_40DB56
 40db71       loc_40DB71
 40db85       loc_40DB85
 40db90       CKrnlApp::DoEvents(void)
 40dbad       loc_40DBAD
 40dbd3       loc_40DBD3
 40dbe0       CKrnlApp::AllocID(void)
 40dbf0       CKrnlApp::ReCreateUnit(ulong,CWinForm_*,int)
 40dc95       loc_40DC95
 40dc9c       loc_40DC9C
 40dd15       loc_40DD15
 40dd29       loc_40DD29
 40dd2c       loc_40DD2C
 40ddcd       loc_40DDCD
 40dde6       loc_40DDE6
 40ddf9       loc_40DDF9
 40de0f       loc_40DE0F
 40de28       loc_40DE28
 40de8e       loc_40DE8E
 40deaa       loc_40DEAA
 40dee9       loc_40DEE9
 40df15       loc_40DF15
 40df3b       loc_40DF3B
 40df46       loc_40DF46
 40df4a       loc_40DF4A
 40df58       loc_40DF58
 40df70       CKrnlApp::SetUnitLayout(CWinForm_*,int)
 40e000       loc_40E000
 40e016       loc_40E016
 40e020       CKrnlApp::FindAboveLayoutUnitIndex(CWinForm_*,int)
 40e05d       loc_40E05D
 40e090       loc_40E090
 40e096       loc_40E096
 40e0a0       loc_40E0A0
 40e0b0       CKrnlApp::FreeNextCallDllCmdInf(void)
 40e0d0       CKrnlApp::GetDllCmdAdr(int)
 40e115       loc_40E115
 40e12d       loc_40E12D
 40e12f       loc_40E12F
 40e176       loc_40E176
 40e193       loc_40E193
 40e1c9       loc_40E1C9
 40e240       loc_40E240
 40e2c2       loc_40E2C2
 40e2ca       loc_40E2CA
 40e2d7       loc_40E2D7
 40e2ff       loc_40E2FF
 40e304       loc_40E304
 40e33a       loc_40E33A
 40e34f       loc_40E34F
 40e35a       loc_40E35A
 40e376       loc_40E376
 40e3da       loc_40E3DA
 40e42c       loc_40E42C
 40e446       loc_40E446
 40e44f       loc_40E44F
 40e470       ReportAllocMemError(int)
 40e4a0       CKrnlApp::ReportError(char_const_*,int)
 40e510       loc_40E510
 40e55b       loc_40E55B
 40e58b       loc_40E58B
 40e5a6       loc_40E5A6
 40e5b4       loc_40E5B4
 40e5cd       loc_40E5CD
 40e5e0       CKrnlApp::GetLibDataTypeInfo(ulong,LIB_INFO_*_*)
 40e5f3       loc_40E5F3
 40e627       loc_40E627
 40e64c       loc_40E64C
 40e660       krnl_MAFindClose(void_*)
 40e66f       locret_40E66F
 40e670       krnl_MADir(char_*,int,int,void_*_*)
 40e687       loc_40E687
 40e691       loc_40E691
 40e6a5       loc_40E6A5
 40e6aa       loc_40E6AA
 40e6b3       loc_40E6B3
 40e6cc       loc_40E6CC
 40e6d7       loc_40E6D7
 40e6f0       loc_40E6F0
 40e6f5       loc_40E6F5
 40e6fa       loc_40E6FA
 40e70a       loc_40E70A
 40e712       loc_40E712
 40e71f       loc_40E71F
 40e732       loc_40E732
 40e736       loc_40E736
 40e743       loc_40E743
 40e769       loc_40E769
 40e780       krnl_MACopyConstAry(int,void_*_*)
 40e7a6       loc_40E7A6
 40e7b1       loc_40E7B1
 40e7db       loc_40E7DB
 40e7e0       krnl_MAReadPackedObjectProperty(ulong,void_*,int,int)
 40e800       krnl_MAWritePackedObjectProperty(ulong,void_*,int,int,ulong,ulong)
 40e830       mystrtok(char_*,char,char_*_*)
 40e840       loc_40E840
 40e84c       loc_40E84C
 40e858       loc_40E858
 40e861       loc_40E861
 40e870       CKrnlApp::RegOcx(char_const_*,char_const_*,int)
 40e92c       loc_40E92C
 40e966       loc_40E966
 40e9b6       loc_40E9B6
 40e9c7       loc_40E9C7
 40e9df       loc_40E9DF
 40e9e8       loc_40E9E8
 40ea1b       loc_40EA1B
 40ea25       loc_40EA25
 40ea51       loc_40EA51
 40ea98       loc_40EA98
 40eacf       loc_40EACF
 40ead7       loc_40EAD7
 40eb00       loc_40EB00
 40eb16       loc_40EB16
 40eb23       loc_40EB23
 40eb32       loc_40EB32
 40eb34       loc_40EB34
 40eb4a       loc_40EB4A
 40eb77       loc_40EB77
 40eb93       loc_40EB93
 40ebb0       loc_40EBB0
 40ebd6       loc_40EBD6
 40ebd8       loc_40EBD8
 40ebe0       loc_40EBE0
 40ec01       loc_40EC01
 40ec40       CKrnlApp::GetDefaultIcon(HICON___*_*,HICON___*_*)
 40ec72       loc_40EC72
 40ec90       CKrnlApp::free(int)
 40ecee       loc_40ECEE
 40ed0c       loc_40ED0C
 40ed51       loc_40ED51
 40ed68       loc_40ED68
 40ed77       loc_40ED77
 40ed95       loc_40ED95
 40ed9a       loc_40ED9A
 40edc3       loc_40EDC3
 40edd7       loc_40EDD7
 40eddc       loc_40EDDC
 40ee08       loc_40EE08
 40ee1b       loc_40EE1B
 40ee30       loc_40EE30
 40ee4a       loc_40EE4A
 40ee80       loc_40EE80
 40ee97       loc_40EE97
 40eec5       loc_40EEC5
 40eecb       loc_40EECB
 40eee1       loc_40EEE1
 40eef7       loc_40EEF7
 40eefc       loc_40EEFC
 40ef1f       loc_40EF1F
 40ef25       loc_40EF25
 40ef38       loc_40EF38
 40ef5a       loc_40EF5A
 40ef6d       loc_40EF6D
 40ef76       loc_40EF76
 40ef88       loc_40EF88
 40efa8       loc_40EFA8
 40efb4       loc_40EFB4
 40efd6       loc_40EFD6
 40f00e       loc_40F00E
 40f020       CKrnlApp::PreTranslateMessage(tagMSG_*)
 40f038       loc_40F038
 40f044       loc_40F044
 40f058       loc_40F058
 40f062       loc_40F062
 40f069       loc_40F069
 40f07c       loc_40F07C
 40f094       loc_40F094
 40f0a3       loc_40F0A3
 40f0b2       loc_40F0B2
 40f0c0       NotifySys(int,ulong,ulong)
 40f0dd       loc_40F0DD
 40f0f0       ProcessNotifySys(int,ulong,ulong)
 40f110       krnl_ProcessNotifyLib(x,x,x)
 40f130       loc_40F130
 40f140       loc_40F140
 40f155       loc_40F155
 40f17b       loc_40F17B
 40f181       loc_40F181
 40f196       loc_40F196
 40f1bd       loc_40F1BD
 40f1e3       loc_40F1E3
 40f1e6       loc_40F1E6
 40f1ec       off_40F1EC
 40f208       byte_40F208
 40f220       CKrnlApp::ReadProperty(ulong,ulong,int,int)
 40f28c       loc_40F28C
 40f2e9       loc_40F2E9
 40f2fe       loc_40F2FE
 40f30f       loc_40F30F
 40f31f       loc_40F31F
 40f32f       loc_40F32F
 40f380       loc_40F380
 40f382       loc_40F382
 40f39b       loc_40F39B
 40f3df       loc_40F3DF
 40f3eb       loc_40F3EB
 40f3f4       loc_40F3F4
 40f411       loc_40F411
 40f41c       loc_40F41C
 40f448       loc_40F448
 40f45b       loc_40F45B
 40f483       loc_40F483
 40f4b7       loc_40F4B7
 40f4d8       loc_40F4D8
 40f513       loc_40F513
 40f52d       loc_40F52D
 40f56a       loc_40F56A
 40f5d4       loc_40F5D4
 40f5e7       loc_40F5E7
 40f5fa       loc_40F5FA
 40f632       loc_40F632
 40f636       loc_40F636
 40f670       off_40F670
 40f680       off_40F680
 40f6a0       CKrnlApp::ReadPackedObjectProperty(ulong,void_*,int,int)
 40f710       CKrnlApp::WritePackedObjectProperty(ulong,void_*,int,int,ulong,ulong)
 40f783       loc_40F783
 40f793       loc_40F793
 40f7ad       loc_40F7AD
 40f7c4       loc_40F7C4
 40f7df       loc_40F7DF
 40f7ef       loc_40F7EF
 40f807       loc_40F807
 40f810       loc_40F810
 40f828       loc_40F828
 40f86e       loc_40F86E
 40f87a       loc_40F87A
 40f8b8       loc_40F8B8
 40f8ce       loc_40F8CE
 40f8de       loc_40F8DE
 40f8f3       loc_40F8F3
 40f900       loc_40F900
 40f91a       loc_40F91A
 40f92f       loc_40F92F
 40f944       loc_40F944
 40f959       loc_40F959
 40f97d       loc_40F97D
 40f98d       loc_40F98D
 40f9a2       loc_40F9A2
 40f9a7       loc_40F9A7
 40f9c3       loc_40F9C3
 40fa65       loc_40FA65
 40fa6e       loc_40FA6E
 40fa7f       loc_40FA7F
 40fa8b       loc_40FA8B
 40faa2       loc_40FAA2
 40fae4       off_40FAE4
 40fb04       byte_40FB04
 40fb20       off_40FB20
 40fb40       CKrnlApp::ProcessReadPropertyValue(UNIT_PROPERTY_*,int,UNIT_PROPERTY_VALUE_&,ulong_*)
 40fb7b       loc_40FB7B
 40fb9a       loc_40FB9A
 40fbc1       loc_40FBC1
 40fbe6       loc_40FBE6
 40fbf2       loc_40FBF2
 40fbfe       loc_40FBFE
 40fc80       loc_40FC80
 40fc94       loc_40FC94
 40fca4       loc_40FCA4
 40fcbe       loc_40FCBE
 40fcd3       loc_40FCD3
 40fd54       loc_40FD54
 40fd70       loc_40FD70
 40fd83       loc_40FD83
 40fda6       loc_40FDA6
 40fdc9       loc_40FDC9
 40fdd5       loc_40FDD5
 40fdf7       loc_40FDF7
 40fdfb       loc_40FDFB
 40fe03       loc_40FE03
 40fe09       loc_40FE09
 40fe1c       off_40FE1C
 40fe80       off_40FE80
 40fea0       CKrnlApp::BeginProcessEvent(ulong,ulong,int,int)
 40fee7       loc_40FEE7
 40ff02       loc_40FF02
 40ff0e       loc_40FF0E
 40ff2b       loc_40FF2B
 40ff2f       loc_40FF2F
 40ff53       loc_40FF53
 40ff9b       loc_40FF9B
 40ffde       loc_40FFDE
 40fff4       loc_40FFF4
 40fff7       loc_40FFF7
 410007       loc_410007
 41001b       loc_41001B
 410039       loc_410039
 410047       loc_410047
 410060       CKrnlApp::RefrushMenu(CWinForm_*)
 410121       loc_410121
 410132       loc_410132
 410157       loc_410157
 410160       CKrnlApp::WriteProperty(ulong,ulong,int,int,ulong,ulong)
 4101b2       loc_4101B2
 410213       loc_410213
 410223       loc_410223
 410272       loc_410272
 4102ac       loc_4102AC
 4102c1       loc_4102C1
 4102fa       loc_4102FA
 41030f       loc_41030F
 410347       loc_410347
 41035c       loc_41035C
 4103b6       loc_4103B6
 4103be       loc_4103BE
 4103f4       loc_4103F4
 410412       loc_410412
 410417       loc_410417
 41043f       loc_41043F
 410490       loc_410490
 4104c1       loc_4104C1
 4104ce       loc_4104CE
 4104e6       loc_4104E6
 4104fd       loc_4104FD
 410502       loc_410502
 410526       loc_410526
 410574       loc_410574
 410590       loc_410590
 4105a0       loc_4105A0
 4105f0       loc_4105F0
 41063d       loc_41063D
 410672       loc_410672
 410694       loc_410694
 4106e8       loc_4106E8
 410785       loc_410785
 41078c       loc_41078C
 410799       loc_410799
 4107a3       loc_4107A3
 4107b4       loc_4107B4
 4107b9       loc_4107B9
 4107c7       loc_4107C7
 4107d7       loc_4107D7
 4107f7       loc_4107F7
 410801       loc_410801
 41081a       loc_41081A
 410832       loc_410832
 41087d       loc_41087D
 4108b2       loc_4108B2
 4108d7       loc_4108D7
 4108e6       loc_4108E6
 4108f1       loc_4108F1
 410927       loc_410927
 41094a       loc_41094A
 410952       loc_410952
 41095c       loc_41095C
 4109c9       loc_4109C9
 4109e5       loc_4109E5
 410a18       loc_410A18
 410a1f       loc_410A1F
 410a28       loc_410A28
 410a42       loc_410A42
 410a59       loc_410A59
 410a74       loc_410A74
 410a84       loc_410A84
 410a9c       loc_410A9C
 410ab6       loc_410AB6
 410afe       loc_410AFE
 410b0a       loc_410B0A
 410b56       loc_410B56
 410b6b       loc_410B6B
 410b7b       loc_410B7B
 410b90       loc_410B90
 410b9d       loc_410B9D
 410bb7       loc_410BB7
 410bcc       loc_410BCC
 410be1       loc_410BE1
 410bf6       loc_410BF6
 410c1a       loc_410C1A
 410c2a       loc_410C2A
 410c3f       loc_410C3F
 410c44       loc_410C44
 410c60       loc_410C60
 410d03       loc_410D03
 410d0c       loc_410D0C
 410d1d       loc_410D1D
 410d29       loc_410D29
 410d39       loc_410D39
 410d3d       loc_410D3D
 410dc7       loc_410DC7
 410de3       loc_410DE3
 410e00       off_410E00
 410e10       off_410E10
 410e30       off_410E30
 410e50       byte_410E50
 410e6c       off_410E6C
 410e90       CKrnlApp::ConvertNumToInt(MDATA_INF_*)
 410eb5       loc_410EB5
 410eba       loc_410EBA
 410ec0       loc_410EC0
 410ec7       loc_410EC7
 410ed5       loc_410ED5
 410ee1       std::_Ref_count_base::_Get_deleter(type_info_const_&)
 410ee6       loc_410EE6
 410ef0       loc_410EF0
 410f00       CKrnlApp::StopPlayMP3(void)
 410f2d       loc_410F2D
 410f37       loc_410F37
 410f40       CKrnlApp::StopPlay(int)
 410f60       CKrnlApp::IsConstPtr(void_*)
 410f77       loc_410F77
 410f7d       loc_410F7D
 410f88       loc_410F88
 410f91       loc_410F91
 410f99       loc_410F99
 410f9f       loc_410F9F
 410fb0       sub_410FB0
 410fc0       CSysHideWnd::OnAppQuit(uint,long)
 410fe0       unknown_libname_213
 410ff1       loc_410FF1
 41100c       loc_41100C
 411018       loc_411018
 41103a       loc_41103A
 41104a       loc_41104A
 411069       loc_411069
 411075       loc_411075
 411083       loc_411083
 4110e0       CPIWinForm::init(void)
 411170       CPIWinForm::Serialize(CArchive_&)
 4111a4       loc_4111A4
 4111e5       loc_4111E5
 4111ea       loc_4111EA
 411232       loc_411232
 4112c6       loc_4112C6
 4112c9       loc_4112C9
 4112eb       loc_4112EB
 4112fe       loc_4112FE
 411312       loc_411312
 411331       loc_411331
 411349       loc_411349
 41138b       loc_41138B
 4113c1       loc_4113C1
 4113ea       loc_4113EA
 411413       loc_411413
 41143c       loc_41143C
 411465       loc_411465
 41148e       loc_41148E
 4114b7       loc_4114B7
 4114e0       loc_4114E0
 411509       loc_411509
 411532       loc_411532
 41155e       loc_41155E
 41158a       loc_41158A
 4115b6       loc_4115B6
 4115e2       loc_4115E2
 411608       loc_411608
 411661       loc_411661
 41166d       loc_41166D
 411690       StopPlay(CWinFormUnit_*)
 4116b5       loc_4116B5
 4116bb       loc_4116BB
 4116d8       loc_4116D8
 4116f2       loc_4116F2
 411700       PlayMusic(CWinFormUnit_*)
 411733       loc_411733
 411741       loc_411741
 411747       loc_411747
 411773       loc_411773
 4117ad       loc_4117AD
 4117c0       SetNewIcon(CWinFormUnit_*)
 4117d8       loc_4117D8
 4117de       loc_4117DE
 41184a       loc_41184A
 411852       loc_411852
 41188f       loc_41188F
 41189c       loc_41189C
 4118bc       loc_4118BC
 4118e0       MyRegisterWndClass(char_*)
 4118fc       loc_4118FC
 411901       loc_411901
 41196f       loc_41196F
 411980       Create_Win(uchar_*,int,ulong,HWND___*,uint,HMENU___*,int,int,int,int,ulong,ulong,HWND___*,int)
 4119c2       loc_4119C2
 4119c4       loc_4119C4
 4119d7       loc_4119D7
 4119fd       loc_4119FD
 411a48       loc_411A48
 411a65       loc_411A65
 411a77       loc_411A77
 411a7d       loc_411A7D
 411a86       loc_411A86
 411a93       loc_411A93
 411a9d       loc_411A9D
 411aa5       loc_411AA5
 411aad       loc_411AAD
 411ab5       loc_411AB5
 411abc       loc_411ABC
 411ac0       loc_411AC0
 411acd       loc_411ACD
 411ada       loc_411ADA
 411b0c       loc_411B0C
 411b16       loc_411B16
 411b3e       loc_411B3E
 411b6b       loc_411B6B
 411b7b       loc_411B7B
 411b7f       loc_411B7F
 411b99       loc_411B99
 411bb1       loc_411BB1
 411bc8       loc_411BC8
 411c14       loc_411C14
 411c1b       loc_411C1B
 411c51       loc_411C51
 411c62       loc_411C62
 411c7c       loc_411C7C
 411c91       loc_411C91
 411cbf       loc_411CBF
 411ced       loc_411CED
 411cf8       loc_411CF8
 411d10       off_411D10
 411d30       CWinFormUnit::SetWinBoxType(void)
 411d51       loc_411D51
 411d63       loc_411D63
 411d69       loc_411D69
 411d74       loc_411D74
 411d7f       loc_411D7F
 411d9a       loc_411D9A
 411da0       NotifyPropertyChanged_Win(ulong,int,UNIT_PROPERTY_VALUE_*,char_*_*)
 411db9       loc_411DB9
 411dc3       loc_411DC3
 411dd9       loc_411DD9
 411e05       loc_411E05
 411e18       loc_411E18
 411e1d       loc_411E1D
 411e22       loc_411E22
 411e32       loc_411E32
 411e3f       loc_411E3F
 411e47       loc_411E47
 411e4d       loc_411E4D
 411e54       loc_411E54
 411e5a       loc_411E5A
 411e5f       loc_411E5F
 411e90       loc_411E90
 411ead       loc_411EAD
 411ee9       loc_411EE9
 411efc       loc_411EFC
 411f0b       loc_411F0B
 411f1f       loc_411F1F
 411f32       loc_411F32
 411f37       loc_411F37
 411f3c       loc_411F3C
 411f5e       loc_411F5E
 411f95       loc_411F95
 411fca       loc_411FCA
 411fcf       loc_411FCF
 411fd4       loc_411FD4
 411fef       loc_411FEF
 41200b       loc_41200B
 412027       loc_412027
 412043       loc_412043
 412056       loc_412056
 41205b       loc_41205B
 412060       loc_412060
 412088       loc_412088
 41209d       loc_41209D
 4120b9       loc_4120B9
 4120c2       loc_4120C2
 412115       loc_412115
 412132       loc_412132
 412147       loc_412147
 41215a       loc_41215A
 41219c       loc_41219C
 4121ba       loc_4121BA
 4121e5       loc_4121E5
 4121fd       loc_4121FD
 412215       loc_412215
 41222d       loc_41222D
 41224b       loc_41224B
 412263       loc_412263
 41227b       loc_41227B
 412293       loc_412293
 4122bd       loc_4122BD
 4122c2       loc_4122C2
 4122c7       loc_4122C7
 4122e0       loc_4122E0
 412327       loc_412327
 4123af       loc_4123AF
 4123c7       loc_4123C7
 4123d9       loc_4123D9
 4123e8       off_4123E8
 412448       off_412448
 412460       off_412460
 412470       GetPropertyData_Win(ulong,int,UNIT_PROPERTY_VALUE_*)
 412491       loc_412491
 4124a3       loc_4124A3
 4124b5       loc_4124B5
 4124c7       loc_4124C7
 4124e5       loc_4124E5
 4124fd       loc_4124FD
 41250f       loc_41250F
 412533       loc_412533
 412551       loc_412551
 412566       loc_412566
 412578       loc_412578
 41258a       loc_41258A
 41259c       loc_41259C
 4125bd       loc_4125BD
 4125dd       loc_4125DD
 4125ef       loc_4125EF
 412613       loc_412613
 412631       loc_412631
 412646       loc_412646
 41265b       loc_41265B
 412670       loc_412670
 412685       loc_412685
 41269a       loc_41269A
 4126af       loc_4126AF
 4126c4       loc_4126C4
 4126d9       loc_4126D9
 4126ee       loc_4126EE
 412703       loc_412703
 412718       loc_412718
 412720       off_412720
 412780       unknown_libname_214
 41278b       loc_41278B
 4127a0       GetIconPropertyData_Win(uchar_*,int)
 412945       loc_412945
 412954       loc_412954
 4129a4       loc_4129A4
 4129e6       loc_4129E6
 412a20       CPIWinForm::~CPIWinForm(void)
 412ac0       LangCnvWinForm(uchar_*,int_*,void_(*)(char_*,ulong,int),int)
 412b6e       loc_412B6E
 412bac       loc_412BAC
 412c50       krnln_GetInterface_window(x)
 412c61       loc_412C61
 412c6e       loc_412C6E
 412c7b       loc_412C7B
 412c88       loc_412C88
 412c95       loc_412C95
 412cb0       CWinFormUnit::CreateObject(void)
 412cf9       loc_412CF9
 412d10       sub_412D10
 412d20       CWinFormUnit::CWinFormUnit(void)
 412e60       CWinFormUnit::`scalar_deleting_destructor'(uint)
 412e78       loc_412E78
 412e80       CWinFormUnit::~CWinFormUnit(void)
 412ede       loc_412EDE
 412ef1       loc_412EF1
 412efa       loc_412EFA
 412f10       loc_412F10
 412f1d       loc_412F1D
 412ff0       sub_412FF0
 413000       unknown_libname_215
 413020       unknown_libname_216
 413040       loc_413040
 413050       unknown_libname_217
 413074       loc_413074
 413080       unknown_libname_218
 4130a0       loc_4130A0
 4130b0       unknown_libname_219
 4130d7       loc_4130D7
 4130e5       loc_4130E5
 4130ec       loc_4130EC
 413123       loc_413123
 413130       CWinFormUnit::OnNcActivate(int)
 413161       loc_413161
 413170       CWinFormUnit::OnShowWindow(int,uint)
 4131d0       CWinFormUnit::OnDestroyThis(uint,long)
 4131f3       loc_4131F3
 413200       CWinFormUnit::OnIconOper(uint,long)
 413215       loc_413215
 413223       loc_413223
 41322f       loc_41322F
 413234       loc_413234
 413276       loc_413276
 413280       CWinFormUnit::SetTrayIcon(HICON___*,char_*)
 4132c3       loc_4132C3
 4132de       loc_4132DE
 4132f9       loc_4132F9
 41331a       loc_41331A
 41333f       loc_41333F
 413350       CWinFormUnit::SetWindowShape(void)
 4133a3       loc_4133A3
 413402       loc_413402
 41340f       loc_41340F
 41341c       loc_41341C
 41341f       loc_41341F
 41347a       loc_41347A
 4134ac       loc_4134AC
 4134e3       loc_4134E3
 41357a       loc_41357A
 4135a2       loc_4135A2
 4135b0       loc_4135B0
 4135ba       loc_4135BA
 4135c4       loc_4135C4
 413630       CWinFormUnit::PreCreateWindow(tagCREATESTRUCTA_&)
 413640       CWinFormUnit::PostNcDestroy(void)
 41365e       loc_41365E
 41368b       loc_41368B
 4136e0       loc_4136E0
 4136e2       loc_4136E2
 413714       loc_413714
 413728       loc_413728
 413730       CWinFormUnit::OnPaint(void)
 4137b8       loc_4137B8
 41380e       loc_41380E
 413811       loc_413811
 41381e       loc_41381E
 4138a1       loc_4138A1
 413933       loc_413933
 41394b       loc_41394B
 413955       loc_413955
 4139c1       loc_4139C1
 4139d5       loc_4139D5
 4139ec       loc_4139EC
 413a19       loc_413A19
 413a32       loc_413A32
 413a3c       loc_413A3C
 413a6b       loc_413A6B
 413a9f       loc_413A9F
 413b32       loc_413B32
 413b45       loc_413B45
 413b4e       loc_413B4E
 413b59       loc_413B59
 413b84       loc_413B84
 413bbb       loc_413BBB
 413c04       off_413C04
 413c20       CWinFormUnit::OnCommand(uint,long)
 413c3f       loc_413C3F
 413cd4       loc_413CD4
 413ce2       loc_413CE2
 413d00       CWinFormUnit::OnCmdMsg(uint,int,void_*,AFX_CMDHANDLERINFO_*)
 413d20       CWinFormUnit::OnInitMenuPopup(CMenu_*,uint,int)
 413d30       CWinFormUnit::OnQueryEndSession(void)
 413d46       loc_413D46
 413dd0       loc_413DD0
 413de0       CWinFormUnit::ExitDlgMode(void)
 413dfc       loc_413DFC
 413e02       loc_413E02
 413e11       loc_413E11
 413e29       loc_413E29
 413e31       loc_413E31
 413e41       loc_413E41
 413e50       CWinFormUnit::OnClose(void)
 413ed4       loc_413ED4
 413ee2       loc_413EE2
 413ef0       CWinFormUnit::OnDestroy(void)
 413f31       loc_413F31
 413f81       loc_413F81
 413f84       loc_413F84
 413fe7       loc_413FE7
 414009       loc_414009
 414012       loc_414012
 414020       CWinFormUnit::AskCurFocusUnitIsNeedThisKey(ushort)
 4140ea       loc_4140EA
 414100       CWinFormUnit::GetOCXWndObject(CWnd_*)
 414110       loc_414110
 4141dc       loc_4141DC
 4141f0       CWinFormUnit::AskCurFocusOleControlCharMsg(tagMSG_*)
 4142aa       loc_4142AA
 4142c7       loc_4142C7
 4142d1       loc_4142D1
 4142d6       loc_4142D6
 41430b       loc_41430B
 41430f       loc_41430F
 414315       loc_414315
 414320       CWinFormUnit::SkipRadio(HWND___*,int)
 4143bc       loc_4143BC
 4143d0       CWinFormUnit::SkipFocus(HWND___*,int,int,HWND___*)
 4144c1       loc_4144C1
 4144e5       loc_4144E5
 41453c       loc_41453C
 414569       loc_414569
 41463e       loc_41463E
 41465c       loc_41465C
 41468d       loc_41468D
 414699       loc_414699
 4146e4       loc_4146E4
 4146f3       loc_4146F3
 4146ff       loc_4146FF
 414738       loc_414738
 414753       loc_414753
 414761       loc_414761
 414778       loc_414778
 4147ac       loc_4147AC
 4147c4       loc_4147C4
 4147c7       loc_4147C7
 4147ca       loc_4147CA
 4147d3       loc_4147D3
 41486e       loc_41486E
 414880       loc_414880
 4148c8       loc_4148C8
 4148e2       loc_4148E2
 414900       CWinFormUnit::OnSetFocus(CWnd_*)
 41499d       loc_41499D
 4149ec       loc_4149EC
 414a18       loc_414A18
 414af4       loc_414AF4
 414b01       loc_414B01
 414b17       loc_414B17
 414b20       CWinFormUnit::OnKillFocus(CWnd_*)
 414b70       CWinFormUnit::OnActivate(uint,CWnd_*,int)
 414c09       loc_414C09
 414c0d       loc_414C0D
 414cc1       loc_414CC1
 414d42       loc_414D42
 414dd2       loc_414DD2
 414de0       CWinFormUnit::NotifyDefaultButton(CWinForm_*,int)
 414ec1       loc_414EC1
 414ed0       CWinFormUnit::PreTranslateMessage(tagMSG_*)
 414f17       loc_414F17
 414f28       loc_414F28
 414f30       loc_414F30
 414f42       loc_414F42
 414f77       loc_414F77
 414fa2       loc_414FA2
 414fcd       loc_414FCD
 414fd1       loc_414FD1
 415016       loc_415016
 415021       loc_415021
 415043       loc_415043
 41504a       loc_41504A
 4150cc       loc_4150CC
 4150e1       loc_4150E1
 4150ef       loc_4150EF
 41513d       loc_41513D
 415147       loc_415147
 415186       loc_415186
 4151f8       loc_4151F8
 415272       loc_415272
 4152de       loc_4152DE
 415301       loc_415301
 415323       loc_415323
 415333       loc_415333
 41534e       loc_41534E
 415355       loc_415355
 415389       loc_415389
 415394       loc_415394
 4153cd       loc_4153CD
 4153f5       loc_4153F5
 415405       loc_415405
 41540a       loc_41540A
 415423       loc_415423
 415438       loc_415438
 415463       loc_415463
 41547e       loc_41547E
 415508       loc_415508
 41550a       loc_41550A
 4155f0       loc_4155F0
 415634       loc_415634
 415643       loc_415643
 415675       loc_415675
 415677       loc_415677
 4156da       loc_4156DA
 4156ee       loc_4156EE
 4156f7       loc_4156F7
 4156fe       loc_4156FE
 41573e       loc_41573E
 41577d       loc_41577D
 4157a4       loc_4157A4
 41581b       loc_41581B
 415851       loc_415851
 41585c       loc_41585C
 415879       loc_415879
 41588e       loc_41588E
 4158ae       loc_4158AE
 4158c0       loc_4158C0
 4158d1       loc_4158D1
 4158db       loc_4158DB
 4158ef       loc_4158EF
 415944       loc_415944
 415949       loc_415949
 41597e       loc_41597E
 415987       loc_415987
 415996       loc_415996
 4159c9       loc_4159C9
 415a0d       loc_415A0D
 415a15       loc_415A15
 415a2a       loc_415A2A
 415a2f       loc_415A2F
 415a30       loc_415A30
 415a31       loc_415A31
 415a32       loc_415A32
 415a33       loc_415A33
 415a71       loc_415A71
 415a84       loc_415A84
 415a97       loc_415A97
 415acf       loc_415ACF
 415b1d       loc_415B1D
 415b2a       loc_415B2A
 415b3d       loc_415B3D
 415b64       loc_415B64
 415b74       loc_415B74
 415b90       off_415B90
 415ba8       off_415BA8
 415bd0       CWinFormUnit::OnSetCursor(CWnd_*,uint,uint)
 415bf7       loc_415BF7
 415c10       CWinFormUnit::SetAllUnitCursor(HWND___*)
 415c3a       loc_415C3A
 415c82       loc_415C82
 415cb2       loc_415CB2
 415cc3       loc_415CC3
 415d05       loc_415D05
 415d10       CWinFormUnit::OnMove(int,int)
 415d60       CWinFormUnit::OnRelayoutBar(uint,long)
 415d80       CWinFormUnit::RelayoutBarUnit(void)
 415e07       loc_415E07
 415e94       loc_415E94
 415ea3       loc_415EA3
 415ea9       loc_415EA9
 415eb5       loc_415EB5
 415f0b       loc_415F0B
 415f14       loc_415F14
 415f31       loc_415F31
 415f8c       loc_415F8C
 415f91       loc_415F91
 415fbf       loc_415FBF
 415fd0       CWinFormUnit::OnSize(uint,int,int)
 415fec       loc_415FEC
 416040       CWinFormUnit::IdleProcess(int)
 4160aa       loc_4160AA
 4160c0       CWinFormUnit::ShowWindowMax(void)
 4160e2       loc_4160E2
 4160fe       loc_4160FE
 416107       loc_416107
 416144       loc_416144
 416153       loc_416153
 416169       loc_416169
 416170       CWinFormUnit::InvalidateForm(CRect_*)
 4161a0       loc_4161A0
 4161c4       loc_4161C4
 416235       loc_416235
 416238       loc_416238
 41624b       loc_41624B
 416260       unknown_libname_220
 416270       unknown_libname_221
 416280       unknown_libname_222
 4162a0       sub_4162A0
 4162b0       CKrnlApp::StopMid(void)
 4162d0       loc_4162D0
 4162de       loc_4162DE
 4162fc       loc_4162FC
 416325       loc_416325
 416346       loc_416346
 416360       krnl_InitUserProgram(void)
 416370       sub_416370
 416380       _GetDllCmdAdr(int)
 4163a0       _krnl_MCallDllCmd
 4163b0       _krnl_MCallLibCmd
 4163f0       _krnl_MCallKrnlLibCmd
 416430       CKrnlApp::ProcessEvent(EVENT_NOTIFY_*)
 41646c       loc_41646C
 41647c       loc_41647C
 416485       loc_416485
 41649d       loc_41649D
 4164ce       loc_4164CE
 4164d3       loc_4164D3
 4164e0       CKrnlApp::ProcessEvent(EVENT_NOTIFY2_*)
 41651f       loc_41651F
 41652f       loc_41652F
 416538       loc_416538
 416573       loc_416573
 41658c       loc_41658C
 4165b7       loc_4165B7
 4165f8       loc_4165F8
 41660f       loc_41660F
 41661e       loc_41661E
 416629       loc_416629
 416644       loc_416644
 416658       loc_416658
 41666c       loc_41666C
 416672       loc_416672
 416678       loc_416678
 41667e       loc_41667E
 41669f       loc_41669F
 4166a7       loc_4166A7
 4166b0       loc_4166B0
 4166b8       loc_4166B8
 41670b       loc_41670B
 416710       loc_416710
 416720       _krnl_MReportError
 416740       _krnl_MReadProperty
 416760       _krnl_MWriteProperty
 416790       _krnl_MMessageLoop
 4167b8       loc_4167B8
 4167c0       _krnl_MLoadBeginWin
 4167e0       _krnl_MMallocNoCheck
 416800       _krnl_MMalloc
 41682c       loc_41682C
 416840       AFXSetTopLevelFrame(CFrameWnd_*)
 416850       _krnl_MExitProcess
 416870       _krnl_MRealloc
 41688f       loc_41688F
 4168d2       loc_4168D2
 4168d7       loc_4168D7
 4168f9       loc_4168F9
 416902       loc_416902
 41691c       loc_41691C
 416930       _krnl_MFree
 41695e       loc_41695E
 416960       IsFileExist(char_const_*)
 41698e       loc_41698E
 4169a0       witoa(int,char_*)
 4169c0       tcsrchr(char_*,char)
 4169e3       loc_4169E3
 4169fb       loc_4169FB
 416a01       loc_416A01
 416a06       loc_416A06
 416a10       ChangeFileExt(CString_&,char_const_*)
 416a7b       loc_416A7B
 416ab0       GetDataTypeType(ulong)
 416ab9       loc_416AB9
 416acb       loc_416ACB
 416ae0       GetKey(tagMSG_*)
 416af9       loc_416AF9
 416b10       ProcessKeyMsg(tagMSG_*)
 416b39       loc_416B39
 416b3f       loc_416B3F
 416b4e       loc_416B4E
 416b63       loc_416B63
 416b78       loc_416B78
 416b7e       loc_416B7E
 416b8b       loc_416B8B
 416b98       loc_416B98
 416bb0       ChkDateTime(int_&,int_&,int_&,int_&,int_&,int_&)
 416bcb       loc_416BCB
 416bd0       loc_416BD0
 416bd5       loc_416BD5
 416bee       loc_416BEE
 416bf3       loc_416BF3
 416bf8       loc_416BF8
 416c11       loc_416C11
 416c16       loc_416C16
 416c1b       loc_416C1B
 416c30       loc_416C30
 416c35       loc_416C35
 416c3a       loc_416C3A
 416c4f       loc_416C4F
 416c54       loc_416C54
 416c59       loc_416C59
 416c6e       loc_416C6E
 416c73       loc_416C73
 416c78       loc_416C78
 416c98       loc_416C98
 416caa       loc_416CAA
 416cb8       loc_416CB8
 416cbd       loc_416CBD
 416cc8       loc_416CC8
 416cd0       IsWavData(uchar_*,int)
 416d12       loc_416D12
 416d30       unknown_libname_223
 416d50       FloatToDouble(float)
 416d9f       loc_416D9F
 416da2       loc_416DA2
 416dc4       loc_416DC4
 416de6       loc_416DE6
 416dec       loc_416DEC
 416e19       loc_416E19
 416e34       loc_416E34
 416e40       loc_416E40
 416e4a       loc_416E4A
 416e60       ftoa(float,char_*)
 416ef0       dtoa(double,char_*)
 416f80       SetOleDateTime(COleDateTime_&,double)
 416fc6       loc_416FC6
 416fea       loc_416FEA
 417010       GetDateTimeStr(double,char_*)
 4170c6       loc_4170C6
 4170e1       loc_4170E1
 4170f9       loc_4170F9
 417122       loc_417122
 417130       CCStrToEg(char_*,CFreqMem_&,int)
 41714e       loc_41714E
 417186       loc_417186
 417194       loc_417194
 41719b       loc_41719B
 4171a4       loc_4171A4
 4171a9       loc_4171A9
 4171b0       loc_4171B0
 4171b5       loc_4171B5
 4171c1       loc_4171C1
 4171d0       StrToDateTime(char_*,double_*)
 417241       loc_417241
 417271       loc_417271
 41729e       loc_41729E
 41729f       loc_41729F
 4172a1       loc_4172A1
 4172d1       loc_4172D1
 417300       loc_417300
 417301       loc_417301
 417305       loc_417305
 417309       loc_417309
 417339       loc_417339
 417373       loc_417373
 417374       loc_417374
 41737e       loc_41737E
 417382       loc_417382
 4173b2       loc_4173B2
 4173df       loc_4173DF
 4173e0       loc_4173E0
 4173e8       loc_4173E8
 417419       loc_417419
 417446       loc_417446
 417447       loc_417447
 41744f       loc_41744F
 41747f       loc_41747F
 417497       loc_417497
 417551       loc_417551
 417580       GetFontPoint(tagLOGFONTA_*)
 4175d0       AddInt(int_*,int,int,int)
 4175f2       loc_4175F2
 4175fd       loc_4175FD
 417603       loc_417603
 417607       loc_417607
 417610       CCToEg(ushort)
 417625       loc_417625
 41762c       loc_41762C
 417634       loc_417634
 417637       loc_417637
 417648       loc_417648
 417650       AddInt(int_*,int,int)
 41766e       loc_41766E
 41767b       loc_41767B
 41767e       loc_41767E
 417690       FindSmallOrEqvInt(int_*,int,int)
 4176b1       loc_4176B1
 4176bf       loc_4176BF
 4176c2       loc_4176C2
 4176c9       loc_4176C9
 4176d0       AddComboStrings(CComboBox_*,char_*)
 4176e7       loc_4176E7
 417710       loc_417710
 417720       FormatText(char_*,...)
 4177a0       GetWinCursorType(int)
 4177b7       locret_4177B7
 4177c0       CreateIconFromData(uchar_*,int,int)
 41784a       loc_41784A
 41785d       loc_41785D
 41788b       loc_41788B
 41789c       loc_41789C
 4178b0       CenterPaintBmpRes(CWnd_*,uint)
 4179e7       loc_4179E7
 417abd       loc_417ABD
 417afe       loc_417AFE
 417b07       loc_417B07
 417b40       DNameNode::DNameNode(void)
 417b50       ShowErrorMsg(char_const_*)
 417b70       GetWinCursorTypeIndex(int)
 417b86       loc_417B86
 417b92       loc_417B92
 417b94       loc_417B94
 417ba0       CreateMyCursor(uchar_*,int)
 417bc0       loc_417BC0
 417bc6       loc_417BC6
 417bde       loc_417BDE
 417bf9       loc_417BF9
 417c1d       loc_417C1D
 417c2d       loc_417C2D
 417c39       loc_417C39
 417c3b       loc_417C3B
 417c3f       loc_417C3F
 417c4c       loc_417C4C
 417c60       SetUnit(CDC_*,int)
 417c78       loc_417C78
 417c88       loc_417C88
 417c8e       loc_417C8E
 417c99       loc_417C99
 417c9f       loc_417C9F
 417caa       loc_417CAA
 417cae       loc_417CAE
 417cb3       loc_417CB3
 417d06       loc_417D06
 417d16       loc_417D16
 417d35       loc_417D35
 417d45       loc_417D45
 417d4c       off_417D4C
 417d70       LoadTwoIcon(HINSTANCE___*,char_const_*,HICON___*_*,HICON___*_*)
 417db0       IsShareError(CFileException_*)
 417dc4       loc_417DC4
 417dd0       wait(void)
 417df0       GetInstancePath(HINSTANCE___*,CString_&)
 417e2a       loc_417E2A
 417e50       SetFontPoint(tagLOGFONTA_*,int)
 417ea0       MGetStretchMode(void)
 417ec7       loc_417EC7
 417ecc       loc_417ECC
 417ee0       ConvertNanFangPY(uchar,uchar,int)
 417f11       loc_417F11
 417f18       loc_417F18
 417f1f       loc_417F1F
 417f26       loc_417F26
 417f30       loc_417F30
 417f3a       loc_417F3A
 417f44       loc_417F44
 417f4e       loc_417F4E
 417f58       loc_417F58
 417f62       loc_417F62
 417f6c       loc_417F6C
 417f7b       loc_417F7B
 417f8a       loc_417F8A
 417f8f       locret_417F8F
 417f90       CCryptFile::CCryptFile(char_const_*,int)
 417ff0       CCryptFile::SetPassword(char_const_*,int)
 41809b       loc_41809B
 4180b0       CCryptFile::Read(void_*,uint)
 4180cf       loc_4180CF
 4180fe       loc_4180FE
 418110       CCryptFile::Write(void_const_*,uint)
 418158       loc_418158
 4181d2       loc_4181D2
 4181f0       prepare_key(uchar_*,int,rc4_key_*)
 4181fe       loc_4181FE
 418216       loc_418216
 418248       loc_418248
 41827a       loc_41827A
 4182a7       loc_4182A7
 4182b0       skip(int,rc4_key_*)
 4182e5       loc_4182E5
 4182f5       loc_4182F5
 418320       rc4(uchar_*,int,rc4_key_*)
 41835a       loc_41835A
 418373       loc_418373
 4183a0       CCryptFile::CallRC4(int,uchar_*,int,int)
 4183bb       loc_4183BB
 4183c7       loc_4183C7
 4183f0       loc_4183F0
 418494       loc_418494
 4184e3       loc_4184E3
 41850c       loc_41850C
 41850f       loc_41850F
 418576       loc_418576
 41858a       loc_41858A
 4185a0       CCryptFile::NewGetMD5(uchar_*,uint,char_*)
 4185bb       loc_4185BB
 4185cd       loc_4185CD
 4185d8       loc_4185D8
 4185f0       CInputEdit::OnChar(uint,uint,uint)
 418613       loc_418613
 41862c       loc_41862C
 418631       locret_418631
 418640       CPrintStatusDlg::PreClose(void)
 418672       loc_418672
 418686       loc_418686
 418693       loc_418693
 41869b       loc_41869B
 4186a0       CDaoRecordset::ResetCursor(void)
 4186c0       CInputPanel::OnLButtonDown(uint,CPoint)
 418702       loc_418702
 418710       CInputPanel::OnMouseMove(uint,CPoint)
 4187c5       loc_4187C5
 4187e1       loc_4187E1
 418803       loc_418803
 418827       loc_418827
 41883e       loc_41883E
 418850       CMFCColorPickerCtrl::OnLButtonUp(uint,CPoint)
 418869       loc_418869
 418880       CBrowDlg::OnDestroy(void)
 4188dd       loc_4188DD
 418904       loc_418904
 418920       CBrowDlg::SetFocusMark(CWnd_*,int)
 418950       locret_418950
 418960       CBrowDlg::ShowControl(CWnd_*)
 4189c0       loc_4189C0
 4189d6       loc_4189D6
 418a45       loc_418A45
 418a55       loc_418A55
 418a65       loc_418A65
 418a75       loc_418A75
 418ac6       loc_418AC6
 418ade       loc_418ADE
 418af8       loc_418AF8
 418b10       loc_418B10
 418b45       loc_418B45
 418b50       CBrowDlg::SetCaption(void)
 418ba0       loc_418BA0
 418ba6       loc_418BA6
 418bb9       loc_418BB9
 418be8       loc_418BE8
 418c02       loc_418C02
 418c3c       loc_418C3C
 418c7a       loc_418C7A
 418cb0       CBrowDlg::WriteCurRecord(void)
 418d12       loc_418D12
 418d18       loc_418D18
 418d2f       loc_418D2F
 418d38       loc_418D38
 418d6a       loc_418D6A
 418da4       loc_418DA4
 418dd0       loc_418DD0
 418def       loc_418DEF
 418e02       loc_418E02
 418e35       loc_418E35
 418e55       loc_418E55
 418e69       loc_418E69
 418e82       loc_418E82
 418e9c       loc_418E9C
 418eaf       loc_418EAF
 418ec8       loc_418EC8
 418edb       loc_418EDB
 418ef1       loc_418EF1
 418f04       loc_418F04
 418f14       loc_418F14
 418f24       loc_418F24
 418f33       loc_418F33
 418f4f       loc_418F4F
 418f64       loc_418F64
 418f7f       loc_418F7F
 418f93       loc_418F93
 418fa0       loc_418FA0
 418fa7       loc_418FA7
 418fae       loc_418FAE
 418fb5       loc_418FB5
 418fb9       loc_418FB9
 418fc0       loc_418FC0
 418fc3       loc_418FC3
 418fdd       loc_418FDD
 418ffc       loc_418FFC
 419021       loc_419021
 419027       loc_419027
 419062       loc_419062
 419078       loc_419078
 41909a       loc_41909A
 4190fc       loc_4190FC
 419123       loc_419123
 41912c       loc_41912C
 41912f       loc_41912F
 419159       loc_419159
 419178       loc_419178
 41917b       loc_41917B
 419193       loc_419193
 4191b3       loc_4191B3
 4191c7       loc_4191C7
 4191cd       loc_4191CD
 4191d1       loc_4191D1
 4191ef       loc_4191EF
 4191ff       loc_4191FF
 419205       loc_419205
 41926f       loc_41926F
 41929d       loc_41929D
 4192d1       loc_4192D1
 4192de       loc_4192DE
 4192e5       loc_4192E5
 4192ec       loc_4192EC
 4192f3       loc_4192F3
 4192f7       loc_4192F7
 4192fe       loc_4192FE
 419301       loc_419301
 41933d       loc_41933D
 4193b8       loc_4193B8
 4193bf       loc_4193BF
 4193cd       loc_4193CD
 419402       loc_419402
 419411       loc_419411
 419414       loc_419414
 419429       loc_419429
 41943e       loc_41943E
 419483       sub_419483
 41949e       sub_41949E
 4194b4       off_4194B4
 4194dc       off_4194DC
 41950c       off_41950C
 419540       CBrowDlg::ProcessButton(int)
 419597       loc_419597
 4195c6       loc_4195C6
 4195df       loc_4195DF
 4195ff       loc_4195FF
 419619       loc_419619
 419628       loc_419628
 419629       loc_419629
 419633       loc_419633
 419650       loc_419650
 41969a       loc_41969A
 41969d       loc_41969D
 4196a7       loc_4196A7
 4196c1       loc_4196C1
 4196c7       loc_4196C7
 4196cb       loc_4196CB
 419749       loc_419749
 419770       CModiMemoBin::~CModiMemoBin(void)
 419800       sub_419800
 419818       loc_419818
 419820       CFieldEdit::OnSetfocus(void)
 419840       CFieldEdit::OnKillfocus(void)
 419895       loc_419895
 4198c1       loc_4198C1
 4198df       loc_4198DF
 4198f1       loc_4198F1
 419923       loc_419923
 41993e       loc_41993E
 419958       loc_419958
 419973       loc_419973
 419982       loc_419982
 41999c       loc_41999C
 4199a7       loc_4199A7
 4199b8       loc_4199B8
 4199cb       loc_4199CB
 4199ee       loc_4199EE
 419a10       loc_419A10
 419a2d       loc_419A2D
 419a6d       loc_419A6D
 419a71       loc_419A71
 419a91       loc_419A91
 419af3       loc_419AF3
 419b0f       loc_419B0F
 419b34       off_419B34
 419b60       CFieldEdit::OnChar(uint,uint,uint)
 419b7b       loc_419B7B
 419b88       loc_419B88
 419ba1       loc_419BA1
 419ba6       locret_419BA6
 419bb0       CFieldBtn::OnSetFocus(CWnd_*)
 419bd0       CFieldBtn::OnKillFocus(CWnd_*)
 419bf0       CFieldBtn::OnClicked(void)
 419c34       loc_419C34
 419c44       loc_419C44
 419c50       CFieldLabel::OnPaint(void)
 419d00       CModiMemoBin::CModiMemoBin(CWnd_*)
 419dc0       CModiMemoBin::`scalar_deleting_destructor'(uint)
 419dd8       loc_419DD8
 419de0       CModiMemoBin::DoDataExchange(CDataExchange_*)
 419e20       sub_419E20
 419e30       CModiMemoBin::ShowData(void)
 419e7c       loc_419E7C
 419e90       loc_419E90
 419ea5       loc_419EA5
 419ed8       loc_419ED8
 419ee7       loc_419EE7
 419efb       loc_419EFB
 419f07       loc_419F07
 419f0a       loc_419F0A
 419f1f       loc_419F1F
 419f60       loc_419F60
 419f6b       loc_419F6B
 419f9a       loc_419F9A
 419fdb       loc_419FDB
 419ff4       loc_419FF4
 419ff7       loc_419FF7
 41a000       loc_41A000
 41a073       loc_41A073
 41a0b0       CModiMemoBin::OnInitDialog(void)
 41a0e1       loc_41A0E1
 41a0f1       loc_41A0F1
 41a106       loc_41A106
 41a124       loc_41A124
 41a12b       loc_41A12B
 41a130       loc_41A130
 41a16a       loc_41A16A
 41a17f       loc_41A17F
 41a185       loc_41A185
 41a197       loc_41A197
 41a1f4       loc_41A1F4
 41a1f6       loc_41A1F6
 41a2ab       loc_41A2AB
 41a2b8       loc_41A2B8
 41a397       loc_41A397
 41a424       loc_41A424
 41a42c       loc_41A42C
 41a437       loc_41A437
 41a43c       loc_41A43C
 41a460       CModiMemoBin::InOrOut(int)
 41a4b0       loc_41A4B0
 41a4c9       loc_41A4C9
 41a4dc       loc_41A4DC
 41a4ea       loc_41A4EA
 41a5a6       loc_41A5A6
 41a5a9       loc_41A5A9
 41a5cc       loc_41A5CC
 41a5d5       loc_41A5D5
 41a5de       loc_41A5DE
 41a5fb       loc_41A5FB
 41a5fe       loc_41A5FE
 41a612       loc_41A612
 41a61e       loc_41A61E
 41a62a       loc_41A62A
 41a646       loc_41A646
 41a657       loc_41A657
 41a6b0       CModiMemoBin::OnIn(void)
 41a6bd       locret_41A6BD
 41a6c0       CModiMemoBin::OnOut(void)
 41a6d0       CModiMemoBin::OnPlaySound(void)
 41a6ff       loc_41A6FF
 41a702       loc_41A702
 41a71d       loc_41A71D
 41a734       loc_41A734
 41a764       loc_41A764
 41a777       loc_41A777
 41a780       CModiMemoBin::OnStopPlayCurSound(void)
 41a7a2       loc_41A7A2
 41a7a5       loc_41A7A5
 41a7c0       loc_41A7C0
 41a7da       loc_41A7DA
 41a7ed       loc_41A7ED
 41a7f0       CModiMemoBin::OnClear(void)
 41a82d       loc_41A82D
 41a839       loc_41A839
 41a847       loc_41A847
 41a850       CModiMemoBin::SaveCurMemoData(void)
 41a8c3       loc_41A8C3
 41a8e0       CModiMemoBin::OnOK(void)
 41a8f5       loc_41A8F5
 41a900       NewCreateSpecMenu(uchar_*,int,ulong,int,HACCEL___*_*,int)
 41a927       loc_41A927
 41a965       loc_41A965
 41a995       loc_41A995
 41a9b9       loc_41A9B9
 41a9db       loc_41A9DB
 41aa09       loc_41AA09
 41aa0c       loc_41AA0C
 41aa15       loc_41AA15
 41aa4a       loc_41AA4A
 41aa5f       loc_41AA5F
 41aa6c       loc_41AA6C
 41aaa0       GetQuickKeyName(int)
 41aab5       loc_41AAB5
 41aac0       InsertMenuA(HMENU___*,uchar_*_&,int_&,int,CMyDWordArray_*,int)
 41ab54       loc_41AB54
 41ab5a       loc_41AB5A
 41aba9       loc_41ABA9
 41abfd       loc_41ABFD
 41ac23       loc_41AC23
 41ac3e       loc_41AC3E
 41ac52       loc_41AC52
 41ac5b       loc_41AC5B
 41acc1       loc_41ACC1
 41ace3       loc_41ACE3
 41acea       loc_41ACEA
 41ad17       loc_41AD17
 41ad1a       loc_41AD1A
 41ad52       loc_41AD52
 41ad62       loc_41AD62
 41ada9       loc_41ADA9
 41adb8       loc_41ADB8
 41adc7       loc_41ADC7
 41adfd       loc_41ADFD
 41ae22       loc_41AE22
 41ae26       loc_41AE26
 41ae38       loc_41AE38
 41ae49       loc_41AE49
 41ae82       loc_41AE82
 41aeb2       loc_41AEB2
 41aef2       loc_41AEF2
 41aef6       loc_41AEF6
 41af30       DDBToDIB(CBitmap_&,ulong,CPalette_*)
 41af82       loc_41AF82
 41af8c       loc_41AF8C
 41b023       loc_41B023
 41b0a2       loc_41B0A2
 41b10b       loc_41B10B
 41b131       loc_41B131
 41b149       loc_41B149
 41b15a       loc_41B15A
 41b170       WriteDIB(CFreqMem_&,void_*)
 41b1cc       loc_41B1CC
 41b23b       loc_41B23B
 41b247       loc_41B247
 41b253       loc_41B253
 41b270       WriteBitmap(CBitmap_&,CFreqMem_&,int,int)
 41b2ca       loc_41B2CA
 41b2da       loc_41B2DA
 41b2e6       loc_41B2E6
 41b2f7       loc_41B2F7
 41b305       loc_41B305
 41b30f       loc_41B30F
 41b311       loc_41B311
 41b3a5       loc_41B3A5
 41b3cd       loc_41B3CD
 41b4c8       loc_41B4C8
 41b4da       loc_41B4DA
 41b533       loc_41B533
 41b55a       loc_41B55A
 41b56f       loc_41B56F
 41b5d0       sub_41B5D0
 41b5e8       loc_41B5E8
 41b5f0       unknown_libname_224
 41b630       GetBitmapData(HBITMAP___*)
 41b738       loc_41B738
 41b767       loc_41B767
 41b780       CJBPic::CJBPic(void)
 41b820       CJBPic::init(void)
 41b840       CJBPic::Serialize(CArchive_&)
 41b883       loc_41B883
 41b8dc       loc_41B8DC
 41b8ff       loc_41B8FF
 41b939       loc_41B939
 41b967       loc_41B967
 41b995       loc_41B995
 41b9c3       loc_41B9C3
 41b9e2       loc_41B9E2
 41b9e8       loc_41B9E8
 41b9ff       loc_41B9FF
 41ba20       loc_41BA20
 41ba41       loc_41BA41
 41ba77       loc_41BA77
 41ba9d       loc_41BA9D
 41bad6       loc_41BAD6
 41baff       loc_41BAFF
 41bb28       loc_41BB28
 41bb51       loc_41BB51
 41bb9e       loc_41BB9E
 41bc08       loc_41BC08
 41bc20       CJBPic::Create(int,tagSIZE,ulong_*,int,tagRECT_*)
 41bc53       loc_41BC53
 41bc66       loc_41BC66
 41bc74       loc_41BC74
 41bc7c       loc_41BC7C
 41bc84       loc_41BC84
 41bca3       loc_41BCA3
 41bcaf       loc_41BCAF
 41bcb7       loc_41BCB7
 41bce6       loc_41BCE6
 41bce9       loc_41BCE9
 41bd33       loc_41BD33
 41bd36       loc_41BD36
 41bd5d       loc_41BD5D
 41bd70       loc_41BD70
 41bd81       loc_41BD81
 41bd88       loc_41BD88
 41bdbe       loc_41BDBE
 41bdef       loc_41BDEF
 41be1c       loc_41BE1C
 41be3e       loc_41BE3E
 41be54       loc_41BE54
 41be80       loc_41BE80
 41bea5       loc_41BEA5
 41beca       loc_41BECA
 41bef7       loc_41BEF7
 41bf05       loc_41BF05
 41bf24       loc_41BF24
 41bf40       loc_41BF40
 41bf6d       loc_41BF6D
 41bf7b       loc_41BF7B
 41bf9a       loc_41BF9A
 41bfac       loc_41BFAC
 41bff6       loc_41BFF6
 41c005       loc_41C005
 41c039       loc_41C039
 41c066       loc_41C066
 41c078       loc_41C078
 41c0b1       loc_41C0B1
 41c0c1       loc_41C0C1
 41c0e6       loc_41C0E6
 41c11a       loc_41C11A
 41c12c       loc_41C12C
 41c17d       loc_41C17D
 41c18d       loc_41C18D
 41c1b6       loc_41C1B6
 41c1e3       loc_41C1E3
 41c1f5       loc_41C1F5
 41c228       loc_41C228
 41c241       loc_41C241
 41c26a       loc_41C26A
 41c28b       loc_41C28B
 41c29c       off_41C29C
 41c2c0       CJBPic::GetColor(int,int,uchar_*,uchar_*,uchar_*)
 41c2e7       loc_41C2E7
 41c2ee       loc_41C2EE
 41c303       loc_41C303
 41c309       loc_41C309
 41c32e       loc_41C32E
 41c33a       loc_41C33A
 41c360       loc_41C360
 41c36e       loc_41C36E
 41c374       loc_41C374
 41c389       loc_41C389
 41c38f       loc_41C38F
 41c440       CJBPic::CreateBitmap(CDC_*)
 41c44b       loc_41C44B
 41c44e       loc_41C44E
 41c4c5       loc_41C4C5
 41c4d0       CJBPic::draw(CDC_*,int,int,ulong)
 41c511       loc_41C511
 41c529       loc_41C529
 41c56c       loc_41C56C
 41c610       CJBPic::FillRect(CDC_*,CRect_const_*,CRect_const_*,int,ulong_*,int,ulong)
 41c697       loc_41C697
 41c6b4       loc_41C6B4
 41c6c9       loc_41C6C9
 41c6dd       loc_41C6DD
 41c6e9       loc_41C6E9
 41c728       loc_41C728
 41c7e8       loc_41C7E8
 41c801       loc_41C801
 41c812       loc_41C812
 41c81a       loc_41C81A
 41c831       loc_41C831
 41c840       CJBPic::DrawRect(CDC_*,CRect_const_*,int,CRect_const_*,tagSIZE_const_&,ulong_*,int,int,ulong)
 41c8ee       loc_41C8EE
 41c920       loc_41C920
 41c92f       loc_41C92F
 41c966       loc_41C966
 41c9b3       loc_41C9B3
 41c9bd       loc_41C9BD
 41c9e5       loc_41C9E5
 41ca14       loc_41CA14
 41ca30       loc_41CA30
 41ca32       loc_41CA32
 41ca4d       loc_41CA4D
 41ca7e       loc_41CA7E
 41ca8d       loc_41CA8D
 41caa6       loc_41CAA6
 41cabe       loc_41CABE
 41cacb       loc_41CACB
 41cc70       loc_41CC70
 41ccd5       loc_41CCD5
 41ccde       loc_41CCDE
 41cd63       loc_41CD63
 41cd79       loc_41CD79
 41cd82       loc_41CD82
 41cdd0       CStream::Read(uchar_*,int)
 41ce39       sub_41CE39
 41ce45       loc_41CE45
 41ce70       BGRFromRGB(uchar_*,uint,uint)
 41ce7d       loc_41CE7D
 41ce8e       loc_41CE8E
 41ce96       loc_41CE96
 41cea6       loc_41CEA6
 41ceb1       loc_41CEB1
 41cec0       VertFlipBuf(uchar_*,uint,uint)
 41ced9       loc_41CED9
 41cef8       loc_41CEF8
 41cf1e       loc_41CF1E
 41cf31       loc_41CF31
 41cfac       loc_41CFAC
 41cfd0       MakeDwordAlignedBuf(uchar_*,uint,uint,uint_*)
 41cfe1       loc_41CFE1
 41d013       loc_41D013
 41d029       loc_41D029
 41d053       loc_41D053
 41d05d       loc_41D05D
 41d070       LoadPicFile(x)
 41d09d       loc_41D09D
 41d0aa       loc_41D0AA
 41d0b7       loc_41D0B7
 41d0c6       loc_41D0C6
 41d0d3       loc_41D0D3
 41d0db       loc_41D0DB
 41d0e2       loc_41D0E2
 41d0ec       off_41D0EC
 41d110       LoadPicData(x,x)
 41d162       loc_41D162
 41d16e       loc_41D16E
 41d17a       loc_41D17A
 41d188       loc_41D188
 41d194       loc_41D194
 41d19e       loc_41D19E
 41d1a0       loc_41D1A0
 41d1b4       loc_41D1B4
 41d1c0       off_41D1C0
 41d1e0       BeginDrawPic(x,x,x)
 41d318       loc_41D318
 41d34a       loc_41D34A
 41d37c       loc_41D37C
 41d3fe       loc_41D3FE
 41d412       loc_41D412
 41d427       loc_41D427
 41d440       DrawPic(x,x,x,x,x,x)
 41d4cf       loc_41D4CF
 41d4d2       loc_41D4D2
 41d4ed       loc_41D4ED
 41d4f0       loc_41D4F0
 41d505       loc_41D505
 41d508       loc_41D508
 41d5bc       loc_41D5BC
 41d5ce       loc_41D5CE
 41d684       loc_41D684
 41d69a       loc_41D69A
 41d6ea       loc_41D6EA
 41d70e       loc_41D70E
 41d71a       loc_41D71A
 41d75e       loc_41D75E
 41d76a       loc_41D76A
 41d776       loc_41D776
 41d7a0       EndDrawPic(x)
 41d7ba       loc_41D7BA
 41d7cb       loc_41D7CB
 41d7d0       Draw(x,x,x,x,x,x)
 41d833       loc_41D833
 41d840       GetHBitmap(x,x)
 41d86a       loc_41D86A
 41d883       loc_41D883
 41d8d7       loc_41D8D7
 41d986       loc_41D986
 41d989       loc_41D989
 41d9b9       loc_41D9B9
 41d9c3       loc_41D9C3
 41d9df       loc_41D9DF
 41d9f2       loc_41D9F2
 41da10       LoadJPGFile(x)
 41da46       loc_41DA46
 41da70       AllocMem(int)
 41da80       LoadJPG(x)
 41dabc       loc_41DABC
 41dabe       loc_41DABE
 41dafd       loc_41DAFD
 41db10       loc_41DB10
 41db19       loc_41DB19
 41db25       loc_41DB25
 41db70       sub_41DB70
 41db88       loc_41DB88
 41db90       sub_41DB90
 41dba0       sub_41DBA0
 41dbb0       std::locale::facet::`scalar_deleting_destructor'(uint)
 41dbca       loc_41DBCA
 41dbd0       LoadBMPFile(x)
 41dc06       loc_41DC06
 41dc30       LoadPcxFile(x)
 41dc66       loc_41DC66
 41dc90       LoadBMP(x)
 41dcb9       loc_41DCB9
 41dcbb       loc_41DCBB
 41dcf5       loc_41DCF5
 41dd08       loc_41DD08
 41dd11       loc_41DD11
 41dd1a       loc_41DD1A
 41dd60       GetPicFileType(x)
 41dd96       loc_41DD96
 41ddc0       GetPicDataType(x,x)
 41dde8       loc_41DDE8
 41ddfc       loc_41DDFC
 41de1e       loc_41DE1E
 41de39       loc_41DE39
 41de5d       loc_41DE5D
 41de6c       loc_41DE6C
 41de8b       loc_41DE8B
 41dea9       loc_41DEA9
 41deb0       GetPicType(x)
 41df32       loc_41DF32
 41df35       loc_41DF35
 41df56       sub_41DF56
 41df70       LoadIcoFile(x,x)
 41dfa6       loc_41DFA6
 41dfd0       LoadIco(x,x)
 41e03c       loc_41E03C
 41e064       loc_41E064
 41e0a6       loc_41E0A6
 41e0ae       loc_41E0AE
 41e0b5       loc_41E0B5
 41e0b8       loc_41E0B8
 41e0f4       loc_41E0F4
 41e117       loc_41E117
 41e119       loc_41E119
 41e164       loc_41E164
 41e194       loc_41E194
 41e1a7       loc_41E1A7
 41e1a8       loc_41E1A8
 41e1b0       loc_41E1B0
 41e1be       loc_41E1BE
 41e1ef       loc_41E1EF
 41e1fb       loc_41E1FB
 41e217       loc_41E217
 41e230       LoadGifFile(x)
 41e266       loc_41E266
 41e290       LoadGif(x)
 41e2f7       loc_41E2F7
 41e31e       loc_41E31E
 41e387       loc_41E387
 41e3d5       loc_41E3D5
 41e3f2       loc_41E3F2
 41e3fe       loc_41E3FE
 41e41a       loc_41E41A
 41e430       sub_41E430
 41e440       sub_41E440
 41e450       CPicWnd::OnPaint(void)
 41e4e7       loc_41E4E7
 41e560       loc_41E560
 41e590       loc_41E590
 41e5cc       loc_41E5CC
 41e5e7       loc_41E5E7
 41e5ef       loc_41E5EF
 41e61e       loc_41E61E
 41e65c       loc_41E65C
 41e666       loc_41E666
 41e66c       loc_41E66C
 41e67f       loc_41E67F
 41e6b0       CPicWnd::PostNcDestroy(void)
 41e6c9       loc_41E6C9
 41e6d6       loc_41E6D6
 41e6e0       CPicWnd::AutoSizeWnd(void)
 41e707       loc_41E707
 41e74b       loc_41E74B
 41e792       loc_41E792
 41e7a0       CPicWnd::Empty(void)
 41e7d2       loc_41E7D2
 41e7e5       loc_41E7E5
 41e7f4       loc_41E7F4
 41e800       CPicWnd::EmptyData(void)
 41e820       CPicWnd::PutData(uchar_*,int)
 41e8ab       loc_41E8AB
 41e8ba       loc_41E8BA
 41e8d8       loc_41E8D8
 41e8f8       loc_41E8F8
 41e940       loc_41E940
 41e950       loc_41E950
 41e96b       loc_41E96B
 41e975       loc_41E975
 41e984       loc_41E984
 41e997       loc_41E997
 41e9ba       loc_41E9BA
 41e9c6       loc_41E9C6
 41e9dc       off_41E9DC
 41ea00       LoadPcx(x)
 41ea64       loc_41EA64
 41ea85       loc_41EA85
 41eab8       sub_41EAB8
 41ead0       LoadPcxData(uchar_*,int)
 41eb7b       loc_41EB7B
 41ebb7       loc_41EBB7
 41ebe3       loc_41EBE3
 41ebe9       loc_41EBE9
 41ec6e       loc_41EC6E
 41ec81       loc_41EC81
 41ecf2       loc_41ECF2
 41ecf6       loc_41ECF6
 41ed04       loc_41ED04
 41ed05       loc_41ED05
 41ed16       loc_41ED16
 41ed43       loc_41ED43
 41ed52       loc_41ED52
 41ed6d       loc_41ED6D
 41ed89       loc_41ED89
 41ed98       loc_41ED98
 41edb0       LoadBWPcx(uchar_*,int)
 41ee0e       loc_41EE0E
 41ee15       loc_41EE15
 41ee24       loc_41EE24
 41ee2b       loc_41EE2B
 41ee4c       loc_41EE4C
 41eea1       loc_41EEA1
 41eeb0       loc_41EEB0
 41ef06       loc_41EF06
 41ef11       loc_41EF11
 41ef14       loc_41EF14
 41ef25       loc_41EF25
 41ef3e       loc_41EF3E
 41ef48       loc_41EF48
 41ef60       CreateCursorFromData(uchar_*,ulong)
 41f04a       loc_41F04A
 41f060       CMIDI::CMIDI(void)
 41f100       std::ios_base::`scalar_deleting_destructor'(uint)
 41f118       loc_41F118
 41f120       std::ios_base::~ios_base(void)
 41f15b       loc_41F15B
 41f172       loc_41F172
 41f180       loc_41F180
 41f1f0       CMIDI::Empty(void)
 41f213       loc_41F213
 41f220       CMIDI::init(void)
 41f27e       loc_41F27E
 41f297       loc_41F297
 41f2ad       loc_41F2AD
 41f2bb       loc_41F2BB
 41f2d9       loc_41F2D9
 41f2f2       loc_41F2F2
 41f340       CMIDI::IsMIDIData(uchar_*,ulong)
 41f359       loc_41F359
 41f360       CMIDI::Create(void_*,ulong,CWnd_*)
 41f375       loc_41F375
 41f38b       loc_41F38B
 41f397       loc_41F397
 41f3d1       loc_41F3D1
 41f46f       loc_41F46F
 41f485       loc_41F485
 41f4ad       loc_41F4AD
 41f4cd       loc_41F4CD
 41f4dc       loc_41F4DC
 41f53c       loc_41F53C
 41f554       loc_41F554
 41f563       loc_41F563
 41f587       loc_41F587
 41f595       loc_41F595
 41f5c1       loc_41F5C1
 41f5c5       loc_41F5C5
 41f5cd       loc_41F5CD
 41f5e5       loc_41F5E5
 41f5f0       loc_41F5F0
 41f5fe       loc_41F5FE
 41f608       loc_41F608
 41f620       CMIDI::Play(int)
 41f638       loc_41F638
 41f648       loc_41F648
 41f65d       loc_41F65D
 41f679       loc_41F679
 41f690       CMIDI::Stop(int)
 41f6a6       loc_41F6A6
 41f6c1       loc_41F6C1
 41f6df       loc_41F6DF
 41f6fd       loc_41F6FD
 41f716       loc_41F716
 41f71b       loc_41F71B
 41f755       loc_41F755
 41f75d       loc_41F75D
 41f772       loc_41F772
 41f789       loc_41F789
 41f7a0       CMIDI::Continue(void)
 41f7cd       loc_41F7CD
 41f7e0       CMIDI::Rewind(void)
 41f7ed       loc_41F7ED
 41f7f4       loc_41F7F4
 41f7ff       loc_41F7FF
 41f82d       loc_41F82D
 41f840       loc_41F840
 41f84b       loc_41F84B
 41f860       CMIDI::ConvertToBuffer(ulong,CONVERTINFO_*)
 41f89f       loc_41F89F
 41f8c3       loc_41F8C3
 41f8cf       loc_41F8CF
 41f8df       loc_41F8DF
 41f903       loc_41F903
 41f91b       loc_41F91B
 41f932       loc_41F932
 41f948       loc_41F948
 41f96c       loc_41F96C
 41f980       loc_41F980
 41f9d1       loc_41F9D1
 41f9d7       loc_41F9D7
 41fa0a       loc_41FA0A
 41fa32       loc_41FA32
 41fa49       loc_41FA49
 41fa63       loc_41FA63
 41fa6b       loc_41FA6B
 41fa87       loc_41FA87
 41faa0       CMIDI::GetTrackEvent(TRACK_*,TEMPEVENT_*)
 41fad2       loc_41FAD2
 41fb02       loc_41FB02
 41fb50       loc_41FB50
 41fb6f       loc_41FB6F
 41fb74       loc_41FB74
 41fbc7       loc_41FBC7
 41fc1b       loc_41FC1B
 41fc39       loc_41FC39
 41fc4e       loc_41FC4E
 41fc7e       loc_41FC7E
 41fc8c       loc_41FC8C
 41fca7       loc_41FCA7
 41fcc1       loc_41FCC1
 41fcd6       loc_41FCD6
 41fd02       loc_41FD02
 41fd1e       loc_41FD1E
 41fd28       loc_41FD28
 41fd34       loc_41FD34
 41fd50       CMIDI::GetTrackVDWord(TRACK_*,ulong_*)
 41fd5c       loc_41FD5C
 41fd64       loc_41FD64
 41fd6c       loc_41FD6C
 41fda0       CMIDI::AddEventToStreamBuffer(TEMPEVENT_*,CONVERTINFO_*)
 41fdc3       loc_41FDC3
 41fde6       loc_41FDE6
 41fded       loc_41FDED
 41fe1a       loc_41FE1A
 41fe51       loc_41FE51
 41fe71       loc_41FE71
 41fea3       loc_41FEA3
 41feb5       loc_41FEB5
 41feea       loc_41FEEA
 41fef6       loc_41FEF6
 41ff22       loc_41FF22
 41ff2e       loc_41FF2E
 41ffa6       loc_41FFA6
 41ffb8       loc_41FFB8
 41ffd9       loc_41FFD9
 41fff0       CMIDI::StreamBufferSetup(void)
 420007       loc_420007
 420037       loc_420037
 4200a4       loc_4200A4
 4200c5       loc_4200C5
 4200e5       loc_4200E5
 42010c       loc_42010C
 420114       loc_420114
 42011e       loc_42011E
 42012e       loc_42012E
 42020b       loc_42020B
 42025e       loc_42025E
 4202b6       loc_4202B6
 4202be       loc_4202BE
 4202e0       CMIDI::FreeBuffers(void)
 4202f4       loc_4202F4
 420311       loc_420311
 420324       loc_420324
 420326       loc_420326
 420349       loc_420349
 420360       nullsub_22
 420370       nullsub_4
 420380       CMIDI::OnMidiOutDone(midihdr_tag_&)
 4203c6       loc_4203C6
 4203e6       loc_4203E6
 4204c7       loc_4204C7
 42051c       loc_42051C
 42052c       loc_42052C
 420536       loc_420536
 420540       CMIDI::OnMidiOutPositionCB(midihdr_tag_&,midievent_tag_&)
 4205a6       loc_4205A6
 4205a9       loc_4205A9
 4205fb       loc_4205FB
 420610       CMIDI::OnMidiOutClose(void)
 420620       locret_420620
 420630       CMIDI::MidiProc(HMIDIOUT___*,uint,ulong,ulong,ulong)
 420645       loc_420645
 420651       loc_420651
 42065d       loc_42065D
 42066e       loc_42066E
 420688       locret_420688
 42068c       off_42068C
 4206a0       unknown_libname_225
 4206d0       std::vector<TRACK,std::allocator<TRACK>>::size(void)
 4206d8       loc_4206D8
 420700       std::vector<TRACK,std::allocator<TRACK>>::insert(TRACK_*,uint,TRACK_const_&)
 420754       loc_420754
 420756       loc_420756
 42075e       loc_42075E
 420771       loc_420771
 42077e       loc_42077E
 42079e       loc_42079E
 4207b1       loc_4207B1
 4207bb       loc_4207BB
 4207c3       loc_4207C3
 4207d8       loc_4207D8
 4207de       loc_4207DE
 420803       loc_420803
 42081a       loc_42081A
 420824       loc_420824
 420867       loc_420867
 420896       loc_420896
 4208cd       loc_4208CD
 4208e4       loc_4208E4
 4208ee       loc_4208EE
 420910       loc_420910
 420927       loc_420927
 42092d       loc_42092D
 420936       loc_420936
 42094c       loc_42094C
 420962       loc_420962
 42097b       loc_42097B
 420992       loc_420992
 42099c       loc_42099C
 4209a7       loc_4209A7
 4209c6       loc_4209C6
 4209d3       loc_4209D3
 4209e9       loc_4209E9
 4209ec       loc_4209EC
 420a00       std::vector<TRACK,std::allocator<TRACK>>::erase(TRACK_*,TRACK_*)
 420a15       loc_420A15
 420a2c       loc_420A2C
 420a40       nullsub_5
 420a50       unknown_libname_226
 420a86       loc_420A86
 420a88       loc_420A88
 420a90       loc_420A90
 420a95       loc_420A95
 420aa1       loc_420AA1
 420ac2       loc_420AC2
 420aca       loc_420ACA
 420ad4       loc_420AD4
 420ae0       loc_420AE0
 420aec       loc_420AEC
 420af2       loc_420AF2
 420b0b       loc_420B0B
 420b13       loc_420B13
 420b1d       loc_420B1D
 420b5d       loc_420B5D
 420b7a       loc_420B7A
 420b9b       loc_420B9B
 420ba7       loc_420BA7
 420bb1       loc_420BB1
 420bc3       loc_420BC3
 420bcb       loc_420BCB
 420bd1       loc_420BD1
 420bda       loc_420BDA
 420be5       loc_420BE5
 420bf7       loc_420BF7
 420c08       loc_420C08
 420c10       loc_420C10
 420c1a       loc_420C1A
 420c25       loc_420C25
 420c34       loc_420C34
 420c41       loc_420C41
 420c4c       loc_420C4C
 420c4f       loc_420C4F
 420c60       std::vector<CONVERTINFO,std::allocator<CONVERTINFO>>::size(void)
 420c68       loc_420C68
 420c90       std::vector<CONVERTINFO,std::allocator<CONVERTINFO>>::insert(CONVERTINFO_*,uint,CONVERTINFO_const_&)
 420ce4       loc_420CE4
 420ce6       loc_420CE6
 420cee       loc_420CEE
 420d01       loc_420D01
 420d0d       loc_420D0D
 420d36       loc_420D36
 420d49       loc_420D49
 420d53       loc_420D53
 420d5b       loc_420D5B
 420d70       loc_420D70
 420d76       loc_420D76
 420da3       loc_420DA3
 420dba       loc_420DBA
 420dc4       loc_420DC4
 420df9       loc_420DF9
 420e0f       loc_420E0F
 420e30       loc_420E30
 420e6f       loc_420E6F
 420e86       loc_420E86
 420e90       loc_420E90
 420eb2       loc_420EB2
 420ec9       loc_420EC9
 420ecf       loc_420ECF
 420ed8       loc_420ED8
 420eee       loc_420EEE
 420f04       loc_420F04
 420f25       loc_420F25
 420f3c       loc_420F3C
 420f46       loc_420F46
 420f51       loc_420F51
 420f70       loc_420F70
 420f7d       loc_420F7D
 420f93       loc_420F93
 420f96       loc_420F96
 420fa0       std::vector<CONVERTINFO,std::allocator<CONVERTINFO>>::erase(CONVERTINFO_*,CONVERTINFO_*)
 420fb5       loc_420FB5
 420fcc       loc_420FCC
 420fe0       std::copy(TRACK_*,TRACK_*,TRACK_*)
 420ff3       loc_420FF3
 42100c       loc_42100C
 421020       std::copy(CONVERTINFO_*,CONVERTINFO_*,CONVERTINFO_*)
 421033       loc_421033
 42104c       loc_42104C
 421060       CDllFunc::SetDllFuncs(int_(*)(void),int_(*(*)(char_const_*))(void),void_(*)(void))
 421073       loc_421073
 421094       loc_421094
 4210b0       CDllFunc::GetProc(char_*)
 4210c6       loc_4210C6
 4210cd       loc_4210CD
 4210da       loc_4210DA
 4210f0       CBaseSockWnd::MCloseSocket(uint)
 421110       CUDPSockWnd::OnDataIncoming(uint,long)
 421161       loc_421161
 4211bc       loc_4211BC
 4211d5       loc_4211D5
 4211f0       CClientSockWnd::OnDataIncoming(uint,long)
 421225       loc_421225
 42123e       loc_42123E
 42126a       loc_42126A
 421294       loc_421294
 4212d2       loc_4212D2
 4212ea       loc_4212EA
 421317       loc_421317
 421330       CServerSockWnd::OnAccept(uint,long)
 42134d       loc_42134D
 42138e       loc_42138E
 42142b       loc_42142B
 421450       CServerSockWnd::OnDataIncoming(uint,long)
 421489       loc_421489
 4214aa       loc_4214AA
 4214c3       loc_4214C3
 421517       loc_421517
 421524       loc_421524
 421552       loc_421552
 421577       loc_421577
 4215b4       loc_4215B4
 4215cb       loc_4215CB
 4215d9       loc_4215D9
 4215ef       loc_4215EF
 421617       loc_421617
 421630       exception::exception(void)
 421650       CPing::`scalar_deleting_destructor'(uint)
 421668       loc_421668
 421670       CPing::~CPing(void)
 421687       loc_421687
 421696       locret_421696
 4216a0       CSerial::ClearEventBuf(void)
 4216d0       CSerial::OnHasEvent(uint,long)
 421778       loc_421778
 421781       loc_421781
 4217b9       loc_4217B9
 4217ce       loc_4217CE
 4217e3       loc_4217E3
 4217f8       loc_4217F8
 42180d       loc_42180D
 42181f       loc_42181F
 421831       loc_421831
 421843       loc_421843
 421855       loc_421855
 421867       loc_421867
 421879       loc_421879
 421891       loc_421891
 4218a1       loc_4218A1
 4218a6       loc_4218A6
 4218db       off_4218DB
 421910       CMDataSource::AddProcessor(CProcessor_*)
 421957       loc_421957
 421971       loc_421971
 4219a1       loc_4219A1
 4219bf       loc_4219BF
 4219dd       loc_4219DD
 4219e9       loc_4219E9
 4219f7       loc_4219F7
 421a51       loc_421A51
 421a60       CMDataSource::RemoveProcessor(CProcessor_*)
 421a96       loc_421A96
 421a99       loc_421A99
 421aa0       CMDataSource::FindProcessor(CProcessor_*)
 421ab1       loc_421AB1
 421abd       loc_421ABD
 421ac0       loc_421AC0
 421ad0       CMDataSource::SetProvider(CProvider_*)
 421b00       CMDataSource::CheckRowIndex(int)
 421b22       loc_421B22
 421b30       CMDataSource::CheckColIndex(int)
 421b52       loc_421B52
 421b60       CMDataSource::CheckRowColIndex(int,int)
 421b8a       loc_421B8A
 421b90       CMDataSource::CheckRow(int,int_*)
 421bb9       loc_421BB9
 421bca       loc_421BCA
 421bd0       loc_421BD0
 421bdb       loc_421BDB
 421be0       CMDataSource::CheckCol(int,int_*)
 421c09       loc_421C09
 421c1a       loc_421C1A
 421c20       loc_421C20
 421c2b       loc_421C2B
 421c30       CMDataSource::CheckRowCol(int,int_*,int,int_*)
 421c66       loc_421C66
 421c70       CMDataSource::SaveChange(void)
 421c92       loc_421C92
 421ca0       CMDataSource::GetRowCount(void)
 421cac       loc_421CAC
 421cb0       CMDataSource::GetRowHeight(int)
 421cd0       loc_421CD0
 421ce0       CMDataSource::GetColCount(void)
 421cec       loc_421CEC
 421cf0       CMDataSource::GetColWidth(int)
 421d10       loc_421D10
 421d20       CMDataSource::GetColName(int,CString_&)
 421d45       loc_421D45
 421d60       CMDataSource::GetFixedRowCount(void)
 421d6c       loc_421D6C
 421d70       CMDataSource::GetFixedColCount(void)
 421d7c       loc_421D7C
 421d80       CMDataSource::GetCell(CELL_*,int,int,int)
 421db2       loc_421DB2
 421dc0       unknown_libname_371
 421e38       loc_421E38
 421e60       CMDataSource::GetShowText(int,int,CString_&)
 421eb9       loc_421EB9
 421ec2       loc_421EC2
 421ef0       CMDataSource::GetText(int,int,CString_&)
 421f49       loc_421F49
 421f52       loc_421F52
 421f80       CMDataSource::IsReadOnly(void)
 421f90       CMDataSource::GetProvider(void)
 421fa0       CMDataSource::SetRowHeight(int,int,int)
 421fe0       loc_421FE0
 421ff0       CMDataSource::SetColWidth(int,int,int)
 422030       loc_422030
 422040       CMDataSource::NotifyCellModified(int,int,int,int)
 422080       CMDataSource::SetText(int,int,char_*)
 4220c2       loc_4220C2
 4220d0       CMDataSource::GetCellsData(CFreqMem_&,int,int,int,int)
 422157       loc_422157
 422184       loc_422184
 4221b0       CMDataSource::SetCellsData(uchar_*,int,int,int,int,int_*,int_*,int_*,int)
 4221e9       loc_4221E9
 422270       CMDataSource::LoadCellsData(CFile_*,int,int,int,int_*,int_*,int_*,int)
 422313       loc_422313
 42232f       loc_42232F
 42233b       loc_42233B
 422350       loc_422350
 42239b       loc_42239B
 4223a7       loc_4223A7
 4223f7       loc_4223F7
 42241a       loc_42241A
 42244a       sub_42244A
 422460       CMDataSource::SaveCellsData(CFile_*,int,int,int,int)
 4224e3       loc_4224E3
 42253b       loc_42253B
 422547       loc_422547
 422553       loc_422553
 422570       CMDataSource::GetIndependRect(CRect_&)
 422584       loc_422584
 42258d       loc_42258D
 4225bd       loc_4225BD
 4225c2       loc_4225C2
 4225c5       loc_4225C5
 4225ca       loc_4225CA
 4225d4       loc_4225D4
 422603       loc_422603
 422607       loc_422607
 42260a       loc_42260A
 422613       loc_422613
 422615       loc_422615
 422620       CMDataSource::SetupPrinterInfo(void)
 422678       loc_422678
 422898       loc_422898
 422ae2       loc_422AE2
 422af6       loc_422AF6
 422b10       CPrinterSetup::~CPrinterSetup(void)
 422ce0       CMDataSource::GetPrintInfo(void)
 422cea       loc_422CEA
 422cf0       CMDataSource::CreatePrinterDC(void)
 422d23       loc_422D23
 422d4d       loc_422D4D
 422dfc       loc_422DFC
 422ebb       loc_422EBB
 422edb       loc_422EDB
 422eee       loc_422EEE
 422f04       loc_422F04
 422f6c       loc_422F6C
 422fff       loc_422FFF
 42301d       loc_42301D
 423076       loc_423076
 4230d0       loc_4230D0
 4230f0       CMDataSource::CalcutePrePage(int,int,CMPrintInfo_const_*,CMArray<PAGE_PRINT_INFO>_&)
 423145       loc_423145
 423155       loc_423155
 423172       loc_423172
 423183       loc_423183
 423188       loc_423188
 4231ae       loc_4231AE
 4231c2       loc_4231C2
 4231d8       loc_4231D8
 4231ea       loc_4231EA
 4231f4       loc_4231F4
 4231fb       loc_4231FB
 423206       loc_423206
 423237       loc_423237
 42323d       loc_42323D
 423253       loc_423253
 42325d       loc_42325D
 423278       loc_423278
 423281       loc_423281
 4232b3       loc_4232B3
 4232b7       loc_4232B7
 4232c7       loc_4232C7
 4232cf       loc_4232CF
 4232ef       loc_4232EF
 4232f9       loc_4232F9
 423331       loc_423331
 423333       loc_423333
 423337       loc_423337
 423359       loc_423359
 42337c       loc_42337C
 423386       loc_423386
 42339d       loc_42339D
 4233b1       loc_4233B1
 4233de       loc_4233DE
 4233eb       loc_4233EB
 42340f       loc_42340F
 42341e       loc_42341E
 42343c       loc_42343C
 423448       loc_423448
 423452       loc_423452
 4234a9       loc_4234A9
 4234ad       loc_4234AD
 4234d1       loc_4234D1
 4234e2       loc_4234E2
 4234fe       loc_4234FE
 423510       CMDataSource::FindColIndex(char_*)
 423577       loc_423577
 423589       loc_423589
 42359d       loc_42359D
 4235bd       loc_4235BD
 4235c1       loc_4235C1
 4235c6       loc_4235C6
 4235d3       loc_4235D3
 4235e4       loc_4235E4
 4235e7       loc_4235E7
 4235fc       loc_4235FC
 423620       CMArray<PAGE_PRINT_INFO>::SetSize(int,int)
 423631       loc_423631
 42364c       loc_42364C
 423658       loc_423658
 423679       loc_423679
 423689       loc_423689
 4236a8       loc_4236A8
 4236b4       loc_4236B4
 4236bf       loc_4236BF
 423710       CProvider::StrToBOOL(char_*)
 42371f       loc_42371F
 42373a       loc_42373A
 42373f       loc_42373F
 423750       CMPrintInfo::CMPrintInfo(void)
 4237c0       CMPrintInfo::~CMPrintInfo(void)
 423820       CMPrintInfo::init(void)
 4238a0       CMPrintInfo::GetPrintScale(void)
 4238b5       loc_4238B5
 4238ba       loc_4238BA
 4238c0       loc_4238C0
 4238ca       loc_4238CA
 4238d6       locret_4238D6
 4238e0       CMPrintInfo::CopyFrom(CMPrintInfo_const_*)
 423970       loc_423970
 423973       loc_423973
 423999       loc_423999
 4239a0       CArchive::operator>>(ushort_&)
 4239bd       loc_4239BD
 4239e0       CELL::CELL(void)
 423a10       CELL::FreeData(void)
 423a20       CELL::FreeData(void)
 423a3a       loc_423A3A
 423a60       loc_423A60
 423a73       loc_423A73
 423a7f       loc_423A7F
 423a90       CELL::GetType(void)
 423a9f       loc_423A9F
 423aaa       loc_423AAA
 423ac0       CELL::GetState(void)
 423ad0       sub_423AD0
 423ae0       CELL::GetFaceName(CString_&)
 423af8       loc_423AF8
 423b10       CELL::GetFontSize(void)
 423b20       CELL::GetExtra(void)
 423b30       CELL::GetPicInf(void)
 423b51       loc_423B51
 423b6a       loc_423B6A
 423b80       loc_423B80
 423b83       loc_423B83
 423ba9       loc_423BA9
 423bab       loc_423BAB
 423bae       loc_423BAE
 423bb9       loc_423BB9
 423bbb       loc_423BBB
 423bc0       CELL::GetShowText(CString_&)
 423c3e       loc_423C3E
 423c5a       loc_423C5A
 423c80       CELL::GetText(CString_&)
 423ca1       loc_423CA1
 423cb0       CELL::GetData(int_*)
 423cc7       loc_423CC7
 423ce0       CELL::SetState(ulong)
 423cf0       CELL::Serialize(CArchive_&)
 423d29       loc_423D29
 423d2e       loc_423D2E
 423d53       loc_423D53
 423d79       loc_423D79
 423dc7       loc_423DC7
 423df5       loc_423DF5
 423e27       loc_423E27
 423e41       loc_423E41
 423e64       loc_423E64
 423e87       loc_423E87
 423eab       loc_423EAB
 423ed4       loc_423ED4
 423f06       loc_423F06
 423f21       loc_423F21
 423f38       loc_423F38
 423f59       loc_423F59
 423f60       unknown_libname_227
 423fd8       loc_423FD8
 424000       CProvider::LoadCellsData(CArchive_&,int,int,int,int_*,int_*,int)
 42403c       loc_42403C
 424062       loc_424062
 42407b       loc_42407B
 424085       loc_424085
 4240ca       loc_4240CA
 4240d7       loc_4240D7
 4240f2       loc_4240F2
 4240f6       loc_4240F6
 424111       loc_424111
 424134       loc_424134
 424144       loc_424144
 42418f       loc_42418F
 4241a1       loc_4241A1
 4241b5       loc_4241B5
 4241cd       loc_4241CD
 4241d6       loc_4241D6
 4241e7       loc_4241E7
 424200       CProvider::SaveCellsData(CArchive_&,int,int,int,int)
 42423a       loc_42423A
 42425e       loc_42425E
 424286       loc_424286
 424297       loc_424297
 4242bc       loc_4242BC
 4242d7       loc_4242D7
 4242e0       loc_4242E0
 424310       CNormalProvider::MInitSize(int,int)
 424330       ATL::CAtlArray<void_*,ATL::CElementTraits<void_*>>::~CAtlArray<void_*,ATL::CElementTraits<void_*>>(void)
 42433d       locret_42433D
 424350       unknown_libname_228
 424370       CDCRemember::CDCRemember(CDC_*)
 424390       CDCRemember::~CDCRemember(void)
 4243a0       CMGrid::GetRowHeight(int)
 4243d6       loc_4243D6
 424414       loc_424414
 424469       loc_424469
 424480       CMGrid::GetColWidth(int)
 4244b6       loc_4244B6
 4244f4       loc_4244F4
 424549       loc_424549
 424560       CMGrid::GetHeaderSize(void)
 424590       loc_424590
 4245c4       loc_4245C4
 424619       loc_424619
 424627       loc_424627
 424640       CMGrid::AddCX(int,int)
 4246cf       loc_4246CF
 424770       CMGrid::AddCY(int,int)
 4247ff       loc_4247FF
 4248a0       CMGrid::GetDrawMode(void)
 4248b0       CMGrid::SetDrawMode(int)
 4248c0       CMGrid::CloseEdit(int)
 4248fa       loc_4248FA
 424906       loc_424906
 424910       CMGrid::GetDataSource(void)
 424920       CMGrid::SetDataSource(CMDataSource_*)
 424960       CMGrid::CreateHeaderFont(CFont_&)
 4249d0       CMGrid::OnMouseWheel(uint,short,CPoint)
 4249e1       loc_4249E1
 424a4c       loc_424A4C
 424a58       loc_424A58
 424a78       loc_424A78
 424a9f       loc_424A9F
 424ab0       CMGrid::IsCaretRowValid(int)
 424ac0       loc_424AC0
 424ae6       loc_424AE6
 424af0       CMGrid::IsCaretColValid(int)
 424b00       loc_424B00
 424b26       loc_424B26
 424b30       CMGrid::IsSelectionValid(void)
 424b7e       loc_424B7E
 424b90       CMGrid::InitScrollBar(int)
 424bd7       loc_424BD7
 424bfb       loc_424BFB
 424c18       loc_424C18
 424c33       loc_424C33
 424c3b       loc_424C3B
 424c43       loc_424C43
 424c47       loc_424C47
 424c4e       loc_424C4E
 424c57       loc_424C57
 424c7b       loc_424C7B
 424c92       loc_424C92
 424cbc       loc_424CBC
 424cc4       loc_424CC4
 424ccc       loc_424CCC
 424cd0       loc_424CD0
 424ce0       loc_424CE0
 424cf0       CMGrid::OnCreate(tagCREATESTRUCTA_*)
 424d03       loc_424D03
 424d30       CMGrid::OnPaint(void)
 424dbc       loc_424DBC
 4252c4       loc_4252C4
 4252f7       loc_4252F7
 4252fa       loc_4252FA
 425357       loc_425357
 42538a       loc_42538A
 4253a6       loc_4253A6
 4253b2       loc_4253B2
 4253ce       loc_4253CE
 4254c3       loc_4254C3
 4254e8       loc_4254E8
 4254ec       loc_4254EC
 425514       loc_425514
 4255d2       loc_4255D2
 425606       loc_425606
 42560a       loc_42560A
 425726       loc_425726
 42572f       loc_42572F
 425741       loc_425741
 425825       loc_425825
 42582b       loc_42582B
 42583c       loc_42583C
 42586c       loc_42586C
 425872       loc_425872
 42588f       loc_42588F
 425999       loc_425999
 425a9e       loc_425A9E
 425b03       loc_425B03
 425b1c       loc_425B1C
 425b25       loc_425B25
 425b6a       loc_425B6A
 425b7e       loc_425B7E
 425be3       loc_425BE3
 425c1f       loc_425C1F
 425c33       loc_425C33
 425c98       loc_425C98
 425c9a       loc_425C9A
 425cdb       loc_425CDB
 425cdd       loc_425CDD
 425cfc       loc_425CFC
 425d51       loc_425D51
 425d5d       loc_425D5D
 425d69       loc_425D69
 425d7f       loc_425D7F
 425d88       loc_425D88
 425d9a       loc_425D9A
 425e1d       loc_425E1D
 425e6b       loc_425E6B
 425e7e       loc_425E7E
 425ebc       loc_425EBC
 425ee8       loc_425EE8
 425eec       loc_425EEC
 425ef9       loc_425EF9
 425f0f       loc_425F0F
 425f5f       loc_425F5F
 425f8d       loc_425F8D
 425f92       loc_425F92
 425fac       loc_425FAC
 425fb9       loc_425FB9
 42607d       loc_42607D
 4260a3       loc_4260A3
 4260f0       loc_4260F0
 426133       loc_426133
 42614f       loc_42614F
 426180       loc_426180
 426214       loc_426214
 426228       loc_426228
 42633d       loc_42633D
 426355       loc_426355
 426358       loc_426358
 42638e       loc_42638E
 4263c0       CMGrid::GetHeaderAndFixedSize(void)
 4263eb       loc_4263EB
 426411       loc_426411
 42642f       loc_42642F
 426440       loc_426440
 426458       loc_426458
 426470       CMGrid::DrawSelection(void)
 4264c5       loc_4264C5
 4264d1       loc_4264D1
 426697       loc_426697
 4266b0       CMGrid::InvalidateCell(int,int)
 42671f       loc_42671F
 426730       CMGrid::GetCellsDPShowRect(int,int,int,int)
 4267d9       loc_4267D9
 4268a0       CMGrid::SelectTo(int,int,REFRUSH_MODE)
 4268d2       loc_4268D2
 4268d4       loc_4268D4
 4268ec       loc_4268EC
 4268fe       loc_4268FE
 426916       loc_426916
 42692c       loc_42692C
 42693e       loc_42693E
 426942       loc_426942
 4269b8       loc_4269B8
 4269c6       loc_4269C6
 4269d4       loc_4269D4
 4269e2       loc_4269E2
 426a13       loc_426A13
 426a1f       loc_426A1F
 426a38       loc_426A38
 426a44       loc_426A44
 426a5e       loc_426A5E
 426a77       loc_426A77
 426af0       loc_426AF0
 426b00       CMGrid::Select(int,int,int,int)
 426b40       CMGrid::SetCaret(int,int,int,REFRUSH_MODE,int)
 426b95       loc_426B95
 426bad       loc_426BAD
 426bb1       loc_426BB1
 426bcd       loc_426BCD
 426bdf       loc_426BDF
 426bf7       loc_426BF7
 426bfb       loc_426BFB
 426c17       loc_426C17
 426c29       loc_426C29
 426c86       loc_426C86
 426ca3       loc_426CA3
 426cc4       loc_426CC4
 426cfb       loc_426CFB
 426d10       CMGrid::_GetVisibleCells(int,int)
 426d69       loc_426D69
 426e0e       loc_426E0E
 426e30       loc_426E30
 426e34       loc_426E34
 426e38       loc_426E38
 426e3a       loc_426E3A
 426e4b       loc_426E4B
 426e51       loc_426E51
 426e56       loc_426E56
 426e6f       loc_426E6F
 426e95       loc_426E95
 426e9d       loc_426E9D
 426ea1       loc_426EA1
 426ea7       loc_426EA7
 426eb0       loc_426EB0
 426eb6       loc_426EB6
 426eb9       loc_426EB9
 426f10       CMGrid::ChkCellVisible(int,int,REFRUSH_MODE)
 426f8a       loc_426F8A
 426f9d       loc_426F9D
 426fb3       loc_426FB3
 426fc0       CMGrid::_ChkCellVisible(int,int,int_&,int_&)
 427071       loc_427071
 427079       loc_427079
 427106       loc_427106
 42712a       loc_42712A
 427132       loc_427132
 427133       loc_427133
 42713b       loc_42713B
 427147       loc_427147
 42714d       loc_42714D
 42717f       loc_42717F
 427199       loc_427199
 427224       loc_427224
 427248       loc_427248
 427249       loc_427249
 427251       loc_427251
 42725d       loc_42725D
 427263       loc_427263
 42728e       loc_42728E
 4272b0       CMGrid::GetCellShowRect(int,int,int,int)
 42734e       loc_42734E
 427376       loc_427376
 42737c       loc_42737C
 427398       loc_427398
 42739c       loc_42739C
 4273aa       loc_4273AA
 4273d2       loc_4273D2
 4273d8       loc_4273D8
 4273f4       loc_4273F4
 4273fc       loc_4273FC
 42741a       loc_42741A
 427424       loc_427424
 427444       loc_427444
 42745a       loc_42745A
 427464       loc_427464
 427480       loc_427480
 427486       loc_427486
 4274b0       CMGrid::MCreateFont(CELL_*,CFont_*,int)
 427542       loc_427542
 42754c       loc_42754C
 427556       loc_427556
 427560       loc_427560
 427578       loc_427578
 4275d7       loc_4275D7
 427620       CMGrid::DrawCell(CDC_*,int,int,int,int,ulong,CRect_*,CRect_*)
 4276a3       loc_4276A3
 4276ee       loc_4276EE
 42770a       loc_42770A
 427774       loc_427774
 427791       loc_427791
 4277c0       loc_4277C0
 4277ca       loc_4277CA
 4277cc       loc_4277CC
 42782f       loc_42782F
 427853       loc_427853
 4278e8       loc_4278E8
 427924       loc_427924
 42795c       loc_42795C
 42795f       loc_42795F
 42798d       loc_42798D
 427994       loc_427994
 427a3c       loc_427A3C
 427a43       loc_427A43
 427a48       loc_427A48
 427a66       loc_427A66
 427a6b       loc_427A6B
 427a6e       loc_427A6E
 427aad       loc_427AAD
 427ab0       loc_427AB0
 427ac7       loc_427AC7
 427b26       loc_427B26
 427b3c       loc_427B3C
 427b4a       loc_427B4A
 427bef       loc_427BEF
 427c12       loc_427C12
 427c83       loc_427C83
 427cc5       loc_427CC5
 427cd1       loc_427CD1
 427ce4       loc_427CE4
 427d02       loc_427D02
 427d14       loc_427D14
 427d2b       loc_427D2B
 427d48       loc_427D48
 427d8a       loc_427D8A
 427da6       loc_427DA6
 427dc4       loc_427DC4
 427de6       loc_427DE6
 427df6       loc_427DF6
 427e22       loc_427E22
 427e36       loc_427E36
 427e68       loc_427E68
 427e6d       loc_427E6D
 427e82       loc_427E82
 427e94       loc_427E94
 427e9d       loc_427E9D
 427ed5       loc_427ED5
 427edc       loc_427EDC
 427f40       loc_427F40
 427f60       CMGrid::DrawCellLine(CDC_*,int,int,int,int,CSize_&,ulong,ulong)
 427fae       loc_427FAE
 427fb2       loc_427FB2
 427fc5       loc_427FC5
 427fc9       loc_427FC9
 42800b       loc_42800B
 428010       loc_428010
 4280d3       loc_4280D3
 4280e0       loc_4280E0
 4280e4       loc_4280E4
 42810f       loc_42810F
 428119       loc_428119
 42811d       loc_42811D
 428133       loc_428133
 42814e       loc_42814E
 42815b       loc_42815B
 42815f       loc_42815F
 42818e       loc_42818E
 4281b0       loc_4281B0
 4281bd       loc_4281BD
 4281c1       loc_4281C1
 4281ec       loc_4281EC
 428210       loc_428210
 42821d       loc_42821D
 428221       loc_428221
 42824c       loc_42824C
 428287       loc_428287
 4282a0       CMGrid::GetCellSize(int,int)
 4282de       loc_4282DE
 4282fa       loc_4282FA
 428306       loc_428306
 428322       loc_428322
 428340       CMGrid::GetCellAtRect(int,int)
 428397       loc_428397
 428408       loc_428408
 428418       loc_428418
 428439       loc_428439
 428449       loc_428449
 42846a       loc_42846A
 428481       loc_428481
 4284a2       loc_4284A2
 4284b2       loc_4284B2
 4284d3       loc_4284D3
 428510       CMGrid::IsIndependCell(int,int)
 428540       CMGrid::OnHScroll(uint,uint,CScrollBar_*)
 42855d       loc_42855D
 428560       loc_428560
 428563       loc_428563
 428568       loc_428568
 42856d       loc_42856D
 428571       loc_428571
 4285c4       off_4285C4
 4285e0       CMGrid::OnVScroll(uint,uint,CScrollBar_*)
 4285fd       loc_4285FD
 428600       loc_428600
 428603       loc_428603
 428608       loc_428608
 42860d       loc_42860D
 428611       loc_428611
 428664       off_428664
 428680       CMGrid::OnActivate(uint,CWnd_*,int)
 428697       loc_428697
 4286a0       CMGrid::FindSpecDPPointCell(CPoint_&,int_*,int_*)
 4287ad       loc_4287AD
 4287ca       loc_4287CA
 4287d5       loc_4287D5
 4287ef       loc_4287EF
 4287f1       loc_4287F1
 428806       loc_428806
 42881e       loc_42881E
 42883b       loc_42883B
 428848       loc_428848
 428870       CMGrid::OnKeyDown(uint,uint,uint)
 4288ef       loc_4288EF
 428902       loc_428902
 428913       loc_428913
 428996       loc_428996
 4289b9       loc_4289B9
 4289d5       loc_4289D5
 4289f3       loc_4289F3
 428a0c       loc_428A0C
 428a25       loc_428A25
 428a3e       loc_428A3E
 428a57       loc_428A57
 428a70       loc_428A70
 428a89       loc_428A89
 428aa2       loc_428AA2
 428abb       loc_428ABB
 428acb       loc_428ACB
 428adc       loc_428ADC
 428ae8       loc_428AE8
 428af4       loc_428AF4
 428b11       loc_428B11
 428b22       loc_428B22
 428b33       loc_428B33
 428b48       loc_428B48
 428b56       loc_428B56
 428b57       loc_428B57
 428b5e       loc_428B5E
 428b7c       loc_428B7C
 428b81       loc_428B81
 428b9f       loc_428B9F
 428ba4       loc_428BA4
 428bb3       loc_428BB3
 428bc2       loc_428BC2
 428bcc       off_428BCC
 428bfc       byte_428BFC
 428c40       CMGrid::OnLButtonDown(uint,CPoint)
 428da0       loc_428DA0
 428db0       loc_428DB0
 428dbe       loc_428DBE
 428dec       loc_428DEC
 428e06       loc_428E06
 428e7e       loc_428E7E
 428e8a       loc_428E8A
 428ea2       loc_428EA2
 428eb0       loc_428EB0
 428edf       loc_428EDF
 428ee9       loc_428EE9
 428ef0       loc_428EF0
 428f0c       loc_428F0C
 428f42       loc_428F42
 428f5a       loc_428F5A
 428f6d       loc_428F6D
 428f90       CMGrid::OnLButtonUp(uint,CPoint)
 428fd3       loc_428FD3
 429003       loc_429003
 429021       loc_429021
 429026       loc_429026
 429045       loc_429045
 42904a       loc_42904A
 429059       loc_429059
 429069       loc_429069
 429070       CMGrid::OnMouseMove(uint,CPoint)
 4290c0       loc_4290C0
 4290d0       CMGrid::ScrollTo(int,int,REFRUSH_MODE)
 42917f       loc_42917F
 42918b       loc_42918B
 429191       loc_429191
 4291ba       loc_4291BA
 4291c2       loc_4291C2
 4291cc       loc_4291CC
 4291f2       loc_4291F2
 4291fc       loc_4291FC
 429200       loc_429200
 42920c       loc_42920C
 429243       loc_429243
 42924f       loc_42924F
 429255       loc_429255
 42925b       loc_42925B
 429284       loc_429284
 42928c       loc_42928C
 429296       loc_429296
 4292bc       loc_4292BC
 4292c6       loc_4292C6
 4292d2       loc_4292D2
 4292f2       loc_4292F2
 42935b       loc_42935B
 429379       loc_429379
 42939a       loc_42939A
 4293b4       loc_4293B4
 4293c3       loc_4293C3
 4293de       loc_4293DE
 4293f2       loc_4293F2
 429400       CMGrid::OnSetCursor(CWnd_*,uint,uint)
 42947a       loc_42947A
 4294a0       loc_4294A0
 4294b0       CMGrid::FindAdjustCell(CPoint_&,int_*,int_*,int_*)
 42960c       loc_42960C
 42961a       loc_42961A
 429647       loc_429647
 429659       loc_429659
 429663       loc_429663
 42966b       loc_42966B
 429687       loc_429687
 429695       loc_429695
 4296c2       loc_4296C2
 4296d1       loc_4296D1
 4296db       loc_4296DB
 4296e1       loc_4296E1
 4296fd       loc_4296FD
 429710       CMGrid::ResizeRowOrCol(CPoint_&,int,int,int)
 429825       loc_429825
 429856       loc_429856
 429861       loc_429861
 42987c       loc_42987C
 429895       loc_429895
 4298bd       loc_4298BD
 4298cf       loc_4298CF
 4298fc       loc_4298FC
 429910       loc_429910
 429945       loc_429945
 42995f       loc_42995F
 429974       loc_429974
 429980       loc_429980
 429a15       loc_429A15
 429a2e       loc_429A2E
 429a63       loc_429A63
 429aa8       loc_429AA8
 429ac0       loc_429AC0
 429aec       loc_429AEC
 429b10       CMGrid::DrawResizeLine(CDC_*,CPoint_&,CSize_&,int,int)
 429b54       loc_429B54
 429b85       loc_429B85
 429b90       CMGrid::GetCurAllShowSize(void)
 429be0       CMGrid::GetCurGridShowSize(void)
 429c0b       loc_429C0B
 429c5f       loc_429C5F
 429c7d       loc_429C7D
 429c85       loc_429C85
 429ca3       loc_429CA3
 429cad       loc_429CAD
 429ccb       loc_429CCB
 429cd7       loc_429CD7
 429cf5       loc_429CF5
 429d10       CMGrid::OnEndInPlaceEdit(tagNMHDR_*,long_*)
 429d5f       loc_429D5F
 429e07       loc_429E07
 429e15       loc_429E15
 429e31       loc_429E31
 429e50       CMGrid::OnChar(uint,uint,uint)
 429e9e       loc_429E9E
 429eae       loc_429EAE
 429f45       loc_429F45
 429f4a       loc_429F4A
 429f81       loc_429F81
 429f98       loc_429F98
 429f9d       loc_429F9D
 429fa9       loc_429FA9
 429fc0       CMGrid::CopyIntoClipBoard(void)
 429fee       loc_429FEE
 429ffa       loc_429FFA
 42a010       CMGrid::CopyIntoClipBoard(int,int,int,int)
 42a0e1       loc_42A0E1
 42a0ff       loc_42A0FF
 42a118       loc_42A118
 42a130       CMGrid::PasteFromClipBoard(int)
 42a13f       loc_42A13F
 42a14b       loc_42A14B
 42a160       CMGrid::PasteFromClipBoard(int,int,int)
 42a1c2       loc_42A1C2
 42a235       loc_42A235
 42a24f       loc_42A24F
 42a260       CMGrid::edit(char_*)
 42a2b3       loc_42A2B3
 42a2b9       loc_42A2B9
 42a2c5       loc_42A2C5
 42a36c       loc_42A36C
 42a374       loc_42A374
 42a39e       loc_42A39E
 42a3aa       loc_42A3AA
 42a3ef       loc_42A3EF
 42a46c       loc_42A46C
 42a470       loc_42A470
 42a473       loc_42A473
 42a48f       loc_42A48F
 42a4a0       loc_42A4A0
 42a4b4       loc_42A4B4
 42a4d0       CMGrid::SelectAll(REFRUSH_MODE)
 42a500       loc_42A500
 42a502       loc_42A502
 42a558       loc_42A558
 42a560       CMGrid::DrawPageNum(CDC_*,CRect_&,int,int)
 42a67b       loc_42A67B
 42a69a       loc_42A69A
 42a6a3       loc_42A6A3
 42a6ba       loc_42A6BA
 42a6c6       loc_42A6C6
 42a738       loc_42A738
 42a750       CMGrid::DrawPage(CDC_*,int,int,int,int,int)
 42a7d1       loc_42A7D1
 42a7f4       loc_42A7F4
 42a7fe       loc_42A7FE
 42a828       loc_42A828
 42a843       loc_42A843
 42a84f       loc_42A84F
 42a89f       loc_42A89F
 42a8a9       loc_42A8A9
 42a8e8       loc_42A8E8
 42a8f8       loc_42A8F8
 42a920       CMGrid::DrawRow(CDC_*,int,int,int,int,int,int)
 42a953       loc_42A953
 42a994       loc_42A994
 42a9ac       loc_42A9AC
 42a9ba       loc_42A9BA
 42aa14       loc_42AA14
 42aa30       CMGrid::Print(char_*,int,CString_*)
 42aac3       loc_42AAC3
 42ab30       CMPrintStatusDlg::~CMPrintStatusDlg(void)
 42abb0       nullsub_12
 42abc0       unknown_libname_229
 42abd0       unknown_libname_230
 42abe0       MFreeObj(ulong_*)
 42ac01       loc_42AC01
 42ac10       loc_42AC10
 42ac24       loc_42AC24
 42ac30       GetErrMsg(int)
 42ac3b       loc_42AC3B
 42ac50       loc_42AC50
 42ac60       ConvertFileError(CFileException_*)
 42ac6c       loc_42AC6C
 42ac75       loc_42AC75
 42ac80       loc_42AC80
 42ac8b       loc_42AC8B
 42ac96       loc_42AC96
 42aca1       loc_42ACA1
 42acac       loc_42ACAC
 42acb7       loc_42ACB7
 42acc2       loc_42ACC2
 42accd       loc_42ACCD
 42acd8       loc_42ACD8
 42ace3       loc_42ACE3
 42acee       loc_42ACEE
 42acf9       loc_42ACF9
 42ad10       CEWorkSpace::CEWorkSpace(void)
 42ad40       CEWorkSpace::`scalar_deleting_destructor'(uint)
 42ad58       loc_42AD58
 42ad60       CEWorkSpace::~CEWorkSpace(void)
 42adc0       CEWorkSpace::CloseAll(void)
 42add3       loc_42ADD3
 42ade3       loc_42ADE3
 42ade8       loc_42ADE8
 42ae00       CEDatabase::IsNeedRetry(CFileException_*,ulong)
 42ae36       loc_42AE36
 42ae3c       loc_42AE3C
 42ae40       nullsub_7
 42ae50       CFileException::`scalar_deleting_destructor'(uint)
 42ae68       loc_42AE68
 42ae70       CFileException::~CFileException(void)
 42aeb0       CEDatabase::RunLock(int,int)
 42aebf       loc_42AEBF
 42aed6       loc_42AED6
 42aef0       CEDatabase::RunLockFile(ulong,int)
 42af1f       loc_42AF1F
 42af40       loc_42AF40
 42af49       loc_42AF49
 42af6a       loc_42AF6A
 42af79       loc_42AF79
 42af7e       loc_42AF7E
 42af88       loc_42AF88
 42af9f       loc_42AF9F
 42afb4       loc_42AFB4
 42afc1       loc_42AFC1
 42afd8       loc_42AFD8
 42aff5       loc_42AFF5
 42b029       loc_42B029
 42b04d       loc_42B04D
 42b058       loc_42B058
 42b05c       loc_42B05C
 42b087       loc_42B087
 42b09e       loc_42B09E
 42b0b9       loc_42B0B9
 42b0ff       loc_42B0FF
 42b11e       loc_42B11E
 42b124       loc_42B124
 42b128       loc_42B128
 42b145       loc_42B145
 42b15a       loc_42B15A
 42b173       loc_42B173
 42b175       loc_42B175
 42b190       CEDatabase::_RunLockFile(CCryptFile_*,ulong,int)
 42b1bd       loc_42B1BD
 42b1f3       loc_42B1F3
 42b201       loc_42B201
 42b214       loc_42B214
 42b217       loc_42B217
 42b21a       loc_42B21A
 42b232       sub_42B232
 42b25b       loc_42B25B
 42b26b       loc_42B26B
 42b27d       loc_42B27D
 42b29d       sub_42B29D
 42b2a9       loc_42B2A9
 42b2b5       sub_42B2B5
 42b2cf       loc_42B2CF
 42b2f0       CEDatabase::LockOffset(CCryptFile_*,int,CFreqMem_*)
 42b301       loc_42B301
 42b304       loc_42B304
 42b320       loc_42B320
 42b33f       loc_42B33F
 42b350       CEDatabase::UnlockOffset(CCryptFile_*,int,CFreqMem_*)
 42b362       loc_42B362
 42b365       loc_42B365
 42b3a3       loc_42B3A3
 42b3a5       loc_42B3A5
 42b3b0       CEDatabase::UnlockRemember(CCryptFile_*,CFreqMem_*,int)
 42b3c5       loc_42B3C5
 42b3c8       loc_42B3C8
 42b3e0       loc_42B3E0
 42b3f7       loc_42B3F7
 42b407       loc_42B407
 42b41b       loc_42B41B
 42b42e       loc_42B42E
 42b440       CEDatabase::ReplaceLock(CCryptFile_*,int,CFreqMem_*)
 42b476       loc_42B476
 42b494       loc_42B494
 42b4a0       loc_42B4A0
 42b4b0       std::locale::facet::facet(uint)
 42b4d0       sub_42B4D0
 42b4e8       loc_42B4E8
 42b4f0       sub_42B4F0
 42b500       CDatFile::WriteData(uchar_*,int,int,int_*)
 42b536       loc_42B536
 42b58c       loc_42B58C
 42b5f0       loc_42B5F0
 42b62c       loc_42B62C
 42b63b       loc_42B63B
 42b649       loc_42B649
 42b64e       loc_42B64E
 42b65c       loc_42B65C
 42b6ae       loc_42B6AE
 42b6b4       loc_42B6B4
 42b6f7       loc_42B6F7
 42b707       loc_42B707
 42b749       loc_42B749
 42b758       loc_42B758
 42b789       loc_42B789
 42b7af       loc_42B7AF
 42b809       loc_42B809
 42b80c       loc_42B80C
 42b83c       loc_42B83C
 42b856       loc_42B856
 42b8a5       loc_42B8A5
 42b8b8       loc_42B8B8
 42b922       loc_42B922
 42b952       loc_42B952
 42b989       loc_42B989
 42b9bc       loc_42B9BC
 42ba12       loc_42BA12
 42ba39       loc_42BA39
 42ba7f       loc_42BA7F
 42bac0       loc_42BAC0
 42badb       loc_42BADB
 42bae5       loc_42BAE5
 42bb0e       loc_42BB0E
 42bb15       loc_42BB15
 42bb37       loc_42BB37
 42bb4f       loc_42BB4F
 42bb62       loc_42BB62
 42bb65       loc_42BB65
 42bb87       loc_42BB87
 42bbc5       loc_42BBC5
 42bbe0       CEIndex::CEIndex(CCryptFile_*,OPENED_INDEX_INF_*)
 42bc50       CEIndex::~CEIndex(void)
 42bc8b       loc_42BC8B
 42bc92       loc_42BC92
 42bca8       loc_42BCA8
 42bce0       CEIndex::ChkAndPopupNodeData(void)
 42bd36       loc_42BD36
 42bd3c       loc_42BD3C
 42bd3f       loc_42BD3F
 42bd79       loc_42BD79
 42bd87       loc_42BD87
 42bdd2       loc_42BDD2
 42bde1       loc_42BDE1
 42bdf2       sub_42BDF2
 42be0a       sub_42BE0A
 42be20       CEIndex::ReadNode(int,uchar_*)
 42be74       loc_42BE74
 42be7a       loc_42BE7A
 42bead       loc_42BEAD
 42bf11       loc_42BF11
 42bf56       loc_42BF56
 42bf6e       loc_42BF6E
 42bf81       loc_42BF81
 42bf84       loc_42BF84
 42bfb0       CEIndex::WriteNode(int,uchar_*)
 42bfef       loc_42BFEF
 42bff5       loc_42BFF5
 42c01c       loc_42C01C
 42c061       loc_42C061
 42c070       CEIndex::RemoveNode(int,uchar_*)
 42c0ba       loc_42C0BA
 42c0f9       loc_42C0F9
 42c125       loc_42C125
 42c177       loc_42C177
 42c184       loc_42C184
 42c1bb       loc_42C1BB
 42c1f0       loc_42C1F0
 42c221       loc_42C221
 42c233       loc_42C233
 42c241       loc_42C241
 42c258       loc_42C258
 42c2bf       loc_42C2BF
 42c2ca       loc_42C2CA
 42c2ec       loc_42C2EC
 42c317       loc_42C317
 42c32f       loc_42C32F
 42c342       loc_42C342
 42c345       loc_42C345
 42c351       loc_42C351
 42c380       CEIndex::BeginWork(INDEX_HEADER_*)
 42c3bd       loc_42C3BD
 42c3f4       loc_42C3F4
 42c3f6       loc_42C3F6
 42c409       loc_42C409
 42c43e       loc_42C43E
 42c462       loc_42C462
 42c487       sub_42C487
 42c49f       loc_42C49F
 42c4c1       sub_42C4C1
 42c4e0       CEIndex::EndWork(void)
 42c568       loc_42C568
 42c580       loc_42C580
 42c593       loc_42C593
 42c596       loc_42C596
 42c5a5       loc_42C5A5
 42c5c8       loc_42C5C8
 42c5e9       loc_42C5E9
 42c5ef       loc_42C5EF
 42c5f4       loc_42C5F4
 42c631       loc_42C631
 42c63f       loc_42C63F
 42c657       loc_42C657
 42c66a       loc_42C66A
 42c66d       loc_42C66D
 42c692       loc_42C692
 42c6b0       CEIndex::FreeNodeChain(NODE_INF_*)
 42c6c9       loc_42C6C9
 42c6d7       loc_42C6D7
 42c6e9       loc_42C6E9
 42c6f2       loc_42C6F2
 42c704       loc_42C704
 42c710       CEIndex::NewNodeInf(void)
 42c726       loc_42C726
 42c736       loc_42C736
 42c754       loc_42C754
 42c760       CEIndex::CompareItem(uchar_*,uchar_*)
 42c780       CEIndex::CompareItem(uchar_*,uchar_*,OPENED_INDEX_INF_*)
 42c7b3       loc_42C7B3
 42c7b5       loc_42C7B5
 42c7ca       loc_42C7CA
 42c7e3       loc_42C7E3
 42c803       loc_42C803
 42c820       loc_42C820
 42c83c       loc_42C83C
 42c84e       loc_42C84E
 42c859       loc_42C859
 42c882       loc_42C882
 42c8ab       loc_42C8AB
 42c8be       loc_42C8BE
 42c8c7       loc_42C8C7
 42c8cb       loc_42C8CB
 42c90b       loc_42C90B
 42c91d       loc_42C91D
 42c936       loc_42C936
 42c956       loc_42C956
 42c95f       loc_42C95F
 42c96b       loc_42C96B
 42c978       off_42C978
 42c9a0       CEIndex::ConvertKeyData(uchar_*,CFreqMem_&)
 42c9c0       CEIndex::ConvertKeyData(uchar_*,CFreqMem_&,OPENED_INDEX_INF_*)
 42c9eb       loc_42C9EB
 42c9f9       loc_42C9F9
 42ca06       loc_42CA06
 42ca11       loc_42CA11
 42ca1e       loc_42CA1E
 42ca35       loc_42CA35
 42ca4a       loc_42CA4A
 42ca5f       loc_42CA5F
 42ca74       loc_42CA74
 42ca86       loc_42CA86
 42ca9b       loc_42CA9B
 42caae       loc_42CAAE
 42caca       loc_42CACA
 42cacd       loc_42CACD
 42cade       loc_42CADE
 42cb13       loc_42CB13
 42cb26       loc_42CB26
 42cb36       loc_42CB36
 42cbae       loc_42CBAE
 42cbc4       loc_42CBC4
 42cbf3       loc_42CBF3
 42cc05       loc_42CC05
 42cc0d       loc_42CC0D
 42cc20       loc_42CC20
 42cc21       loc_42CC21
 42cc29       loc_42CC29
 42cc2f       loc_42CC2F
 42cc5a       loc_42CC5A
 42cc64       off_42CC64
 42cca0       CEIndex::GetItemBegin(uchar_*,int)
 42ccc0       CEIndex::GetItemData(uchar_*,int)
 42cce0       CEIndex::GetLeftInt(uchar_*,int)
 42cd00       CEIndex::_ReadNodeData(int,uchar_*,NODE_INF_*_*,NODE_INF_*_*)
 42cd3a       loc_42CD3A
 42cd47       loc_42CD47
 42cd49       loc_42CD49
 42cd50       CEIndex::GetLastKey(NODE_INF_*_*,NODE_INF_*_*,int,uchar_*)
 42cd9e       loc_42CD9E
 42cdc9       loc_42CDC9
 42cdcb       loc_42CDCB
 42cdfe       loc_42CDFE
 42ce37       loc_42CE37
 42ce5d       loc_42CE5D
 42ce62       loc_42CE62
 42ce80       CEIndex::GetNextKey(NODE_INF_*_*,NODE_INF_*_*,uchar_*)
 42ceb9       loc_42CEB9
 42cecd       loc_42CECD
 42cede       loc_42CEDE
 42cef7       loc_42CEF7
 42cf0b       loc_42CF0B
 42cf3c       loc_42CF3C
 42cf6f       loc_42CF6F
 42cf85       loc_42CF85
 42cfb3       loc_42CFB3
 42cfcc       loc_42CFCC
 42cfce       loc_42CFCE
 42cfe3       loc_42CFE3
 42d000       CEIndex::InsertItemIntoSpecTreeNode(int,int,SPLIT_INF_*,uchar_*)
 42d08a       loc_42D08A
 42d0ca       loc_42D0CA
 42d140       CEIndex::InsertItemIntoSpecLeafNode(int,int,uchar_*,int,uchar_*)
 42d1ca       loc_42D1CA
 42d203       loc_42D203
 42d270       CEIndex::NewNode(int_*,uchar_*)
 42d2aa       loc_42D2AA
 42d2bc       loc_42D2BC
 42d2d0       CEIndex::SplitLeafNode(SPLIT_INF_*,uchar_*,int,uchar_*,int,uchar_*)
 42d315       loc_42D315
 42d3a1       loc_42D3A1
 42d3a5       loc_42D3A5
 42d41f       loc_42D41F
 42d430       CEIndex::SplitTreeNode(SPLIT_INF_*,int,SPLIT_INF_*,uchar_*,uchar_*)
 42d491       loc_42D491
 42d56c       loc_42D56C
 42d570       loc_42D570
 42d5b9       loc_42D5B9
 42d5c0       CEIndex::_FindIndexItem(uchar_*,int_*,NODE_INF_*_*,NODE_INF_*_*,uchar_*)
 42d62b       loc_42D62B
 42d634       loc_42D634
 42d638       loc_42D638
 42d69c       loc_42D69C
 42d6a5       loc_42D6A5
 42d6d0       loc_42D6D0
 42d6de       loc_42D6DE
 42d6fb       loc_42D6FB
 42d704       loc_42D704
 42d72c       loc_42D72C
 42d736       loc_42D736
 42d754       loc_42D754
 42d770       CEIndex::_AddIndexItem(uchar_*,int,NODE_INF_*_*,NODE_INF_*_*)
 42d7e9       loc_42D7E9
 42d80c       loc_42D80C
 42d82a       loc_42D82A
 42d842       loc_42D842
 42d8ae       loc_42D8AE
 42d8b3       loc_42D8B3
 42d907       loc_42D907
 42d953       loc_42D953
 42d98e       loc_42D98E
 42d9d3       loc_42D9D3
 42da34       loc_42DA34
 42da3c       loc_42DA3C
 42dab1       loc_42DAB1
 42dae7       loc_42DAE7
 42daf0       loc_42DAF0
 42db06       loc_42DB06
 42db2f       loc_42DB2F
 42db3a       loc_42DB3A
 42db60       CEIndex::UpdateLeafNodeParentKey(NODE_INF_*,uchar_*)
 42db8c       loc_42DB8C
 42dba1       loc_42DBA1
 42dbfa       loc_42DBFA
 42dc63       loc_42DC63
 42dc7c       loc_42DC7C
 42dc7e       loc_42DC7E
 42dca0       CEIndex::DeleteItemFromLeafNode(NODE_INF_*,uchar_*)
 42dd08       loc_42DD08
 42dd1b       loc_42DD1B
 42dd56       loc_42DD56
 42dd8a       loc_42DD8A
 42de16       loc_42DE16
 42de30       CEIndex::DeleteItemFromTreeNode(NODE_INF_*,uchar_*,uchar_*,uchar_*)
 42de4d       loc_42DE4D
 42deac       loc_42DEAC
 42debf       loc_42DEBF
 42df01       loc_42DF01
 42df62       loc_42DF62
 42df6e       loc_42DF6E
 42dfa4       loc_42DFA4
 42e154       loc_42E154
 42e16c       loc_42E16C
 42e1ed       loc_42E1ED
 42e1fd       loc_42E1FD
 42e28d       loc_42E28D
 42e291       loc_42E291
 42e425       loc_42E425
 42e447       loc_42E447
 42e4d9       loc_42E4D9
 42e5d6       loc_42E5D6
 42e5db       loc_42E5DB
 42e5f0       CEIndex::AddIndexItem(uchar_*,int,int)
 42e647       loc_42E647
 42e64b       loc_42E64B
 42e67e       loc_42E67E
 42e69a       loc_42E69A
 42e6b0       CEIndex::RemoveIndexItem(uchar_*,int,int)
 42e710       loc_42E710
 42e766       loc_42E766
 42e7b9       loc_42E7B9
 42e7be       loc_42E7BE
 42e7c5       loc_42E7C5
 42e7c7       loc_42E7C7
 42e7d0       loc_42E7D0
 42e7df       loc_42E7DF
 42e7f8       loc_42E7F8
 42e829       loc_42E829
 42e840       CEIndex::ModifyIndexItem(uchar_*,uchar_*,int)
 42e87b       loc_42E87B
 42e909       loc_42E909
 42e90d       loc_42E90D
 42e944       loc_42E944
 42e972       loc_42E972
 42e990       CRgnBtn::OnLButtonDown(uint,CPoint)
 42e9f3       loc_42E9F3
 42ea00       CRgnBtn::OnLButtonUp(uint,CPoint)
 42ea68       loc_42EA68
 42ea7b       loc_42EA7B
 42ea90       CRgnBtn::SetPressState(int)
 42eaad       locret_42EAAD
 42eab0       CRgnBtn::OnMouseMove(uint,CPoint)
 42eb20       loc_42EB20
 42eb2d       loc_42EB2D
 42eb3e       loc_42EB3E
 42eb58       loc_42EB58
 42eb70       loc_42EB70
 42eb81       loc_42EB81
 42eb90       CRgnBtn::OnPaint(void)
 42ecd8       loc_42ECD8
 42ed10       loc_42ED10
 42ed70       CRgnBtn::GetHBitmap(void)
 42ed88       loc_42ED88
 42ed93       loc_42ED93
 42ed96       loc_42ED96
 42edb5       loc_42EDB5
 42edb9       loc_42EDB9
 42edc3       loc_42EDC3
 42edc9       loc_42EDC9
 42edd0       CRgnBtn::draw(int)
 42edf3       loc_42EDF3
 42ee00       CRgnBtn::OnEnable(int)
 42ee20       CColourPicker::CColourPicker(void)
 42eed0       sub_42EED0
 42eee8       loc_42EEE8
 42eef0       sub_42EEF0
 42ef50       CColourPicker::CreateObject(void)
 42ef96       loc_42EF96
 42efb0       sub_42EFB0
 42efc0       sub_42EFC0
 42efd0       CMFCRibbonBaseElement::HitTest(CPoint)
 42efe0       CColourPicker::OnSelEndOK(uint,long)
 42f03b       loc_42F03B
 42f05e       loc_42F05E
 42f070       CColourPicker::OnSelEndCancel(uint,long)
 42f0d7       loc_42F0D7
 42f0f0       CColourPicker::OnSelChange(uint,long)
 42f106       loc_42F106
 42f134       loc_42F134
 42f140       CColourPicker::OnCreate(tagCREATESTRUCTA_*)
 42f153       loc_42F153
 42f160       CColourPicker::OnLButtonUp(uint,CPoint)
 42f1d5       loc_42F1D5
 42f214       loc_42F214
 42f230       CColourPicker::DrawItem(tagDRAWITEMSTRUCT_*)
 42f29a       loc_42F29A
 42f2ec       loc_42F2EC
 42f39c       loc_42F39C
 42f3ab       loc_42F3AB
 42f415       loc_42F415
 42f421       loc_42F421
 42f493       loc_42F493
 42f4ab       loc_42F4AB
 42f4c2       loc_42F4C2
 42f4e7       loc_42F4E7
 42f530       CColourPicker::PreSubclassWindow(void)
 42f550       CColourPicker::GetColour(void)
 42f55a       loc_42F55A
 42f560       CColourPicker::SetColour(ulong)
 42f573       loc_42F573
 42f580       CColourPicker::SetBkColour(ulong)
 42f5ab       loc_42F5AB
 42f5b0       CColourPicker::SetTextColour(ulong)
 42f5db       loc_42F5DB
 42f5e0       CColourPicker::SetWindowSize(void)
 42f610       loc_42F610
 42f614       loc_42F614
 42f626       loc_42F626
 42f628       loc_42F628
 42f638       loc_42F638
 42f669       loc_42F669
 42f6c0       sub_42F6C0
 42f6d0       CProcessor::SetDataSource(CMDataSource_*)
 42f6e9       loc_42F6E9
 42f6f8       loc_42F6F8
 42f700       MReflectLastMsg(HWND___*,long_*)
 42f70e       loc_42F70E
 42f733       loc_42F733
 42f750       MProcessNotify(CWnd_*,uint,long,long_*)
 42f78c       loc_42F78C
 42f7ab       loc_42F7AB
 42f7e0       ProcessCommand(CWnd_*,uint,long)
 42f817       loc_42F817
 42f844       loc_42F844
 42f86d       loc_42F86D
 42f8d3       loc_42F8D3
 42f8e5       loc_42F8E5
 42f8f1       loc_42F8F1
 42f921       loc_42F921
 42f937       loc_42F937
 42f943       loc_42F943
 42f94d       loc_42F94D
 42f95f       loc_42F95F
 42f970       unknown_libname_231
 42f980       ProcessDrawItem(int,tagDRAWITEMSTRUCT_*)
 42f9a6       loc_42F9A6
 42f9bf       loc_42F9BF
 42f9d0       ProcesssScroll(CWnd_*)
 42f9f2       loc_42F9F2
 42fa06       loc_42FA06
 42fa10       CGifWnd::CGifWnd(void)
 42fa90       sub_42FA90
 42faa8       loc_42FAA8
 42fab0       stdiobuf::~stdiobuf(void)
 42faf1       loc_42FAF1
 42fb04       loc_42FB04
 42fb17       loc_42FB17
 42fb40       CGifWnd::EmptyGif(void)
 42fb59       loc_42FB59
 42fb6c       loc_42FB6C
 42fb7f       loc_42FB7F
 42fb90       CGifWnd::init(void)
 42fc10       sub_42FC10
 42fc20       CGifWnd::OnPaint(void)
 42fc80       CGifWnd::GetShowPos(int_&,int_&,int_&,int_&)
 42fd13       loc_42FD13
 42fd3d       loc_42FD3D
 42fd53       loc_42FD53
 42fd7a       loc_42FD7A
 42fdd4       loc_42FDD4
 42fdee       loc_42FDEE
 42fe06       loc_42FE06
 42fe10       CGifWnd::PaintGif(CPaintDC_&)
 42fe3e       loc_42FE3E
 42fe45       loc_42FE45
 42fea5       loc_42FEA5
 42fea8       loc_42FEA8
 42fed5       loc_42FED5
 42fee1       loc_42FEE1
 42ff11       loc_42FF11
 42ff14       loc_42FF14
 42ff3e       loc_42FF3E
 42ff58       loc_42FF58
 42ff62       loc_42FF62
 42ff8a       loc_42FF8A
 42ff8d       loc_42FF8D
 42ffbe       loc_42FFBE
 430008       loc_430008
 43004c       loc_43004C
 430079       loc_430079
 43008e       loc_43008E
 4300b0       CGifWnd::Play(void)
 430110       loc_430110
 430120       CGifWnd::Stop(void)
 430144       loc_430144
 43014e       locret_43014E
 430150       ThreadFunc(void_*)
 430160       CGifWnd::Play1(void)
 4301c7       loc_4301C7
 4301d1       loc_4301D1
 430299       loc_430299
 43029f       loc_43029F
 4302c2       loc_4302C2
 4302da       loc_4302DA
 4302e4       loc_4302E4
 430310       loc_430310
 43035c       loc_43035C
 430389       loc_430389
 4303d5       loc_4303D5
 43054a       loc_43054A
 43056f       loc_43056F
 430582       loc_430582
 4305f2       loc_4305F2
 43061a       loc_43061A
 430645       loc_430645
 43064f       loc_43064F
 43065c       loc_43065C
 430660       loc_430660
 43068b       loc_43068B
 43069a       loc_43069A
 4306a9       loc_4306A9
 4306f0       CGifWnd::load(uchar_*,int)
 430710       loc_430710
 430723       loc_430723
 43073a       loc_43073A
 430799       loc_430799
 43080f       loc_43080F
 430818       loc_430818
 43083e       loc_43083E
 430841       loc_430841
 4308f4       loc_4308F4
 430906       loc_430906
 430920       CGifWnd::FirstImage(void)
 430940       loc_430940
 430966       loc_430966
 43099a       loc_43099A
 4309ca       loc_4309CA
 430a21       loc_430A21
 430a2f       loc_430A2F
 430a73       loc_430A73
 430a93       loc_430A93
 430ad4       loc_430AD4
 430af0       loc_430AF0
 430b2b       loc_430B2B
 430b4d       loc_430B4D
 430b5f       loc_430B5F
 430b6d       loc_430B6D
 430b7f       loc_430B7F
 430b87       loc_430B87
 430b94       off_430B94
 430ba4       byte_430BA4
 430be0       off_430BE0
 430bf4       byte_430BF4
 430d00       CGifWnd::TakeIt(void)
 430dc0       loc_430DC0
 430e4d       loc_430E4D
 430e66       loc_430E66
 430eb0       loc_430EB0
 430ee3       loc_430EE3
 430eef       loc_430EEF
 430f13       loc_430F13
 430f74       loc_430F74
 430faf       loc_430FAF
 43100a       loc_43100A
 431025       loc_431025
 43103f       loc_43103F
 431090       loc_431090
 4310ec       loc_4310EC
 431105       loc_431105
 43111f       loc_43111F
 431162       loc_431162
 4311bf       loc_4311BF
 431213       loc_431213
 43122e       loc_43122E
 431249       loc_431249
 43129a       loc_43129A
 4312f7       loc_4312F7
 431332       loc_431332
 43133b       loc_43133B
 431344       loc_431344
 43134d       loc_43134D
 431367       loc_431367
 431381       loc_431381
 431399       loc_431399
 4313a5       loc_4313A5
 4313c5       loc_4313C5
 4313df       loc_4313DF
 431411       loc_431411
 431434       loc_431434
 43143d       loc_43143D
 431446       loc_431446
 43144f       loc_43144F
 431467       loc_431467
 431481       loc_431481
 431499       loc_431499
 4314a5       loc_4314A5
 4314bc       loc_4314BC
 4314c5       loc_4314C5
 4314f8       loc_4314F8
 431501       loc_431501
 43150a       loc_43150A
 431513       loc_431513
 43152b       loc_43152B
 431545       loc_431545
 43155d       loc_43155D
 431569       loc_431569
 431580       loc_431580
 43158d       loc_43158D
 4315ba       loc_4315BA
 4315c9       loc_4315C9
 4315d6       loc_4315D6
 4315f4       loc_4315F4
 431620       loc_431620
 431647       loc_431647
 43164f       loc_43164F
 431658       loc_431658
 431661       loc_431661
 431679       loc_431679
 43167e       loc_43167E
 43169c       loc_43169C
 4316b4       loc_4316B4
 4316c9       loc_4316C9
 4316da       loc_4316DA
 4316e5       loc_4316E5
 431711       loc_431711
 431719       loc_431719
 431722       loc_431722
 43172b       loc_43172B
 431743       loc_431743
 43175d       loc_43175D
 43176c       loc_43176C
 431778       loc_431778
 43178f       loc_43178F
 4317a2       loc_4317A2
 4317c5       loc_4317C5
 4317cd       loc_4317CD
 4317d6       loc_4317D6
 4317df       loc_4317DF
 4317f9       loc_4317F9
 431813       loc_431813
 431825       loc_431825
 431831       loc_431831
 431848       loc_431848
 431875       loc_431875
 431895       loc_431895
 4318ac       loc_4318AC
 4318c3       loc_4318C3
 4318da       loc_4318DA
 43190a       loc_43190A
 431960       CGifWnd::PostNcDestroy(void)
 431975       loc_431975
 431980       CGifWnd::put_GifData(uchar_*,int)
 43199c       loc_43199C
 4319b0       loc_4319B0
 4319c0       CGifWnd::put_DrawWay(int)
 4319db       loc_4319DB
 4319e0       loc_4319E0
 431a05       loc_431A05
 431a0f       loc_431A0F
 431a35       loc_431A35
 431a40       CGifWnd::AutoSizeWnd(void)
 431a8b       loc_431A8B
 431ad5       loc_431AD5
 431ae0       CGifWnd::GetByte(void)
 431b31       loc_431B31
 431b47       loc_431B47
 431b70       unknown_libname_232
 431b90       unknown_libname_233
 431ba0       unknown_libname_234
 431bd0       allocateBlocks(int,int)
 431bf7       loc_431BF7
 431c06       loc_431C06
 431c13       loc_431C13
 431c20       freeBlocks(wavehdr_tag_*)
 431c40       AddInterface(HWAVEOUT___*_*,tWAVEFORMATEX_*,int_volatile_*,ulong)
 431c4e       loc_431C4E
 431c80       RemoveInterface(HWAVEOUT___*)
 431ca0       MyStopPlaySound(int)
 431cd8       loc_431CD8
 431cff       loc_431CFF
 431d31       loc_431D31
 431d49       loc_431D49
 431d69       loc_431D69
 431d90       GlobalStopPlay(void)
 431da5       loc_431DA5
 431dc9       loc_431DC9
 431de0       MyPlaySound(void_*,int,int)
 431e5f       loc_431E5F
 431e83       loc_431E83
 431ea2       loc_431EA2
 431eba       loc_431EBA
 431ebe       loc_431EBE
 431efd       loc_431EFD
 431f07       loc_431F07
 432012       loc_432012
 432017       loc_432017
 43201f       loc_43201F
 432024       loc_432024
 432030       loc_432030
 43204e       loc_43204E
 432062       loc_432062
 43207d       loc_43207D
 432091       loc_432091
 4320e3       loc_4320E3
 43212f       loc_43212F
 43213d       loc_43213D
 43215b       loc_43215B
 432167       loc_432167
 43216e       loc_43216E
 43217a       loc_43217A
 432180       loc_432180
 4321c0       GlobalPlayThread(void_*)
 4321c8       loc_4321C8
 4321f4       loc_4321F4
 43222e       loc_43222E
 432244       loc_432244
 432248       loc_432248
 4322b0       loc_4322B0
 4322e9       loc_4322E9
 4322f5       loc_4322F5
 43230b       loc_43230B
 432327       loc_432327
 432334       loc_432334
 43234c       loc_43234C
 432357       loc_432357
 432370       loc_432370
 432387       loc_432387
 432395       loc_432395
 4323a7       loc_4323A7
 4323b3       loc_4323B3
 432410       globalWaveOutProc(HWAVEOUT___*,uint,ulong,ulong,ulong)
 43244c       loc_43244C
 432450       std::vector<GWAVE_*,std::allocator<GWAVE_*>>::size(void)
 43245a       loc_43245A
 432470       std::vector<GWAVE_*,std::allocator<GWAVE_*>>::_Ucopy(GWAVE_*_const_*,GWAVE_*_const_*,GWAVE_*_*)
 432481       loc_432481
 432489       loc_432489
 432497       loc_432497
 4324a0       std::vector<GWAVE_*,std::allocator<GWAVE_*>>::_Ufill(GWAVE_*_*,uint,GWAVE_*_const_&)
 4324b3       loc_4324B3
 4324bb       loc_4324BB
 4324c2       locret_4324C2
 4324d0       std::_Construct(GWAVE_*_*,GWAVE_*_const_&)
 4324e0       locret_4324E0
 4324f0       CKrnlApp::LibInitUserProgram(void)
 432565       loc_432565
 4325ab       loc_4325AB
 4325bf       loc_4325BF
 4326a7       loc_4326A7
 432702       loc_432702
 43271f       loc_43271F
 432724       loc_432724
 43272a       loc_43272A
 432750       loc_432750
 432755       loc_432755
 432767       loc_432767
 43278a       loc_43278A
 43278f       loc_43278F
 4327c1       loc_4327C1
 43289b       loc_43289B
 4328b0       loc_4328B0
 4328f9       loc_4328F9
 432901       loc_432901
 43293e       loc_43293E
 43294e       loc_43294E
 432954       loc_432954
 43295a       loc_43295A
 432966       loc_432966
 43297c       loc_43297C
 4329bc       loc_4329BC
 4329d7       loc_4329D7
 432a04       loc_432A04
 432a22       loc_432A22
 432a40       GetMD5(uchar_*,uint,char_*)
 432aa0       loc_432AA0
 432ab0       std::locale::facet::`scalar_deleting_destructor'(uint)
 432aca       loc_432ACA
 432ad0       CMD5Checksum::ByteToDWord(ulong_*,uchar_*,uint)
 432aed       loc_432AED
 432b1a       loc_432B1A
 432b20       CMD5Checksum::Transform(uchar_*_const)
 4334f0       CMD5Checksum::II(ulong_&,ulong,ulong,ulong,ulong,ulong,ulong)
 433540       CMD5Checksum::CMD5Checksum(void)
 433580       CMD5Checksum::DWordToByte(uchar_*,ulong_*,uint)
 43359a       loc_43359A
 4335c7       loc_4335C7
 4335d0       CMD5Checksum::Final(char_*)
 433600       loc_433600
 433644       loc_433644
 433657       loc_433657
 433668       loc_433668
 433673       loc_433673
 433681       loc_433681
 4336c0       CMD5Checksum::Update(uchar_*,ulong)
 4336e9       loc_4336E9
 433731       loc_433731
 43374b       loc_43374B
 433753       loc_433753
 433755       loc_433755
 433780       ReadJpeg(CBaseStream_*,uint_*,uint_*,uchar_*_(*)(int))
 4337a0       JpegFile::JpegFileToRGB(CBaseStream_*,uint_*,uint_*,uchar_*_(*)(int))
 433807       loc_433807
 433879       loc_433879
 4338c2       loc_4338C2
 4338f5       loc_4338F5
 43390e       loc_43390E
 433911       loc_433911
 433921       loc_433921
 433950       my_error_exit(jpeg_common_struct_*)
 433970       j_putRGBScanline(uchar_*,int,uchar_*,int)
 433993       loc_433993
 4339b5       loc_4339B5
 4339c0       j_putGrayScanlineToRGB(uchar_*,int,uchar_*,int)
 4339e2       loc_4339E2
 4339f6       loc_4339F6
 433a00       ReadFile(CFile_*,uchar_*,int)
 433a65       sub_433A65
 433a71       loc_433A71
 433aa0       ReadBMP(CFile_*,uint_*,uint_*)
 433b16       loc_433B16
 433b5b       loc_433B5B
 433b83       loc_433B83
 433bae       loc_433BAE
 433c02       loc_433C02
 433c1c       loc_433C1C
 433c25       loc_433C25
 433c5f       loc_433C5F
 433c9b       loc_433C9B
 433cf2       loc_433CF2
 433d2a       loc_433D2A
 433d47       loc_433D47
 433d8b       loc_433D8B
 433da1       loc_433DA1
 433da7       loc_433DA7
 433dc6       loc_433DC6
 433ddf       loc_433DDF
 433dec       loc_433DEC
 433e1c       loc_433E1C
 433e33       loc_433E33
 433e48       loc_433E48
 433e54       loc_433E54
 433e5b       loc_433E5B
 433e5c       loc_433E5C
 433e64       loc_433E64
 433e77       loc_433E77
 433e87       loc_433E87
 433eb0       loc_433EB0
 433ece       loc_433ECE
 433eef       loc_433EEF
 433f0a       loc_433F0A
 433f27       loc_433F27
 433f52       loc_433F52
 433f58       loc_433F58
 433f76       loc_433F76
 433f83       loc_433F83
 433f93       loc_433F93
 433fa8       off_433FA8
 433fb4       byte_433FB4
 433fe0       CPrinterSetup::CPrinterSetup(CWnd_*)
 434270       CPrinterSetup::`scalar_deleting_destructor'(uint)
 434288       loc_434288
 434290       CPrinterSetup::DoDataExchange(CDataExchange_*)
 434440       byte_434440
 434443       sub_434443
 4344e5       loc_4344E5
 43452a       loc_43452A
 43453e       loc_43453E
 43455a       loc_43455A
 4345b2       loc_4345B2
 4345e5       loc_4345E5
 434600       CPrinterSetup::OnEnableControl(void)
 434610       CPrinterSetup::OnSetPrintIntoFile(void)
 4346d6       loc_4346D6
 434720       AddEditboxInt(CEdit_*,int,int,_NM_UPDOWN_*)
 43478a       loc_43478A
 4347a8       loc_4347A8
 4347b4       loc_4347B4
 4347da       loc_4347DA
 4347f8       loc_4347F8
 434870       CPrinterSetup::OnDeltaposSpinPrintCopies(tagNMHDR_*,long_*)
 4348a0       CPrinterSetup::OnDeltaposSpinTopExtra(tagNMHDR_*,long_*)
 4348d0       CPrinterSetup::OnDeltaposSpinBottomExtra(tagNMHDR_*,long_*)
 434900       CPrinterSetup::OnDeltaposSpinLeftExtra(tagNMHDR_*,long_*)
 434930       CPrinterSetup::OnDeltaposSpinRightExtra(tagNMHDR_*,long_*)
 434960       CPrinterSetup::OnDeltaposSpinFirstPageNum(tagNMHDR_*,long_*)
 434990       CPrinterSetup::OnDeltaposSpinBegin(tagNMHDR_*,long_*)
 4349c0       CPrinterSetup::OnDeltaposSpinEnd(tagNMHDR_*,long_*)
 4349f0       CPrinterSetup::OnDeltaposPrintScale(tagNMHDR_*,long_*)
 434a20       CPrinterSetup::OnDeltaposLinesPrePage(tagNMHDR_*,long_*)
 434a50       CPrinterSetup::OnInitDialog(void)
 434afc       loc_434AFC
 434ba3       loc_434BA3
 434bc2       loc_434BC2
 434bf6       loc_434BF6
 434c03       loc_434C03
 434c19       loc_434C19
 434c2a       loc_434C2A
 434d65       loc_434D65
 434d90       loc_434D90
 434da6       loc_434DA6
 434ddf       loc_434DDF
 434df0       loc_434DF0
 434dff       loc_434DFF
 434e01       loc_434E01
 434e53       loc_434E53
 434e64       loc_434E64
 434e7d       loc_434E7D
 434e8e       loc_434E8E
 434ec9       loc_434EC9
 434ee0       CPrinterSetup::EnableControls(void)
 434f57       loc_434F57
 434f5c       loc_434F5C
 434fa5       loc_434FA5
 434fa7       loc_434FA7
 434fe8       loc_434FE8
 435015       loc_435015
 435070       CPrinterSetup::ToDivTenStr(int,char_*)
 4350a8       loc_4350A8
 4350c1       loc_4350C1
 4350e0       CPrinterSetup::OnOK(void)
 435143       loc_435143
 435156       loc_435156
 435199       loc_435199
 4351ac       loc_4351AC
 4351ef       loc_4351EF
 435202       loc_435202
 435245       loc_435245
 435258       loc_435258
 435283       loc_435283
 435295       loc_435295
 4352c4       loc_4352C4
 4352d1       loc_4352D1
 4352fc       loc_4352FC
 435309       loc_435309
 435338       loc_435338
 435345       loc_435345
 4353d4       loc_4353D4
 4353e6       loc_4353E6
 43540b       loc_43540B
 43542e       loc_43542E
 435438       loc_435438
 435461       loc_435461
 43546e       loc_43546E
 4354ba       loc_4354BA
 4354cf       loc_4354CF
 4354d9       loc_4354D9
 435507       loc_435507
 435512       loc_435512
 43553e       loc_43553E
 43556a       loc_43556A
 43559e       loc_43559E
 4355d0       sub_4355D0
 4355fa       loc_4355FA
 435600       sub_435600
 43562a       loc_43562A
 435630       ChgUnit(double,int,int)
 435641       loc_435641
 435658       loc_435658
 435669       loc_435669
 435676       loc_435676
 435683       loc_435683
 435690       loc_435690
 43569d       loc_43569D
 4356b0       loc_4356B0
 4356bd       loc_4356BD
 4356ca       loc_4356CA
 4356d7       loc_4356D7
 4356e8       loc_4356E8
 4356f5       loc_4356F5
 435702       loc_435702
 43570f       loc_43570F
 43571c       loc_43571C
 435729       loc_435729
 435736       loc_435736
 435743       loc_435743
 435750       loc_435750
 43575d       loc_43575D
 43576a       loc_43576A
 435776       locret_435776
 435778       off_435778
 43578c       off_43578C
 43579c       off_43579C
 4357ac       off_4357AC
 4357c0       off_4357C0
 4357d4       off_4357D4
 4357f0       GetPrinterInfo(HDC___*,int_*,int_*,int_*,int_*,int_*,int_*,int_*,int_*)
 4359c0       SetDCMapMode(CDC_*,int,int)
 435a50       CPreviewDlg::OnCancel(void)
 435a60       CPreviewDlg::OnPaint(void)
 435b30       CPreviewDlg::OnSize(uint,int,int)
 435ba1       loc_435BA1
 435bb0       CPreviewDlg::OnPrint(void)
 435bea       loc_435BEA
 435c00       CPreviewDlg::OnPrinterSetup(void)
 435c29       loc_435C29
 435c40       CPreviewDlg::OnZoomIn(void)
 435c70       CPreviewDlg::OnZoomOut(void)
 435ca0       CPreviewDlg::OnAllWidth(void)
 435cd0       CPreviewDlg::OnAllHeight(void)
 435d00       CPreviewDlg::OnPrevPage(void)
 435d20       CPreviewDlg::OnNextPage(void)
 435d40       CPreviewDlg::OnGotoSpecPage(void)
 435db1       loc_435DB1
 435e10       CGotoPageDlg::~CGotoPageDlg(void)
 435e70       CPreviewDlg::RefrushLabel(void)
 435ec0       CPreviewWnd::OnCreate(tagCREATESTRUCTA_*)
 435ed3       loc_435ED3
 435ee0       CPreviewWnd::OnSize(uint,int,int)
 435efa       loc_435EFA
 435f10       CPreviewWnd::ReLayout(void)
 435f47       loc_435F47
 435f4e       loc_435F4E
 435f8b       loc_435F8B
 435fbf       loc_435FBF
 436015       loc_436015
 436020       CPreviewWnd::InitScrollRange(void)
 436150       CPreviewWnd::ChangeRate(int)
 436174       loc_436174
 43617b       loc_43617B
 436180       loc_436180
 4361a0       CPreviewWnd::SetRate(int,int)
 436262       loc_436262
 436264       loc_436264
 436270       loc_436270
 4362b0       CPreviewWnd::OnHScroll(uint,uint,CScrollBar_*)
 4362ea       loc_4362EA
 4362ee       loc_4362EE
 4362f6       loc_4362F6
 4362f9       loc_4362F9
 4362fc       loc_4362FC
 436301       loc_436301
 436306       loc_436306
 43630a       loc_43630A
 436314       loc_436314
 436316       loc_436316
 43631e       loc_43631E
 436324       loc_436324
 436342       loc_436342
 43634c       off_43634C
 436370       CPreviewWnd::OnVScroll(uint,uint,CScrollBar_*)
 4363aa       loc_4363AA
 4363ae       loc_4363AE
 4363b6       loc_4363B6
 4363b9       loc_4363B9
 4363bc       loc_4363BC
 4363c1       loc_4363C1
 4363c6       loc_4363C6
 4363ca       loc_4363CA
 4363d4       loc_4363D4
 4363d6       loc_4363D6
 4363de       loc_4363DE
 4363e4       loc_4363E4
 436402       loc_436402
 43640c       off_43640C
 436430       CPreviewWnd::OnPaint(void)
 4364a2       loc_4364A2
 4364b9       loc_4364B9
 4364dd       loc_4364DD
 4364f8       loc_4364F8
 4364fd       loc_4364FD
 4365b2       loc_4365B2
 436855       loc_436855
 436857       loc_436857
 4368e1       loc_4368E1
 436912       loc_436912
 436930       Concurrency::details::UMSThreadVirtualProcessor::GetDefaultDestination(void)
 436940       Concurrency::details::UMSSchedulerProxy::GetCompletionListEvent(void)
 436950       CPreviewWnd::GoPrevPage(void)
 436960       CPreviewWnd::GoNextPage(void)
 436970       CPreviewWnd::GoPage(int)
 43698e       loc_43698E
 4369d0       loc_4369D0
 4369f0       CInPlaceEdit::CInPlaceEdit(CWnd_*,CRect_&,uint,int,int,char_*,int,CFont_*,ulong,ulong)
 436ad0       loc_436AD0
 436b05       loc_436B05
 436b0c       loc_436B0C
 436b30       CInPlaceEdit::`scalar_deleting_destructor'(uint)
 436b48       loc_436B48
 436b50       CInPlaceEdit::~CInPlaceEdit(void)
 436bc0       sub_436BC0
 436bd0       CInPlaceEdit::OnKeyDown(uint,uint,uint)
 436be9       loc_436BE9
 436bff       loc_436BFF
 436c16       loc_436C16
 436c30       CInPlaceEdit::OnKeyUp(uint,uint,uint)
 436c46       loc_436C46
 436c50       CInPlaceEdit::OnKillFocus(CWnd_*)
 436c70       CInPlaceEdit::AdjustRect(void)
 436d60       loc_436D60
 436d8c       loc_436D8C
 436d96       loc_436D96
 436db1       loc_436DB1
 436db9       loc_436DB9
 436dc7       loc_436DC7
 436dce       loc_436DCE
 436dde       loc_436DDE
 436de6       loc_436DE6
 436dea       loc_436DEA
 436e07       loc_436E07
 436e0b       loc_436E0B
 436e15       loc_436E15
 436e1e       loc_436E1E
 436e20       loc_436E20
 436e2f       loc_436E2F
 436e42       loc_436E42
 436e84       loc_436E84
 436e96       loc_436E96
 436ebb       loc_436EBB
 436ee0       loc_436EE0
 436f15       loc_436F15
 436f50       CInPlaceEdit::OnChar(uint,uint,uint)
 436f72       loc_436F72
 436f80       CInPlaceEdit::PreTranslateMessage(tagMSG_*)
 436fa7       loc_436FA7
 436fb5       loc_436FB5
 436fc0       unknown_libname_92
 436fd5       loc_436FD5
 436fe0       CInPlaceEdit::OnEndEdit(void)
 436ff0       CInPlaceEdit::EndEdit(void)
 437044       loc_437044
 43704b       loc_43704B
 437086       loc_437086
 4370a7       loc_4370A7
 4370b9       loc_4370B9
 4370e0       CInPlaceEdit::CtlColor(CDC_*,uint)
 43710a       loc_43710A
 437110       CWnd::OnCreate(tagCREATESTRUCTA_*)
 437120       CMPrintStatusDlg::CMPrintStatusDlg(CWnd_*)
 4371b0       CMPrintStatusDlg::`scalar_deleting_destructor'(uint)
 4371c8       loc_4371C8
 4371d0       CMPrintStatusDlg::DoDataExchange(CDataExchange_*)
 437200       sub_437200
 437210       CMPrintStatusDlg::OnInitDialog(void)
 437252       loc_437252
 4372af       loc_4372AF
 4372e3       loc_4372E3
 437314       loc_437314
 437354       loc_437354
 437366       loc_437366
 43737a       loc_43737A
 43738f       loc_43738F
 437451       loc_437451
 437478       loc_437478
 437496       loc_437496
 4374ab       loc_4374AB
 4374b0       loc_4374B0
 43755b       loc_43755B
 43758a       loc_43758A
 43762f       loc_43762F
 437645       loc_437645
 43776f       loc_43776F
 4377a8       loc_4377A8
 4377aa       loc_4377AA
 4377eb       loc_4377EB
 437811       loc_437811
 437840       loc_437840
 437892       loc_437892
 4378b6       loc_4378B6
 4378de       loc_4378DE
 437903       loc_437903
 43794a       loc_43794A
 437977       loc_437977
 437990       loc_437990
 43799b       loc_43799B
 4379c7       loc_4379C7
 4379ed       loc_4379ED
 437a22       loc_437A22
 437a2b       loc_437A2B
 437a60       CMPrintStatusDlg::OnDestroy(void)
 437a70       sub_437A70
 437a80       sub_437A80
 437a98       loc_437A98
 437aa0       CColourPopup::`scalar_deleting_destructor'(uint)
 437ab8       loc_437AB8
 437ac0       CColourPopup::CColourPopup(CPoint,ulong,CWnd_*,char_const_*,char_const_*)
 437b5f       loc_437B5F
 437b62       loc_437B62
 437b77       loc_437B77
 437b8e       loc_437B8E
 437bd0       CColourPopup::Initialise(void)
 437c38       loc_437C38
 437c93       loc_437C93
 437cb4       loc_437CB4
 437ce0       CColourPopup::~CColourPopup(void)
 437da0       CColourPopup::Create(CPoint,ulong,CWnd_*,char_const_*,char_const_*)
 437dc6       loc_437DC6
 437dc9       loc_437DC9
 437e08       loc_437E08
 437e5e       loc_437E5E
 437e6f       loc_437E6F
 437e80       loc_437E80
 437ed0       sub_437ED0
 437ee0       CColourPopup::WindowProc(uint,uint,long)
 437f10       loc_437F10
 437f17       loc_437F17
 437f51       loc_437F51
 437f70       CColourPopup::OnKeyDown(uint,uint,uint)
 437fbe       loc_437FBE
 437fe6       loc_437FE6
 438000       loc_438000
 438024       loc_438024
 438041       loc_438041
 43804b       loc_43804B
 438061       loc_438061
 43807b       loc_43807B
 438085       loc_438085
 43808b       loc_43808B
 4380a3       loc_4380A3
 4380ae       loc_4380AE
 4380b1       loc_4380B1
 4380d9       loc_4380D9
 4380ef       loc_4380EF
 4380f8       loc_4380F8
 438119       loc_438119
 43811e       loc_43811E
 438133       loc_438133
 43813a       loc_43813A
 438145       loc_438145
 438158       loc_438158
 43816b       loc_43816B
 43817e       loc_43817E
 438187       loc_438187
 4381a5       loc_4381A5
 4381c8       loc_4381C8
 4381df       loc_4381DF
 438200       CColourPopup::OnPaint(void)
 438245       loc_438245
 43824f       loc_43824F
 438264       loc_438264
 43827d       loc_43827D
 4382d0       CColourPopup::OnMouseMove(uint,CPoint)
 438308       loc_438308
 438325       loc_438325
 438339       loc_438339
 438358       loc_438358
 438365       loc_438365
 438380       CColourPopup::OnLButtonDown(uint,CPoint)
 4383a0       CColourPopup::OnLButtonUp(uint,CPoint)
 4383ef       loc_4383EF
 4383fb       loc_4383FB
 438400       CColourPopup::GetIndex(int,int)
 438414       loc_438414
 438428       loc_438428
 438432       loc_438432
 438446       loc_438446
 438466       loc_438466
 438469       loc_438469
 438470       CColourPopup::GetRow(int)
 43848b       loc_43848B
 4384a2       loc_4384A2
 4384b2       loc_4384B2
 4384c0       CColourPopup::GetColumn(int)
 4384db       loc_4384DB
 4384f2       loc_4384F2
 438504       loc_438504
 438510       CColourPopup::FindCellFromColour(ulong)
 438539       loc_438539
 438547       loc_438547
 438553       loc_438553
 438569       loc_438569
 438571       loc_438571
 438580       CColourPopup::GetCellRect(int,tagRECT_*_const_&)
 43859e       loc_43859E
 4385b2       loc_4385B2
 4385ca       loc_4385CA
 438624       loc_438624
 438648       loc_438648
 438650       CColourPopup::SetWindowSize(void)
 438686       loc_438686
 4386d9       loc_4386D9
 438700       loc_438700
 43870a       loc_43870A
 43873d       loc_43873D
 438741       loc_438741
 438775       loc_438775
 4387d8       loc_4387D8
 43881b       loc_43881B
 438838       loc_438838
 43888e       loc_43888E
 4388b6       loc_4388B6
 4388c4       loc_4388C4
 4388d6       loc_4388D6
 438910       CColourPopup::CreateToolTips(void)
 43893b       loc_43893B
 438966       loc_438966
 438972       loc_438972
 438980       CColourPopup::ChangeSelection(int)
 4389be       loc_4389BE
 4389c9       loc_4389C9
 4389d3       loc_4389D3
 4389e7       loc_4389E7
 438a14       loc_438A14
 438a2c       loc_438A2C
 438a3c       loc_438A3C
 438a48       loc_438A48
 438a70       CColourPopup::EndSelection(int)
 438aef       loc_438AEF
 438af4       loc_438AF4
 438b12       loc_438B12
 438b1a       loc_438B1A
 438b26       loc_438B26
 438b4e       loc_438B4E
 438b70       sub_438B70
 438b80       CColourPopup::DrawCell(CDC_*,int)
 438c99       loc_438C99
 438ca7       loc_438CA7
 438cc2       loc_438CC2
 438cd4       loc_438CD4
 438cda       loc_438CDA
 438d16       loc_438D16
 438d90       loc_438D90
 438d9a       loc_438D9A
 438e47       loc_438E47
 438e59       loc_438E59
 438e5f       loc_438E5F
 438eaf       loc_438EAF
 438f07       loc_438F07
 438f23       loc_438F23
 438f33       loc_438F33
 438f4e       loc_438F4E
 438f60       loc_438F60
 438f66       loc_438F66
 43906c       loc_43906C
 439093       loc_439093
 439098       loc_439098
 4390b0       CColourPopup::OnQueryNewPalette(void)
 4390d0       CColourPopup::OnPaletteChanged(CWnd_*)
 4390e4       loc_4390E4
 4390e7       loc_4390E7
 4390ef       loc_4390EF
 4390f2       loc_4390F2
 439104       loc_439104
 439110       CColourPopup::OnKillFocus(CWnd_*)
 439120       CColourPopup::OnActivateApp(int,HTASK___*)
 439146       loc_439146
 439150       jpeg_CreateDecompress(jpeg_decompress_struct_*,int,uint)
 43916c       loc_43916C
 43917e       loc_43917E
 4391ca       loc_4391CA
 4391f0       unknown_libname_372
 439200       jpeg_read_header(jpeg_decompress_struct_*,int)
 43921e       loc_43921E
 43923f       loc_43923F
 43924f       loc_43924F
 439254       loc_439254
 439260       jpeg_consume_input(jpeg_decompress_struct_*)
 439284       loc_439284
 43929f       loc_43929F
 4392c7       loc_4392C7
 4392cf       loc_4392CF
 4392de       loc_4392DE
 4392e6       loc_4392E6
 4392ec       off_4392EC
 439300       byte_439300
 439310       default_decompress_parms(jpeg_decompress_struct_*)
 43933f       loc_43933F
 43936a       loc_43936A
 439379       loc_439379
 439384       loc_439384
 43939f       loc_43939F
 4393c1       loc_4393C1
 4393d1       loc_4393D1
 4393fc       loc_4393FC
 43940b       loc_43940B
 43941b       loc_43941B
 439431       loc_439431
 439437       loc_439437
 439480       jpeg_finish_decompress(jpeg_decompress_struct_*)
 439496       loc_439496
 4394b2       loc_4394B2
 4394c8       loc_4394C8
 4394d8       loc_4394D8
 4394e7       loc_4394E7
 4394f4       loc_4394F4
 43950b       loc_43950B
 439522       loc_439522
 439530       jpeg_start_decompress(jpeg_decompress_struct_*)
 43955c       loc_43955C
 439563       loc_439563
 43957a       loc_43957A
 439587       loc_439587
 4395ad       loc_4395AD
 4395ce       loc_4395CE
 4395d2       loc_4395D2
 4395e9       loc_4395E9
 4395f8       loc_4395F8
 439610       output_pass_setup(jpeg_decompress_struct_*)
 43963a       loc_43963A
 43964d       loc_43964D
 439656       loc_439656
 439672       loc_439672
 439691       loc_439691
 4396ba       loc_4396BA
 4396d5       loc_4396D5
 4396e0       jpeg_read_scanlines(jpeg_decompress_struct_*,uchar_*_*,uint)
 4396f6       loc_4396F6
 439712       loc_439712
 43972e       loc_43972E
 439770       jpeg_stdio_src(jpeg_decompress_struct_*,CBaseStream_*)
 4397a0       loc_4397A0
 4397e0       init_source(jpeg_decompress_struct_*)
 4397f0       fill_input_buffer(jpeg_decompress_struct_*)
 43981d       loc_43981D
 43983a       loc_43983A
 439860       skip_input_data(jpeg_decompress_struct_*,long)
 439879       loc_439879
 43988b       loc_43988B
 439899       loc_439899
 4398a0       jpeg_std_error(jpeg_error_mgr_*)
 4398f0       unknown_libname_373
 439900       reset_error_mgr(jpeg_common_struct_*)
 439920       CGotoPageDlg::CGotoPageDlg(CWnd_*)
 4399a0       CGotoPageDlg::`scalar_deleting_destructor'(uint)
 4399b8       loc_4399B8
 4399c0       CGotoPageDlg::DoDataExchange(CDataExchange_*)
 4399f0       sub_4399F0
 439a00       CGotoPageDlg::OnInitDialog(void)
 439a50       CGotoPageDlg::OnOK(void)
 439aa3       loc_439AA3
 439ab0       loc_439AB0
 439abe       loc_439ABE
 439ad9       loc_439AD9
 439ae6       loc_439AE6
 439b20       jinit_input_controller(jpeg_decompress_struct_*)
 439b70       start_input_pass(jpeg_decompress_struct_*)
 439bb0       per_scan_setup(jpeg_decompress_struct_*)
 439c01       loc_439C01
 439c19       loc_439C19
 439c24       loc_439C24
 439c2c       loc_439C2C
 439c84       loc_439C84
 439cb4       loc_439CB4
 439cc4       loc_439CC4
 439cdc       loc_439CDC
 439ce6       loc_439CE6
 439d07       loc_439D07
 439d2a       loc_439D2A
 439d30       latch_quant_tables(jpeg_decompress_struct_*)
 439d55       loc_439D55
 439d79       loc_439D79
 439d81       loc_439D81
 439da4       loc_439DA4
 439dc5       loc_439DC5
 439dd0       finish_input_pass(jpeg_decompress_struct_*)
 439df0       consume_markers(jpeg_decompress_struct_*)
 439e0b       loc_439E0B
 439e4a       loc_439E4A
 439e66       loc_439E66
 439e83       loc_439E83
 439e92       loc_439E92
 439e9b       loc_439E9B
 439eb0       initial_setup(jpeg_decompress_struct_*)
 439ec4       loc_439EC4
 439ecc       loc_439ECC
 439edd       loc_439EDD
 439eeb       loc_439EEB
 439f10       loc_439F10
 439f27       loc_439F27
 439f2f       loc_439F2F
 439f3e       loc_439F3E
 439f52       loc_439F52
 439f63       loc_439F63
 439f83       loc_439F83
 43a00b       loc_43A00B
 43a04f       loc_43A04F
 43a060       reset_input_controller(jpeg_decompress_struct_*)
 43a0b0       jpeg_resync_to_restart(jpeg_decompress_struct_*,int)
 43a0ce       loc_43A0CE
 43a0d6       loc_43A0D6
 43a0dd       loc_43A0DD
 43a133       loc_43A133
 43a138       loc_43A138
 43a152       loc_43A152
 43a16a       loc_43A16A
 43a171       loc_43A171
 43a17b       loc_43A17B
 43a190       next_marker(jpeg_decompress_struct_*)
 43a1a0       loc_43A1A0
 43a1b8       loc_43A1B8
 43a1c5       loc_43A1C5
 43a1eb       loc_43A1EB
 43a1fa       loc_43A1FA
 43a1fe       loc_43A1FE
 43a212       loc_43A212
 43a247       loc_43A247
 43a24e       loc_43A24E
 43a27d       loc_43A27D
 43a2a0       jinit_marker_reader(jpeg_decompress_struct_*)
 43a2ea       loc_43A2EA
 43a330       get_app0(jpeg_decompress_struct_*)
 43a35d       loc_43A35D
 43a380       loc_43A380
 43a3a2       loc_43A3A2
 43a3bb       loc_43A3BB
 43a424       loc_43A424
 43a42e       loc_43A42E
 43a43d       loc_43A43D
 43a440       loc_43A440
 43a4a8       loc_43A4A8
 43a4cf       loc_43A4CF
 43a4d9       loc_43A4D9
 43a4e1       loc_43A4E1
 43a4e4       loc_43A4E4
 43a4fd       loc_43A4FD
 43a510       get_app14(jpeg_decompress_struct_*)
 43a53b       loc_43A53B
 43a55f       loc_43A55F
 43a579       loc_43A579
 43a591       loc_43A591
 43a5f8       loc_43A5F8
 43a602       loc_43A602
 43a617       loc_43A617
 43a626       loc_43A626
 43a63e       loc_43A63E
 43a650       skip_variable(jpeg_decompress_struct_*)
 43a674       loc_43A674
 43a692       loc_43A692
 43a6cc       loc_43A6CC
 43a6e0       read_markers(jpeg_decompress_struct_*)
 43a6e8       loc_43A6E8
 43a70e       loc_43A70E
 43a71e       loc_43A71E
 43a742       loc_43A742
 43a74d       loc_43A74D
 43a751       loc_43A751
 43a754       loc_43A754
 43a759       loc_43A759
 43a75b       loc_43A75B
 43a75d       loc_43A75D
 43a766       loc_43A766
 43a779       loc_43A779
 43a78c       loc_43A78C
 43a7a8       loc_43A7A8
 43a7c4       loc_43A7C4
 43a7e0       loc_43A7E0
 43a7fc       loc_43A7FC
 43a820       loc_43A820
 43a840       loc_43A840
 43a856       loc_43A856
 43a86e       loc_43A86E
 43a881       loc_43A881
 43a89c       loc_43A89C
 43a8b5       loc_43A8B5
 43a8bc       off_43A8BC
 43a900       byte_43A900
 43aa00       get_soi(jpeg_decompress_struct_*)
 43aa27       loc_43AA27
 43aa36       loc_43AA36
 43aaa0       get_sof(jpeg_decompress_struct_*,int,int)
 43aade       loc_43AADE
 43ab01       loc_43AB01
 43ab2a       loc_43AB2A
 43ab4f       loc_43AB4F
 43ab71       loc_43AB71
 43ab98       loc_43AB98
 43abba       loc_43ABBA
 43abe1       loc_43ABE1
 43ac15       loc_43AC15
 43ac2a       loc_43AC2A
 43ac32       loc_43AC32
 43ac48       loc_43AC48
 43ac76       loc_43AC76
 43ac95       loc_43AC95
 43ac99       loc_43AC99
 43acbd       loc_43ACBD
 43ace2       loc_43ACE2
 43ad12       loc_43AD12
 43ad45       loc_43AD45
 43ad5e       loc_43AD5E
 43ad70       get_sos(jpeg_decompress_struct_*)
 43ad9c       loc_43AD9C
 43adb4       loc_43ADB4
 43add6       loc_43ADD6
 43adfe       loc_43ADFE
 43ae1e       loc_43AE1E
 43ae26       loc_43AE26
 43ae55       loc_43AE55
 43ae6d       loc_43AE6D
 43ae8f       loc_43AE8F
 43aea8       loc_43AEA8
 43aebb       loc_43AEBB
 43aec7       loc_43AEC7
 43af0d       loc_43AF0D
 43af25       loc_43AF25
 43af45       loc_43AF45
 43af65       loc_43AF65
 43afb9       loc_43AFB9
 43afd0       get_dac(jpeg_decompress_struct_*)
 43b003       loc_43B003
 43b029       loc_43B029
 43b040       loc_43B040
 43b05e       loc_43B05E
 43b084       loc_43B084
 43b0ad       loc_43B0AD
 43b0b5       loc_43B0B5
 43b0c3       loc_43B0C3
 43b0ea       loc_43B0EA
 43b0fe       loc_43B0FE
 43b110       loc_43B110
 43b120       get_dht(jpeg_decompress_struct_*)
 43b155       loc_43B155
 43b17c       loc_43B17C
 43b196       loc_43B196
 43b19d       loc_43B19D
 43b1b5       loc_43B1B5
 43b1dd       loc_43B1DD
 43b1fc       loc_43B1FC
 43b250       loc_43B250
 43b25c       loc_43B25C
 43b266       loc_43B266
 43b286       loc_43B286
 43b298       loc_43B298
 43b2b6       loc_43B2B6
 43b2bd       loc_43B2BD
 43b2c6       loc_43B2C6
 43b2ce       loc_43B2CE
 43b2de       loc_43B2DE
 43b322       loc_43B322
 43b337       loc_43B337
 43b350       get_dqt(jpeg_decompress_struct_*)
 43b37d       loc_43B37D
 43b3a0       loc_43B3A0
 43b3b7       loc_43B3B7
 43b3d4       loc_43B3D4
 43b406       loc_43B406
 43b42b       loc_43B42B
 43b43e       loc_43B43E
 43b463       loc_43B463
 43b482       loc_43B482
 43b48b       loc_43B48B
 43b4a4       loc_43B4A4
 43b4a9       loc_43B4A9
 43b4dd       loc_43B4DD
 43b4e1       loc_43B4E1
 43b4ef       loc_43B4EF
 43b50b       loc_43B50B
 43b517       loc_43B517
 43b52a       loc_43B52A
 43b540       get_dri(jpeg_decompress_struct_*)
 43b568       loc_43B568
 43b58e       loc_43B58E
 43b5a4       loc_43B5A4
 43b5b8       loc_43B5B8
 43b5d6       loc_43B5D6
 43b60b       loc_43B60B
 43b620       first_marker(jpeg_decompress_struct_*)
 43b645       loc_43B645
 43b663       loc_43B663
 43b67e       loc_43B67E
 43b68a       loc_43B68A
 43b6a4       loc_43B6A4
 43b6b0       read_restart_marker(jpeg_decompress_struct_*)
 43b6ce       loc_43B6CE
 43b6fc       loc_43B6FC
 43b713       loc_43B713
 43b730       reset_marker_reader(jpeg_decompress_struct_*)
 43b770       jinit_memory_mgr(jpeg_common_struct_*)
 43b7a6       loc_43B7A6
 43b801       loc_43B801
 43b85a       loc_43B85A
 43b87e       loc_43B87E
 43b891       loc_43B891
 43b8a0       alloc_small(jpeg_common_struct_*,int,uint)
 43b8c6       loc_43B8C6
 43b8da       loc_43B8DA
 43b8e7       loc_43B8E7
 43b8f0       loc_43B8F0
 43b8fe       loc_43B8FE
 43b90d       loc_43B90D
 43b915       loc_43B915
 43b925       loc_43B925
 43b92c       loc_43B92C
 43b939       loc_43B939
 43b94a       loc_43B94A
 43b95c       loc_43B95C
 43b96d       loc_43B96D
 43b9a0       loc_43B9A0
 43b9a2       loc_43B9A2
 43b9a6       loc_43B9A6
 43b9d0       alloc_large(jpeg_common_struct_*,int,uint)
 43b9f2       loc_43B9F2
 43ba02       loc_43BA02
 43ba0f       loc_43BA0F
 43ba17       loc_43BA17
 43ba39       loc_43BA39
 43ba60       alloc_sarray(jpeg_common_struct_*,int,uint,uint)
 43ba86       loc_43BA86
 43ba90       loc_43BA90
 43bab7       loc_43BAB7
 43bac1       loc_43BAC1
 43bae8       loc_43BAE8
 43baf2       loc_43BAF2
 43bafa       loc_43BAFA
 43bb00       alloc_barray(jpeg_common_struct_*,int,uint,uint)
 43bb29       loc_43BB29
 43bb33       loc_43BB33
 43bb5a       loc_43BB5A
 43bb64       loc_43BB64
 43bb90       loc_43BB90
 43bb9a       loc_43BB9A
 43bba2       loc_43BBA2
 43bbb0       request_virt_sarray(jpeg_common_struct_*,int,int,uint,uint,uint)
 43bbcb       loc_43BBCB
 43bc10       request_virt_barray(jpeg_common_struct_*,int,int,uint,uint,uint)
 43bc2b       loc_43BC2B
 43bc70       realize_virt_arrays(jpeg_common_struct_*)
 43bc86       loc_43BC86
 43bc9e       loc_43BC9E
 43bca5       loc_43BCA5
 43bcac       loc_43BCAC
 43bcca       loc_43BCCA
 43bcd1       loc_43BCD1
 43bcf3       loc_43BCF3
 43bd01       loc_43BD01
 43bd08       loc_43BD08
 43bd23       loc_43BD23
 43bd48       loc_43BD48
 43bd6e       loc_43BD6E
 43bd75       loc_43BD75
 43bd7c       loc_43BD7C
 43bd97       loc_43BD97
 43bdbf       loc_43BDBF
 43bde5       loc_43BDE5
 43bdec       loc_43BDEC
 43be00       access_virt_sarray(jpeg_common_struct_*,jvirt_sarray_control_*,uint,uint,int)
 43be22       loc_43BE22
 43be30       loc_43BE30
 43be34       loc_43BE34
 43be44       loc_43BE44
 43be53       loc_43BE53
 43be6d       loc_43BE6D
 43be77       loc_43BE77
 43be82       loc_43BE82
 43be85       loc_43BE85
 43be91       loc_43BE91
 43beb0       loc_43BEB0
 43beb4       loc_43BEB4
 43bebb       loc_43BEBB
 43bed0       loc_43BED0
 43bee4       loc_43BEE4
 43bee8       loc_43BEE8
 43bef2       loc_43BEF2
 43bf15       loc_43BF15
 43bf19       loc_43BF19
 43bf20       loc_43BF20
 43bf30       do_sarray_io(jpeg_common_struct_*,jvirt_sarray_control_*,int)
 43bf50       loc_43BF50
 43bf54       loc_43BF54
 43bf5f       loc_43BF5F
 43bf6f       loc_43BF6F
 43bf7a       loc_43BF7A
 43bfa1       loc_43BFA1
 43bfb4       loc_43BFB4
 43bfc5       loc_43BFC5
 43bfd0       access_virt_barray(jpeg_common_struct_*,jvirt_barray_control_*,uint,uint,int)
 43bff2       loc_43BFF2
 43c000       loc_43C000
 43c004       loc_43C004
 43c014       loc_43C014
 43c023       loc_43C023
 43c03d       loc_43C03D
 43c047       loc_43C047
 43c052       loc_43C052
 43c055       loc_43C055
 43c061       loc_43C061
 43c080       loc_43C080
 43c084       loc_43C084
 43c08b       loc_43C08B
 43c0a3       loc_43C0A3
 43c0b7       loc_43C0B7
 43c0bb       loc_43C0BB
 43c0c5       loc_43C0C5
 43c0e8       loc_43C0E8
 43c0ec       loc_43C0EC
 43c0f3       loc_43C0F3
 43c110       do_barray_io(jpeg_common_struct_*,jvirt_barray_control_*,int)
 43c133       loc_43C133
 43c137       loc_43C137
 43c142       loc_43C142
 43c154       loc_43C154
 43c15f       loc_43C15F
 43c186       loc_43C186
 43c199       loc_43C199
 43c1aa       loc_43C1AA
 43c1b0       free_pool(jpeg_common_struct_*,int)
 43c1ca       loc_43C1CA
 43c1d3       loc_43C1D3
 43c1df       loc_43C1DF
 43c1f2       loc_43C1F2
 43c1f9       loc_43C1F9
 43c203       loc_43C203
 43c216       loc_43C216
 43c21d       loc_43C21D
 43c224       loc_43C224
 43c230       loc_43C230
 43c25b       loc_43C25B
 43c267       loc_43C267
 43c28c       loc_43C28C
 43c2a0       self_destruct(jpeg_common_struct_*)
 43c2ab       loc_43C2AB
 43c2e0       jpeg_abort(jpeg_common_struct_*)
 43c310       jpeg_destroy(jpeg_common_struct_*)
 43c326       loc_43C326
 43c330       jpeg_alloc_quant_table(jpeg_common_struct_*)
 43c350       jpeg_alloc_huff_table(jpeg_common_struct_*)
 43c370       jpeg_calc_output_dimensions(jpeg_decompress_struct_*)
 43c387       loc_43C387
 43c3c4       loc_43C3C4
 43c3fa       loc_43C3FA
 43c42c       loc_43C42C
 43c442       loc_43C442
 43c45c       loc_43C45C
 43c472       loc_43C472
 43c499       loc_43C499
 43c4b4       loc_43C4B4
 43c4c6       loc_43C4C6
 43c50e       loc_43C50E
 43c520       loc_43C520
 43c525       loc_43C525
 43c52e       loc_43C52E
 43c537       loc_43C537
 43c53d       loc_43C53D
 43c549       loc_43C549
 43c568       loc_43C568
 43c574       off_43C574
 43c590       use_merged_upsample(jpeg_decompress_struct_*)
 43c60f       loc_43C60F
 43c611       loc_43C611
 43c620       jinit_master_decompress(jpeg_decompress_struct_*)
 43c660       master_selection(jpeg_decompress_struct_*)
 43c69d       loc_43C69D
 43c6a6       loc_43C6A6
 43c6bc       loc_43C6BC
 43c6d3       loc_43C6D3
 43c6e0       loc_43C6E0
 43c6ea       loc_43C6EA
 43c6ed       loc_43C6ED
 43c704       loc_43C704
 43c70e       loc_43C70E
 43c720       loc_43C720
 43c737       loc_43C737
 43c745       loc_43C745
 43c752       loc_43C752
 43c76c       loc_43C76C
 43c77e       loc_43C77E
 43c783       loc_43C783
 43c79a       loc_43C79A
 43c79c       loc_43C79C
 43c7b7       loc_43C7B7
 43c7f3       loc_43C7F3
 43c825       loc_43C825
 43c830       prepare_range_limit_table(jpeg_decompress_struct_*)
 43c863       loc_43C863
 43c8b0       prepare_for_output_pass(jpeg_decompress_struct_*)
 43c8f3       loc_43C8F3
 43c924       loc_43C924
 43c936       loc_43C936
 43c93e       loc_43C93E
 43c96e       loc_43C96E
 43c991       loc_43C991
 43c9b3       loc_43C9B3
 43ca00       loc_43CA00
 43ca10       finish_output_pass(jpeg_decompress_struct_*)
 43ca2f       loc_43CA2F
 43ca40       jdiv_round_up(long,long)
 43ca50       jround_up(long,long)
 43ca70       jcopy_sample_rows(uchar_*_*,int,uchar_*_*,int,int,uint)
 43ca92       loc_43CA92
 43cab4       loc_43CAB4
 43cac0       jcopy_block_row(short_(*)[64],short_(*)[64],uint)
 43caf0       jzero_far(void_*,uint)
 43cb10       unknown_libname_235
 43cb20       unknown_libname_236
 43cb30       jpeg_mem_available(jpeg_common_struct_*,long,long,long)
 43cb40       unknown_libname_237
 43cb50       sub_43CB50
 43cb60       jinit_d_main_controller(jpeg_decompress_struct_*,int)
 43cb92       loc_43CB92
 43cbb0       loc_43CBB0
 43cbc8       loc_43CBC8
 43cbd2       loc_43CBD2
 43cbe8       loc_43CBE8
 43cc21       loc_43CC21
 43cc30       alloc_funny_pointers(jpeg_decompress_struct_*)
 43cc82       loc_43CC82
 43ccd5       loc_43CCD5
 43cce0       start_pass_main(jpeg_decompress_struct_*,J_BUF_MODE)
 43cd06       loc_43CD06
 43cd10       loc_43CD10
 43cd3d       loc_43CD3D
 43cd50       make_funny_pointers(jpeg_decompress_struct_*)
 43cd96       loc_43CD96
 43cda2       loc_43CDA2
 43cde3       loc_43CDE3
 43ce05       loc_43CE05
 43ce2a       loc_43CE2A
 43ce46       loc_43CE46
 43ce55       loc_43CE55
 43ce64       loc_43CE64
 43ce90       loc_43CE90
 43cea0       process_data_simple_main(jpeg_decompress_struct_*,uchar_*_*,uint_*,uint)
 43ced0       loc_43CED0
 43cf10       loc_43CF10
 43cf20       process_data_context_main(jpeg_decompress_struct_*,uchar_*_*,uint_*,uint)
 43cf60       loc_43CF60
 43cfbe       loc_43CFBE
 43cfe5       loc_43CFE5
 43cfec       loc_43CFEC
 43d032       loc_43D032
 43d05d       loc_43D05D
 43d070       set_wraparound_pointers(jpeg_decompress_struct_*)
 43d0af       loc_43D0AF
 43d0b3       loc_43D0B3
 43d108       loc_43D108
 43d10c       loc_43D10C
 43d15f       loc_43D15F
 43d177       loc_43D177
 43d180       set_bottom_pointers(jpeg_decompress_struct_*)
 43d1a7       loc_43D1A7
 43d1ab       loc_43D1AB
 43d1cb       loc_43D1CB
 43d1e1       loc_43D1E1
 43d1e5       loc_43D1E5
 43d1fb       loc_43D1FB
 43d206       loc_43D206
 43d214       loc_43D214
 43d220       process_data_crank_post(jpeg_decompress_struct_*,uchar_*_*,uint_*,uint)
 43d250       jinit_d_coef_controller(jpeg_decompress_struct_*,int)
 43d2a7       loc_43D2A7
 43d2b8       loc_43D2B8
 43d302       loc_43D302
 43d31c       loc_43D31C
 43d335       loc_43D335
 43d360       start_input_pass(jpeg_decompress_struct_*)
 43d380       start_iMCU_row(jpeg_decompress_struct_*)
 43d3c1       loc_43D3C1
 43d3c4       loc_43D3C4
 43d3e0       start_output_pass(jpeg_decompress_struct_*)
 43d41b       loc_43D41B
 43d422       loc_43D422
 43d430       decompress_onepass(jpeg_decompress_struct_*,uchar_*_*_*)
 43d46d       loc_43D46D
 43d47c       loc_43D47C
 43d4d4       loc_43D4D4
 43d4d8       loc_43D4D8
 43d4f1       loc_43D4F1
 43d513       loc_43D513
 43d51a       loc_43D51A
 43d544       loc_43D544
 43d55b       loc_43D55B
 43d56f       loc_43D56F
 43d5a4       loc_43D5A4
 43d5c0       loc_43D5C0
 43d5f8       loc_43D5F8
 43d60f       loc_43D60F
 43d626       loc_43D626
 43d662       loc_43D662
 43d676       loc_43D676
 43d690       sub_43D690
 43d6a0       consume_data(jpeg_decompress_struct_*)
 43d6d3       loc_43D6D3
 43d71e       loc_43D71E
 43d730       loc_43D730
 43d745       loc_43D745
 43d76b       loc_43D76B
 43d79c       loc_43D79C
 43d7b3       loc_43D7B3
 43d7ca       loc_43D7CA
 43d7e1       loc_43D7E1
 43d815       loc_43D815
 43d841       loc_43D841
 43d858       loc_43D858
 43d887       loc_43D887
 43d89b       loc_43D89B
 43d8c0       decompress_data(jpeg_decompress_struct_*,uchar_*_*_*)
 43d8da       loc_43D8DA
 43d8fc       loc_43D8FC
 43d912       loc_43D912
 43d947       loc_43D947
 43d985       loc_43D985
 43d995       loc_43D995
 43d9ba       loc_43D9BA
 43d9ca       loc_43D9CA
 43d9f5       loc_43D9F5
 43da1d       loc_43DA1D
 43da47       loc_43DA47
 43da6a       loc_43DA6A
 43da80       smoothing_ok(jpeg_decompress_struct_*)
 43dace       loc_43DACE
 43daed       loc_43DAED
 43db45       loc_43DB45
 43db58       loc_43DB58
 43db86       loc_43DB86
 43db92       loc_43DB92
 43dba0       decompress_smooth_data(jpeg_decompress_struct_*,uchar_*_*_*)
 43dbdc       loc_43DBDC
 43dc0c       loc_43DC0C
 43dc2a       loc_43DC2A
 43dc69       loc_43DC69
 43dc9a       loc_43DC9A
 43dca7       loc_43DCA7
 43dcbc       loc_43DCBC
 43dcc6       loc_43DCC6
 43dcf5       loc_43DCF5
 43dd15       loc_43DD15
 43dda4       loc_43DDA4
 43ddac       loc_43DDAC
 43ddc1       loc_43DDC1
 43ddc5       loc_43DDC5
 43ddda       loc_43DDDA
 43ddde       loc_43DDDE
 43de2a       loc_43DE2A
 43de6e       loc_43DE6E
 43debc       loc_43DEBC
 43ded9       loc_43DED9
 43dedb       loc_43DEDB
 43dee7       loc_43DEE7
 43df39       loc_43DF39
 43df56       loc_43DF56
 43df58       loc_43DF58
 43df64       loc_43DF64
 43dfc0       loc_43DFC0
 43dfdd       loc_43DFDD
 43dfdf       loc_43DFDF
 43dfeb       loc_43DFEB
 43e043       loc_43E043
 43e060       loc_43E060
 43e062       loc_43E062
 43e06a       loc_43E06A
 43e0c7       loc_43E0C7
 43e0e4       loc_43E0E4
 43e0e6       loc_43E0E6
 43e0ee       loc_43E0EE
 43e1aa       loc_43E1AA
 43e1e2       loc_43E1E2
 43e210       jpeg_make_d_derived_tbl(jpeg_decompress_struct_*,JHUFF_TBL_*,d_derived_tbl_*_*)
 43e23f       loc_43E23F
 43e25d       loc_43E25D
 43e29e       loc_43E29E
 43e2b8       loc_43E2B8
 43e2c8       loc_43E2C8
 43e2d8       loc_43E2D8
 43e2e3       loc_43E2E3
 43e2ed       loc_43E2ED
 43e312       loc_43E312
 43e318       loc_43E318
 43e34c       loc_43E34C
 43e37d       loc_43E37D
 43e39d       loc_43E39D
 43e3ae       loc_43E3AE
 43e3e2       loc_43E3E2
 43e400       jpeg_fill_bit_buffer(bitread_working_state_*,int,int,int)
 43e41a       loc_43E41A
 43e445       loc_43E445
 43e452       loc_43E452
 43e472       loc_43E472
 43e48a       loc_43E48A
 43e48d       loc_43E48D
 43e4b2       loc_43E4B2
 43e4b4       loc_43E4B4
 43e4cd       loc_43E4CD
 43e4e6       loc_43E4E6
 43e4f0       jpeg_huff_decode(bitread_working_state_*,int,int,d_derived_tbl_*,int)
 43e51c       loc_43E51C
 43e524       loc_43E524
 43e52c       loc_43E52C
 43e530       loc_43E530
 43e552       loc_43E552
 43e570       loc_43E570
 43e592       loc_43E592
 43e5b6       loc_43E5B6
 43e5e0       jinit_huff_decoder(jpeg_decompress_struct_*)
 43e610       loc_43E610
 43e620       start_pass_huff_decoder(jpeg_decompress_struct_*)
 43e655       loc_43E655
 43e660       loc_43E660
 43e684       loc_43E684
 43e6a4       loc_43E6A4
 43e6ac       loc_43E6AC
 43e6c0       loc_43E6C0
 43e6c8       loc_43E6C8
 43e727       loc_43E727
 43e740       decode_mcu(jpeg_decompress_struct_*,short_(*_*)[64])
 43e773       loc_43E773
 43e77d       loc_43E77D
 43e7ef       loc_43E7EF
 43e84e       loc_43E84E
 43e875       loc_43E875
 43e87a       loc_43E87A
 43e89d       loc_43E89D
 43e8c5       loc_43E8C5
 43e8ef       loc_43E8EF
 43e8f1       loc_43E8F1
 43e8f5       loc_43E8F5
 43e928       loc_43E928
 43e95a       loc_43E95A
 43e981       loc_43E981
 43e986       loc_43E986
 43e9a9       loc_43E9A9
 43e9d9       loc_43E9D9
 43ea03       loc_43EA03
 43ea05       loc_43EA05
 43ea1a       loc_43EA1A
 43ea26       loc_43EA26
 43ea35       loc_43EA35
 43ea3a       loc_43EA3A
 43ea6c       loc_43EA6C
 43ea93       loc_43EA93
 43ea98       loc_43EA98
 43eabb       loc_43EABB
 43eaeb       loc_43EAEB
 43eaef       loc_43EAEF
 43eaf7       loc_43EAF7
 43eb01       loc_43EB01
 43eb3b       loc_43EB3B
 43eb90       process_restart(jpeg_decompress_struct_*)
 43ebd1       loc_43EBD1
 43ebe0       loc_43EBE0
 43ebf4       loc_43EBF4
 43ec10       jinit_phuff_decoder(jpeg_decompress_struct_*)
 43ec60       loc_43EC60
 43ec7b       loc_43EC7B
 43ec80       start_pass_phuff_decoder(jpeg_decompress_struct_*)
 43ecb8       loc_43ECB8
 43ecc7       loc_43ECC7
 43eccc       loc_43ECCC
 43ecd5       loc_43ECD5
 43ecda       loc_43ECDA
 43ecf4       loc_43ECF4
 43ed01       loc_43ED01
 43ed09       loc_43ED09
 43ed21       loc_43ED21
 43ed46       loc_43ED46
 43ed59       loc_43ED59
 43ed7a       loc_43ED7A
 43ed90       loc_43ED90
 43edb4       loc_43EDB4
 43edc9       loc_43EDC9
 43edd2       loc_43EDD2
 43eddf       loc_43EDDF
 43ede6       loc_43EDE6
 43ee05       loc_43EE05
 43ee31       loc_43EE31
 43ee39       loc_43EE39
 43ee55       loc_43EE55
 43ee6c       loc_43EE6C
 43ee74       loc_43EE74
 43ee97       loc_43EE97
 43eec8       loc_43EEC8
 43eef0       decode_mcu_DC_first(jpeg_decompress_struct_*,short_(*_*)[64])
 43ef2d       loc_43EF2D
 43ef37       loc_43EF37
 43ef3b       loc_43EF3B
 43ef9c       loc_43EF9C
 43eff0       loc_43EFF0
 43f017       loc_43F017
 43f01c       loc_43F01C
 43f03f       loc_43F03F
 43f067       loc_43F067
 43f091       loc_43F091
 43f093       loc_43F093
 43f0e4       loc_43F0E4
 43f130       process_restart(jpeg_decompress_struct_*)
 43f171       loc_43F171
 43f180       loc_43F180
 43f194       loc_43F194
 43f1c0       decode_mcu_AC_first(jpeg_decompress_struct_*,short_(*_*)[64])
 43f20f       loc_43F20F
 43f220       loc_43F220
 43f270       loc_43F270
 43f2a2       loc_43F2A2
 43f2c9       loc_43F2C9
 43f2ce       loc_43F2CE
 43f2f1       loc_43F2F1
 43f329       loc_43F329
 43f353       loc_43F353
 43f355       loc_43F355
 43f370       loc_43F370
 43f379       loc_43F379
 43f390       loc_43F390
 43f3b7       loc_43F3B7
 43f3c1       loc_43F3C1
 43f3c9       loc_43F3C9
 43f3d6       loc_43F3D6
 43f3db       loc_43F3DB
 43f3e7       loc_43F3E7
 43f40a       loc_43F40A
 43f430       decode_mcu_DC_refine(jpeg_decompress_struct_*,short_(*_*)[64])
 43f470       loc_43F470
 43f47a       loc_43F47A
 43f4b9       loc_43F4B9
 43f4e1       loc_43F4E1
 43f4f4       loc_43F4F4
 43f50a       loc_43F50A
 43f550       decode_mcu_AC_refine(jpeg_decompress_struct_*,short_(*_*)[64])
 43f5b8       loc_43F5B8
 43f62a       loc_43F62A
 43f65c       loc_43F65C
 43f686       loc_43F686
 43f68b       loc_43F68B
 43f6b2       loc_43F6B2
 43f6d7       loc_43F6D7
 43f6fd       loc_43F6FD
 43f722       loc_43F722
 43f73b       loc_43F73B
 43f755       loc_43F755
 43f759       loc_43F759
 43f793       loc_43F793
 43f7b9       loc_43F7B9
 43f7c4       loc_43F7C4
 43f7cb       loc_43F7CB
 43f7eb       loc_43F7EB
 43f814       loc_43F814
 43f835       loc_43F835
 43f868       loc_43F868
 43f881       loc_43F881
 43f88c       loc_43F88C
 43f8b3       loc_43F8B3
 43f8ed       loc_43F8ED
 43f90f       loc_43F90F
 43f914       loc_43F914
 43f937       loc_43F937
 43f93b       loc_43F93B
 43f97c       loc_43F97C
 43f988       loc_43F988
 43f99b       loc_43F99B
 43f9b0       jinit_inverse_dct(jpeg_decompress_struct_*)
 43f9ea       loc_43F9EA
 43fa26       loc_43FA26
 43fa30       start_pass(jpeg_decompress_struct_*)
 43fa6e       loc_43FA6E
 43fa82       loc_43FA82
 43fa92       loc_43FA92
 43faa2       loc_43FAA2
 43fab2       loc_43FAB2
 43fac7       loc_43FAC7
 43fada       loc_43FADA
 43faed       loc_43FAED
 43fafd       loc_43FAFD
 43fb02       loc_43FB02
 43fb05       loc_43FB05
 43fb4c       loc_43FB4C
 43fb55       loc_43FB55
 43fb64       loc_43FB64
 43fba2       loc_43FBA2
 43fbab       loc_43FBAB
 43fbd6       loc_43FBD6
 43fbdf       loc_43FBDF
 43fbf0       loc_43FBF0
 43fc18       loc_43FC18
 43fc20       off_43FC20
 43fc40       jinit_d_post_controller(jpeg_decompress_struct_*,int)
 43fcb4       loc_43FCB4
 43fccc       loc_43FCCC
 43fcd0       start_pass_dpost(jpeg_decompress_struct_*,J_BUF_MODE)
 43fd04       loc_43FD04
 43fd13       loc_43FD13
 43fd2a       loc_43FD2A
 43fd39       loc_43FD39
 43fd50       loc_43FD50
 43fd8e       loc_43FD8E
 43fd9a       loc_43FD9A
 43fdb0       post_process_1pass(jpeg_decompress_struct_*,uchar_*_*_*,uint_*,uint,uchar_*_*,uint_*,uint)
 43fdd2       loc_43FDD2
 43fe30       post_process_prepass(jpeg_decompress_struct_*,uchar_*_*_*,uint_*,uint,uchar_*_*,uint_*,uint)
 43fe62       loc_43FE62
 43feb7       loc_43FEB7
 43fecf       loc_43FECF
 43fee0       post_process_2pass(jpeg_decompress_struct_*,uchar_*_*_*,uint_*,uint,uchar_*_*,uint_*,uint)
 43ff10       loc_43FF10
 43ff2b       loc_43FF2B
 43ff39       loc_43FF39
 43ff81       loc_43FF81
 43ff90       jinit_upsampler(jpeg_decompress_struct_*)
 43ffdf       loc_43FFDF
 43fff2       loc_43FFF2
 43fff6       loc_43FFF6
 440005       loc_440005
 440011       loc_440011
 44005b       loc_44005B
 440072       loc_440072
 440095       loc_440095
 4400a0       loc_4400A0
 4400d0       loc_4400D0
 4400d8       loc_4400D8
 44011e       loc_44011E
 440126       loc_440126
 440150       loc_440150
 44016a       loc_44016A
 440180       start_pass_upsample(jpeg_decompress_struct_*)
 4401a0       sep_upsample(jpeg_decompress_struct_*,uchar_*_*_*,uint_*,uint,uchar_*_*,uint_*,uint)
 4401dc       loc_4401DC
 44021b       loc_44021B
 440222       loc_440222
 440236       loc_440236
 440249       loc_440249
 440295       loc_440295
 4402a0       fullsize_upsample(jpeg_decompress_struct_*,jpeg_component_info_*,uchar_*_*,uchar_*_*_*)
 4402b0       noop_upsample(jpeg_decompress_struct_*,jpeg_component_info_*,uchar_*_*,uchar_*_*_*)
 4402c0       int_upsample(jpeg_decompress_struct_*,jpeg_component_info_*,uchar_*_*,uchar_*_*_*)
 44031e       loc_44031E
 440333       loc_440333
 44036e       loc_44036E
 440376       loc_440376
 44039c       loc_44039C
 4403cd       loc_4403CD
 4403e0       h2v1_upsample(jpeg_decompress_struct_*,jpeg_component_info_*,uchar_*_*,uchar_*_*_*)
 440406       loc_440406
 440414       loc_440414
 440421       loc_440421
 440439       loc_440439
 440440       h2v2_upsample(jpeg_decompress_struct_*,jpeg_component_info_*,uchar_*_*,uchar_*_*_*)
 440466       loc_440466
 44047b       loc_44047B
 440488       loc_440488
 4404c1       loc_4404C1
 4404d0       h2v1_fancy_upsample(jpeg_decompress_struct_*,jpeg_component_info_*,uchar_*_*,uchar_*_*_*)
 4404fe       loc_4404FE
 44052a       loc_44052A
 440556       loc_440556
 44058f       loc_44058F
 4405a0       h2v2_fancy_upsample(jpeg_decompress_struct_*,jpeg_component_info_*,uchar_*_*,uchar_*_*_*)
 4405d3       loc_4405D3
 4405e2       loc_4405E2
 4405e6       loc_4405E6
 4405f3       loc_4405F3
 4405f7       loc_4405F7
 440659       loc_440659
 44069c       loc_44069C
 4406a4       loc_4406A4
 4406ed       loc_4406ED
 440700       jinit_color_deconverter(jpeg_decompress_struct_*)
 440731       loc_440731
 440739       loc_440739
 440746       loc_440746
 440753       loc_440753
 440759       loc_440759
 44075e       loc_44075E
 440761       loc_440761
 440790       loc_440790
 4407b4       loc_4407B4
 4407c5       loc_4407C5
 4407d2       loc_4407D2
 4407f3       loc_4407F3
 440801       loc_440801
 44080b       loc_44080B
 44081f       loc_44081F
 440829       loc_440829
 44083e       loc_44083E
 440857       loc_440857
 440868       loc_440868
 440874       off_440874
 440890       build_ycc_rgb_table(jpeg_decompress_struct_*)
 4408fa       loc_4408FA
 440950       ycc_rgb_convert(jpeg_decompress_struct_*,uchar_*_*_*,uint,uchar_*_*,int)
 4409ad       loc_4409AD
 4409fb       loc_4409FB
 440a03       loc_440A03
 440a69       loc_440A69
 440a7c       loc_440A7C
 440a80       null_convert(jpeg_decompress_struct_*,uchar_*_*_*,uint,uchar_*_*,int)
 440aaa       loc_440AAA
 440ab4       loc_440AB4
 440aca       loc_440ACA
 440ad8       loc_440AD8
 440ae0       loc_440AE0
 440b04       loc_440B04
 440b10       grayscale_convert(jpeg_decompress_struct_*,uchar_*_*_*,uint,uchar_*_*,int)
 440b40       ycck_cmyk_convert(jpeg_decompress_struct_*,uchar_*_*_*,uint,uchar_*_*,int)
 440b9d       loc_440B9D
 440c00       loc_440C00
 440c08       loc_440C08
 440c8d       loc_440C8D
 440ca0       loc_440CA0
 440cb0       jinit_merged_upsampler(jpeg_decompress_struct_*)
 440d18       loc_440D18
 440d40       build_ycc_rgb_table(jpeg_decompress_struct_*)
 440daa       loc_440DAA
 440e00       start_pass_merged_upsample(jpeg_decompress_struct_*)
 440e20       merged_2v_upsample(jpeg_decompress_struct_*,uchar_*_*_*,uint_*,uint,uchar_*_*,uint_*,uint)
 440e6e       loc_440E6E
 440e7c       loc_440E7C
 440e8e       loc_440E8E
 440ea8       loc_440EA8
 440eb6       loc_440EB6
 440ecf       loc_440ECF
 440ee7       loc_440EE7
 440ef0       merged_1v_upsample(jpeg_decompress_struct_*,uchar_*_*_*,uint_*,uint,uchar_*_*,uint_*,uint)
 440f30       h2v1_merged_upsample(jpeg_decompress_struct_*,uchar_*_*_*,uint,uchar_*_*)
 440f91       loc_440F91
 441030       loc_441030
 44107d       loc_44107D
 441090       h2v2_merged_upsample(jpeg_decompress_struct_*,uchar_*_*_*,uint,uchar_*_*)
 441104       loc_441104
 44110c       loc_44110C
 44121b       loc_44121B
 441298       loc_441298
 4412a0       jinit_2pass_quantizer(jpeg_decompress_struct_*)
 4412e4       loc_4412E4
 4412fa       loc_4412FA
 44133b       loc_44133B
 44134b       loc_44134B
 441362       loc_441362
 441369       loc_441369
 441379       loc_441379
 44139e       loc_44139E
 4413b0       init_error_limit(jpeg_decompress_struct_*)
 4413e5       loc_4413E5
 4413fa       loc_4413FA
 441436       loc_441436
 441443       loc_441443
 441450       start_pass_2_quant(jpeg_decompress_struct_*,int)
 441472       loc_441472
 441494       loc_441494
 4414a3       loc_4414A3
 4414aa       loc_4414AA
 4414c4       loc_4414C4
 4414d4       loc_4414D4
 4414fc       loc_4414FC
 441519       loc_441519
 441520       loc_441520
 441530       loc_441530
 44154d       loc_44154D
 441560       prescan_quantize(jpeg_decompress_struct_*,uchar_*_*,uchar_*_*,int)
 441584       loc_441584
 44158c       loc_44158C
 4415be       loc_4415BE
 4415c4       loc_4415C4
 4415d4       loc_4415D4
 4415e0       pass2_no_dither(jpeg_decompress_struct_*,uchar_*_*,uchar_*_*,int)
 441621       loc_441621
 44162e       loc_44162E
 44166f       loc_44166F
 44168e       loc_44168E
 4416a3       loc_4416A3
 4416b0       fill_inverse_cmap(jpeg_decompress_struct_*,int,int,int)
 441778       loc_441778
 441792       loc_441792
 44179c       loc_44179C
 4417d0       find_nearby_colors(jpeg_decompress_struct_*,int,int,int,uchar_*_const)
 441860       loc_441860
 44186b       loc_44186B
 441888       loc_441888
 44188a       loc_44188A
 4418b2       loc_4418B2
 4418c4       loc_4418C4
 4418ce       loc_4418CE
 4418e0       loc_4418E0
 4418e2       loc_4418E2
 44191d       loc_44191D
 441927       loc_441927
 44194c       loc_44194C
 441956       loc_441956
 441958       loc_441958
 441971       loc_441971
 441991       loc_441991
 4419a4       loc_4419A4
 4419b2       loc_4419B2
 4419ba       loc_4419BA
 4419d0       find_best_colors(jpeg_decompress_struct_*,int,int,int,int,uchar_*_const,uchar_*_const)
 4419ff       loc_4419FF
 441a98       loc_441A98
 441a9c       loc_441A9C
 441aae       loc_441AAE
 441ab7       loc_441AB7
 441abf       loc_441ABF
 441b26       loc_441B26
 441b30       pass2_fs_dither(jpeg_decompress_struct_*,uchar_*_*,uchar_*_*,int)
 441ba6       loc_441BA6
 441baa       loc_441BAA
 441bf3       loc_441BF3
 441c0a       loc_441C0A
 441c38       loc_441C38
 441c3c       loc_441C3C
 441cfd       loc_441CFD
 441dce       loc_441DCE
 441dd2       loc_441DD2
 441e0a       loc_441E0A
 441e10       finish_pass1(jpeg_decompress_struct_*)
 441e40       select_colors(jpeg_decompress_struct_*,int)
 441e92       loc_441E92
 441ea5       loc_441EA5
 441ec0       update_box(jpeg_decompress_struct_*,box_*)
 441f22       loc_441F22
 441f36       loc_441F36
 441f3e       loc_441F3E
 441f52       loc_441F52
 441f66       loc_441F66
 441f84       loc_441F84
 441fa0       loc_441FA0
 441fb3       loc_441FB3
 441fc3       loc_441FC3
 441fcb       loc_441FCB
 441fdf       loc_441FDF
 441fef       loc_441FEF
 442009       loc_442009
 442020       loc_442020
 442035       loc_442035
 44204a       loc_44204A
 442058       loc_442058
 442068       loc_442068
 442078       loc_442078
 44208e       loc_44208E
 4420a1       loc_4420A1
 4420a9       loc_4420A9
 4420ba       loc_4420BA
 4420cf       loc_4420CF
 4420dd       loc_4420DD
 4420ed       loc_4420ED
 4420fd       loc_4420FD
 442113       loc_442113
 442126       loc_442126
 442136       loc_442136
 44215a       loc_44215A
 442166       loc_442166
 442174       loc_442174
 442188       loc_442188
 442193       loc_442193
 4421a6       loc_4421A6
 4421b0       loc_4421B0
 4421d4       loc_4421D4
 4421e2       loc_4421E2
 4421f0       loc_4421F0
 442204       loc_442204
 44220f       loc_44220F
 44221e       loc_44221E
 442286       loc_442286
 4422a7       loc_4422A7
 4422b4       loc_4422B4
 4422bb       loc_4422BB
 4422c1       loc_4422C1
 4422cf       loc_4422CF
 4422f4       loc_4422F4
 442310       median_cut(jpeg_decompress_struct_*,box_*,int,int)
 44233b       loc_44233B
 44233f       loc_44233F
 442350       loc_442350
 442355       loc_442355
 4423b6       loc_4423B6
 4423bf       loc_4423BF
 4423e0       loc_4423E0
 4423f6       loc_4423F6
 442408       loc_442408
 442440       loc_442440
 442450       find_biggest_color_pop(box_*,int)
 442468       loc_442468
 44247a       loc_44247A
 442482       loc_442482
 442490       find_biggest_volume(box_*,int)
 4424a7       loc_4424A7
 4424b2       loc_4424B2
 4424b9       loc_4424B9
 4424c0       compute_color(jpeg_decompress_struct_*,box_*,int)
 442530       loc_442530
 44255e       loc_44255E
 442572       loc_442572
 4425bb       loc_4425BB
 4425c9       loc_4425C9
 4425e2       loc_4425E2
 442607       loc_442607
 442660       new_color_map_2_quant(jpeg_decompress_struct_*)
 442680       jinit_1pass_quantizer(jpeg_decompress_struct_*)
 4426c4       loc_4426C4
 4426d5       loc_4426D5
 4426f5       loc_4426F5
 442700       create_colormap(jpeg_decompress_struct_*)
 44273a       loc_44273A
 442742       loc_442742
 442779       loc_442779
 44279a       loc_44279A
 4427bf       loc_4427BF
 4427c5       loc_4427C5
 4427d5       loc_4427D5
 4427e3       loc_4427E3
 4427fa       loc_4427FA
 442836       loc_442836
 442850       select_ncolors(jpeg_decompress_struct_*,int_*_const)
 44286e       loc_44286E
 442879       loc_442879
 44287f       loc_44287F
 442891       loc_442891
 4428a6       loc_4428A6
 4428ae       loc_4428AE
 4428b2       loc_4428B2
 4428c4       loc_4428C4
 4428d6       loc_4428D6
 4428d8       loc_4428D8
 442919       loc_442919
 442921       loc_442921
 442930       output_value(jpeg_decompress_struct_*,int,int,int)
 442950       create_colorindex(jpeg_decompress_struct_*)
 44297d       loc_44297D
 442986       loc_442986
 4429bd       loc_4429BD
 4429c9       loc_4429C9
 4429ef       loc_4429EF
 442a0c       loc_442A0C
 442a10       loc_442A10
 442a27       loc_442A27
 442a4f       loc_442A4F
 442a69       loc_442A69
 442a85       loc_442A85
 442a90       largest_input_value(jpeg_decompress_struct_*,int,int,int)
 442ab0       alloc_fs_workspace(jpeg_decompress_struct_*)
 442ad1       loc_442AD1
 442aec       loc_442AEC
 442af0       start_pass_1_quant(jpeg_decompress_struct_*,int)
 442b30       loc_442B30
 442b4d       loc_442B4D
 442b5d       loc_442B5D
 442b79       loc_442B79
 442b88       loc_442B88
 442b8f       loc_442B8F
 442ba2       loc_442BA2
 442bb5       loc_442BB5
 442bc7       loc_442BC7
 442bce       loc_442BCE
 442be0       create_odither_tables(jpeg_decompress_struct_*)
 442bfa       loc_442BFA
 442c06       loc_442C06
 442c14       loc_442C14
 442c1c       loc_442C1C
 442c26       loc_442C26
 442c34       loc_442C34
 442c40       make_odither_array(jpeg_decompress_struct_*,int)
 442c6e       loc_442C6E
 442c70       loc_442C70
 442cb0       color_quantize(jpeg_decompress_struct_*,uchar_*_*,uchar_*_*,int)
 442cfa       loc_442CFA
 442d0b       loc_442D0B
 442d15       loc_442D15
 442d2f       loc_442D2F
 442d51       loc_442D51
 442d65       loc_442D65
 442d70       color_quantize3(jpeg_decompress_struct_*,uchar_*_*,uchar_*_*,int)
 442dbd       loc_442DBD
 442dc6       loc_442DC6
 442e08       loc_442E08
 442e1d       loc_442E1D
 442e30       quantize_ord_dither(jpeg_decompress_struct_*,uchar_*_*,uchar_*_*,int)
 442e75       loc_442E75
 442eae       loc_442EAE
 442eb6       loc_442EB6
 442edf       loc_442EDF
 442f0f       loc_442F0F
 442f2f       loc_442F2F
 442f4f       loc_442F4F
 442f60       quantize3_ord_dither(jpeg_decompress_struct_*,uchar_*_*,uchar_*_*,int)
 442fb7       loc_442FB7
 442fbb       loc_442FBB
 442ff5       loc_442FF5
 442ff9       loc_442FF9
 44305d       loc_44305D
 443081       loc_443081
 443090       quantize_fs_dither(jpeg_decompress_struct_*,uchar_*_*,uchar_*_*,int)
 4430df       loc_4430DF
 443104       loc_443104
 443147       loc_443147
 443156       loc_443156
 443188       loc_443188
 443202       loc_443202
 44322b       loc_44322B
 443250       loc_443250
 443260       nullsub_6
 443270       unknown_libname_238
 443280       jpeg_idct_islow(jpeg_decompress_struct_*,jpeg_component_info_*,short_*,uchar_*_*,uint)
 4432c2       loc_4432C2
 443355       loc_443355
 4435ba       loc_4435BA
 4435e4       loc_4435E4
 44365f       loc_44365F
 4438b3       loc_4438B3
 4438e0       jpeg_idct_ifast(jpeg_decompress_struct_*,jpeg_component_info_*,short_*,uchar_*_*,uint)
 443922       loc_443922
 4439b6       loc_4439B6
 443b2c       loc_443B2C
 443b56       loc_443B56
 443bd2       loc_443BD2
 443d5b       loc_443D5B
 443d90       jpeg_idct_float(jpeg_decompress_struct_*,jpeg_component_info_*,short_*,uchar_*_*,uint)
 443dca       loc_443DCA
 443e2c       loc_443E2C
 443fe7       loc_443FE7
 444012       loc_444012
 4441f0       jpeg_idct_4x4(jpeg_decompress_struct_*,jpeg_component_info_*,short_*,uchar_*_*,uint)
 44423e       loc_44423E
 4442a6       loc_4442A6
 4443f6       loc_4443F6
 444433       loc_444433
 444491       loc_444491
 4445bf       loc_4445BF
 4445f0       jpeg_idct_2x2(jpeg_decompress_struct_*,jpeg_component_info_*,short_*,uchar_*_*,uint)
 444627       loc_444627
 444670       loc_444670
 444704       loc_444704
 44470c       loc_44470C
 444733       loc_444733
 44476c       loc_44476C
 4447e8       loc_4447E8
 444810       jpeg_idct_1x1(jpeg_decompress_struct_*,jpeg_component_info_*,short_*,uchar_*_*,uint)
 444850       ClosePrinter
 444856       DocumentPropertiesA
 44485c       OpenPrinterA
 444862       sub_444862
 4448b3       loc_4448B3
 4448c7       loc_4448C7
 4448cb       loc_4448CB
 4448d7       loc_4448D7
 444954       loc_444954
 444985       loc_444985
 444996       loc_444996
 444998       loc_444998
 44499f       sub_44499F
 4449e6       loc_4449E6
 4449ec       loc_4449EC
 444a9a       loc_444A9A
 444a9f       loc_444A9F
 444add       loc_444ADD
 444aec       loc_444AEC
 444b0e       loc_444B0E
 444b13       loc_444B13
 444b1d       loc_444B1D
 444b2e       loc_444B2E
 444b3b       loc_444B3B
 444b4a       loc_444B4A
 444b6c       loc_444B6C
 444b74       loc_444B74
 444b76       locret_444B76
 444b7a       CArchive::operator<<(uchar)
 444b8b       loc_444B8B
 444b9d       CArchive::operator<<(ushort)
 444baf       loc_444BAF
 444bc4       sub_444BC4
 444be7       locret_444BE7
 444bea       COleDateTime::GetTickCount(void)
 444c0c       sub_444C0C
 444c6f       loc_444C6F
 444c76       sub_444C76
 444c93       loc_444C93
 444ca8       sub_444CA8
 444ccd       loc_444CCD
 444cd2       sub_444CD2
 444cf7       loc_444CF7
 444cfc       sub_444CFC
 444d21       loc_444D21
 444d26       sub_444D26
 444d4b       loc_444D4B
 444d50       sub_444D50
 444d75       loc_444D75
 444d7a       sub_444D7A
 444d9f       loc_444D9F
 444da4       sub_444DA4
 444db3       sub_444DB3
 444df7       loc_444DF7
 444dfe       loc_444DFE
 444e04       sub_444E04
 444e34       loc_444E34
 444e36       locret_444E36
 444e3a       sub_444E3A
 444e6a       loc_444E6A
 444e6c       locret_444E6C
 444e70       sub_444E70
 444e9b       sub_444E9B
 444ec5       sub_444EC5
 444edb       loc_444EDB
 444ee1       sub_444EE1
 444ee8       sub_444EE8
 444f12       sub_444F12
 444f28       loc_444F28
 444f2e       sub_444F2E
 444f35       sub_444F35
 444f5f       sub_444F5F
 444f75       loc_444F75
 444f7b       sub_444F7B
 444f82       sub_444F82
 444fac       sub_444FAC
 444fc2       loc_444FC2
 444fc8       sub_444FC8
 444fcf       sub_444FCF
 444fe3       sub_444FE3
 444ff3       sub_444FF3
 44500f       CDC::ExtTextOutA(int,int,uint,tagRECT_const_*,char_const_*,uint,int_*)
 445034       CDC::TabbedTextOutA(int,int,char_const_*,int,int,int_*,int)
 44506c       sub_44506C
 445088       CDC::GrayStringA(CBrush_*,int_(*)(HDC___*,long,int),long,int,int,int,int,int)
 445095       loc_445095
 4450b8       sub_4450B8
 4450d4       sub_4450D4
 4450e5       loc_4450E5
 4450f0       [thunk]:_`vcall'{200,{flat}}
 4450f8       sub_4450F8
 445115       loc_445115
 44519c       loc_44519C
 4451cc       loc_4451CC
 4451d0       sub_4451D0
 4451eb       loc_4451EB
 445218       loc_445218
 44521c       loc_44521C
 445221       loc_445221
 445226       xMonitorFromWindow(x,x)
 445243       loc_445243
 445250       loc_445250
 44526c       loc_44526C
 445279       loc_445279
 44528b       loc_44528B
 44528d       locret_44528D
 445291       sub_445291
 4452b0       loc_4452B0
 445318       loc_445318
 44531c       loc_44531C
 44531e       loc_44531E
 445324       CWnd::GetOwner(void)
 445334       loc_445334
 44533b       loc_44533B
 445348       nullsub_28
 445349       CBitmap::LoadBitmapA(uint)
 44536d       CWnd::GetFont(void)
 445383       sub_445383
 445399       loc_445399
 44539f       sub_44539F
 4453cb       sub_4453CB
 4453f0       loc_4453F0
 445409       sub_445409
 44541f       loc_44541F
 445425       sub_445425
 44544e       sub_44544E
 445476       loc_445476
 44548a       sub_44548A
 4454b2       sub_4454B2
 4454fe       loc_4454FE
 44550b       loc_44550B
 44552b       sub_44552B
 445541       sub_445541
 445568       loc_445568
 44556d       sub_44556D
 445583       loc_445583
 445589       sub_445589
 4455d1       start
 44563c       loc_44563C
 44564d       loc_44564D
 44569c       loc_44569C
 44569f       loc_44569F
 4456ba       loc_4456BA
 4456ce       loc_4456CE
 4456d9       __amsg_exit
 4456e7       loc_4456E7
 4456fe       _fast_error_exit
 44570c       loc_44570C
 445722       __fpmath
 445739       nullsub_27
 44573a       __cfltcvt_init
 445780       __CIpow
 445799       _pow
 4457a2       sub_4457A2
 4457b6       loc_4457B6
 4457e2       loc_4457E2
 4457ef       loc_4457EF
 4457fd       loc_4457FD
 44581a       loc_44581A
 445839       loc_445839
 44584c       loc_44584C
 445855       loc_445855
 44585c       loc_44585C
 445865       loc_445865
 445869       loc_445869
 44587f       loc_44587F
 44589d       loc_44589D
 4458d8       loc_4458D8
 44591a       loc_44591A
 445924       loc_445924
 445935       loc_445935
 445949       loc_445949
 445950       loc_445950
 445975       sub_445975
 445999       locret_445999
 44599a       loc_44599A
 44599d       _modf
 445a1a       loc_445A1A
 445a42       loc_445A42
 445a72       loc_445A72
 445a8d       loc_445A8D
 445aaa       loc_445AAA
 445ab6       loc_445AB6
 445ab9       loc_445AB9
 445ac0       _fmod
 445aca       __CIfmod
 445ad4       fFMOD
 445ad6       remloop
 445ae3       badP5_fprem
 445ae8       fprem_done
 445b00       _strncmp
 445b1a       okay
 445b2d       firstbig
 445b2f       lastbig
 445b31       toend
 445b38       _floor
 445b93       loc_445B93
 445ba1       loc_445BA1
 445bbe       loc_445BBE
 445bd3       loc_445BD3
 445be1       loc_445BE1
 445bfb       loc_445BFB
 445c03       loc_445C03
 445c08       __ftol
 445c2f       __copysign
 445c50       __fpclass
 445c7e       loc_445C7E
 445c81       loc_445C81
 445c85       loc_445C85
 445c89       loc_445C89
 445c90       loc_445C90
 445cab       loc_445CAB
 445cba       loc_445CBA
 445cd5       loc_445CD5
 445ce2       sub_445CE2
 445d03       _getenv
 445d34       loc_445D34
 445d45       loc_445D45
 445d6d       loc_445D6D
 445d72       loc_445D72
 445d7a       loc_445D7A
 445d7c       loc_445D7C
 445d80       _JumpToContinuation(void_*,EHRegistrationNode_*)
 445db4       sub_445DB4
 445dbb       sub_445DBB
 445dc2       _UnwindNestedFrames(EHRegistrationNode_*,EHExceptionRecord_*)
 445dea       $ReturnPoint$16567
 445e11       ___CxxFrameHandler
 445e47       _CallCatchBlock2(EHRegistrationNode_*,_s_FuncInfo_const_*,void_*,int,ulong)
 445e9b       CatchGuardHandler(EHExceptionRecord_*,CatchGuardRN_*,void_*,void_*)
 445ec0       _CallSETranslator(EHExceptionRecord_*,EHRegistrationNode_*,void_*,void_*,_s_FuncInfo_const_*,int,EHRegistrationNode_*)
 445f48       $ExceptionContinuation$16750
 445f65       loc_445F65
 445f6e       loc_445F6E
 445f76       TranslatorGuardHandler(EHExceptionRecord_*,TranslatorGuardRN_*,void_*,void_*)
 445f99       loc_445F99
 445fd7       loc_445FD7
 445fe6       loc_445FE6
 445feb       _GetRangeOfTrysToCheck(_s_FuncInfo_const_*,int,int,uint_*,uint_*)
 446009       loc_446009
 446013       loc_446013
 446028       loc_446028
 44602d       loc_44602D
 446039       loc_446039
 446042       loc_446042
 446056       loc_446056
 44605b       loc_44605B
 446068       __global_unwind2
 446080       _gu_return
 446088       __unwind_handler
 4460a9       _uh_return
 4460aa       __local_unwind2
 4460c7       _lu_top
 446102       __NLG_Return2
 446104       _lu_done
 446112       __abnormal_termination
 446134       _at_done
 446135       __NLG_Notify1
 44613e       __NLG_Notify
 446148       __NLG_Go
 446151       __NLG_Dispatch
 446156       _atof
 446160       loc_446160
 446178       loc_446178
 446187       loc_446187
 44618e       loc_44618E
 4461ad       _atol
 4461b5       loc_4461B5
 4461cd       loc_4461CD
 4461dc       loc_4461DC
 4461e3       loc_4461E3
 4461f3       loc_4461F3
 4461f7       loc_4461F7
 4461f9       loc_4461F9
 44620e       loc_44620E
 446219       loc_446219
 44622a       loc_44622A
 446233       loc_446233
 446238       _atoi
 446243       __atoi64
 44624c       loc_44624C
 446264       loc_446264
 446273       loc_446273
 44627a       loc_44627A
 44628c       loc_44628C
 446290       loc_446290
 446294       loc_446294
 4462a9       loc_4462A9
 4462b4       loc_4462B4
 4462e1       loc_4462E1
 4462f5       loc_4462F5
 4462f7       loc_4462F7
 4462fd       _isspace
 446314       loc_446314
 446330       __allmul
 446349       hard
 446364       __mbscmp
 446385       loc_446385
 446393       loc_446393
 4463b3       loc_4463B3
 4463bd       loc_4463BD
 4463d8       loc_4463D8
 4463e1       loc_4463E1
 4463f0       loc_4463F0
 446404       loc_446404
 44640e       loc_44640E
 446413       __mbsicmp
 446437       loc_446437
 446456       loc_446456
 446476       loc_446476
 4464a4       loc_4464A4
 4464bc       loc_4464BC
 4464c4       loc_4464C4
 4464df       loc_4464DF
 4464e1       loc_4464E1
 446501       loc_446501
 44652f       loc_44652F
 446543       loc_446543
 44654b       loc_44654B
 446562       loc_446562
 446577       loc_446577
 446586       loc_446586
 446599       loc_446599
 4465a3       loc_4465A3
 4465b0       __alldiv
 4465d1       loc_4465D1
 4465ed       loc_4465ED
 446609       loc_446609
 446617       loc_446617
 446645       loc_446645
 446646       loc_446646
 44664a       loc_44664A
 446654       loc_446654
 446660       __allrem
 446680       loc_446680
 44669b       loc_44669B
 4466ba       loc_4466BA
 4466c8       loc_4466C8
 4466f3       loc_4466F3
 4466fb       loc_4466FB
 446706       loc_446706
 44670d       loc_44670D
 446720       _memcpy
 446740       loc_446740
 44675c       loc_44675C
 446774       loc_446774
 44677c       loc_44677C
 446790       LeadUp1
 4467bc       LeadUp2
 4467e0       LeadUp3
 4467fc       off_4467FC
 44681c       UnwindUp7
 446824       UnwindUp6
 44682c       UnwindUp5
 446834       UnwindUp4
 44683c       UnwindUp3
 446844       UnwindUp2
 44684c       UnwindUp1
 44685f       UnwindUp0
 446868       off_446868
 446878       TrailUp0
 446880       TrailUp1
 44688c       TrailUp2
 4468a0       TrailUp3
 4468b8       loc_4468B8
 4468e0       loc_4468E0
 4468ec       loc_4468EC
 446904       loc_446904
 446918       LeadDown1
 446938       LeadDown2
 446960       LeadDown3
 4469b0       off_4469B0
 4469b4       UnwindDown7
 4469bc       UnwindDown6
 4469c4       UnwindDown5
 4469cc       UnwindDown4
 4469d4       UnwindDown3
 4469dc       UnwindDown2
 4469e4       UnwindDown1
 4469f7       UnwindDown0
 446a00       off_446A00
 446a10       TrailDown0
 446a18       TrailDown1
 446a28       TrailDown2
 446a3c       TrailDown3
 446a55       __i64toa
 446a6c       loc_446A6C
 446a6f       loc_446A6F
 446a86       x64toa(x,x,x,x,x)
 446aa8       loc_446AA8
 446aae       loc_446AAE
 446ab1       loc_446AB1
 446ade       loc_446ADE
 446ae0       loc_446AE0
 446aed       loc_446AED
 446af1       loc_446AF1
 446b10       __aullshr
 446b20       MORE32
 446b2a       RETZERO
 446b2f       type_info::~type_info(void)
 446b4e       loc_446B4E
 446b58       type_info::`scalar_deleting_destructor'(uint)
 446b6e       loc_446B6E
 446b80       __alloca_probe
 446b8c       probepages
 446ba0       lastpage
 446baf       __mbsnbcmp
 446bde       loc_446BDE
 446bef       loc_446BEF
 446c1b       loc_446C1B
 446c26       loc_446C26
 446c30       loc_446C30
 446c50       loc_446C50
 446c54       loc_446C54
 446c5d       loc_446C5D
 446c7b       loc_446C7B
 446c8f       loc_446C8F
 446c97       loc_446C97
 446c99       loc_446C99
 446ca0       _strncpy
 446cc4       src_misaligned
 446ce0       tail_loop_start
 446ce5       copy_tail_loop
 446cf2       fill_tail_end1
 446cfa       align_dest
 446d02       dest_align_loop
 446d14       dest_align_loop_end
 446d1b       finish_loop
 446d1e       fill_tail_zero_bytes
 446d23       finish
 446d29       main_loop
 446d31       main_loop_entrance
 446d67       loc_446D67
 446d71       loc_446D71
 446d7b       loc_446D7B
 446d7f       fill_with_EOS_dwords
 446d87       fill_dwords_with_EOS
 446d89       fill_with_EOS_loop
 446d91       fill_tail
 446d96       fill_tail_end
 446d9e       sub_446D9E
 446df9       loc_446DF9
 446e02       loc_446E02
 446e08       loc_446E08
 446e11       loc_446E11
 446e4c       loc_446E4C
 446e55       loc_446E55
 446e59       loc_446E59
 446e60       loc_446E60
 446e69       loc_446E69
 446e6a       loc_446E6A
 446e78       loc_446E78
 446e87       _malloc
 446e99       __nh_malloc
 446ea0       loc_446EA0
 446ec2       loc_446EC2
 446ec4       locret_446EC4
 446ec5       sub_446EC5
 446f20       loc_446F20
 446f2c       loc_446F2C
 446f35       loc_446F35
 446f49       loc_446F49
 446f4c       loc_446F4C
 446f7e       loc_446F7E
 446f85       loc_446F85
 446f88       loc_446F88
 446f8b       loc_446F8B
 446f94       loc_446F94
 446f9e       loc_446F9E
 446fa4       loc_446FA4
 446fb2       loc_446FB2
 446fc1       ___initstdio
 446fd5       loc_446FD5
 446fdb       loc_446FDB
 446fe0       loc_446FE0
 447014       loc_447014
 44701b       loc_44701B
 447038       loc_447038
 447058       loc_447058
 44705b       loc_44705B
 447069       ___endstdio
 44707c       locret_44707C
 44707d       __lock_file
 4470a1       loc_4470A1
 4470ac       sub_4470AC
 4470c0       loc_4470C0
 4470cf       __unlock_file
 4470f3       loc_4470F3
 4470fe       sub_4470FE
 447112       loc_447112
 447121       __onexit
 44716a       loc_44716A
 447187       loc_447187
 447196       loc_447196
 44719f       _atexit
 4471b1       ___onexitinit
 4471d2       loc_4471D2
 4471e0       _toupper
 4471fe       loc_4471FE
 447228       loc_447228
 447244       loc_447244
 447247       loc_447247
 44724d       loc_44724D
 44724f       _toupper_0
 44727a       loc_44727A
 44729a       loc_44729A
 4472a5       loc_4472A5
 4472a9       loc_4472A9
 4472ad       loc_4472AD
 4472d0       loc_4472D0
 4472d9       loc_4472D9
 44730b       loc_44730B
 447318       loc_447318
 447320       _strstr
 447338       findnext
 447349       loop_start
 44734c       in_loop
 447354       not_found
 44735a       first_char_found
 447361       two_first_chars_equal
 447364       compare_loop
 447387       strchr_call
 447393       match
 44739a       empty_str2
 4473a0       __mbsstr
 4473bf       loc_4473BF
 4473d8       loc_4473D8
 4473eb       loc_4473EB
 4473fc       loc_4473FC
 44740b       loc_44740B
 44740f       loc_44740F
 447411       loc_447411
 447420       found_bx
 447430       _strchr
 447436       ___from_strstr_to_strchr
 447448       str_misaligned
 44745b       main_loop_start
 447466       main_loop_0
 4474a2       retnull
 4474a4       retnull_bx
 4474a8       chr_is_found
 4474d0       loc_4474D0
 4474d7       loc_4474D7
 4474de       loc_4474DE
 4474e5       loc_4474E5
 4474f0       _strrchr
 447511       returndi
 447513       toend_0
 447517       __mbsrchr
 447534       loc_447534
 447540       loc_447540
 44756b       loc_44756B
 44756f       loc_44756F
 447572       loc_447572
 447576       loc_447576
 447586       loc_447586
 447589       _div
 4475aa       loc_4475AA
 4475ae       _strtok
 4475cf       loc_4475CF
 4475f7       loc_4475F7
 447617       loc_447617
 447619       loc_447619
 447639       loc_447639
 44763d       loc_44763D
 447660       _memchr
 44767b       str_misaligned_0
 44768d       main_loop_start_0
 4476a3       return_from_main
 4476a4       tail_less_then_4
 4476a9       tail_loop
 4476b3       retnull_0
 4476b5       main_loop_1
 4476ba       main_loop_entry
 4476d5       char_is_found
 4476ed       loc_4476ED
 4476ee       found
 4476f3       loc_4476F3
 4476f9       loc_4476F9
 4476ff       loc_4476FF
 447708       __setjmp3
 447745       _s3_get_count
 447757       _s3_default_trylevel
 44775f       _s3_save_trylevel
 44777c       _s3_save_data
 447780       _s3_done
 447784       _longjmp
 44779f       _lj_local_unwind
 4477c7       _lj_old_unwind
 4477d4       _lj_no_unwind
 4477fd       _sscanf
 447840       _memcpy_0
 447860       loc_447860
 44787c       loc_44787C
 447894       loc_447894
 44789c       loc_44789C
 4478b0       LeadUp1_0
 4478dc       LeadUp2_0
 447900       LeadUp3_0
 44791c       off_44791C
 44793c       UnwindUp7_0
 447944       UnwindUp6_0
 44794c       UnwindUp5_0
 447954       UnwindUp4_0
 44795c       UnwindUp3_0
 447964       UnwindUp2_0
 44796c       UnwindUp1_0
 44797f       UnwindUp0_0
 447988       off_447988
 447998       TrailUp0_0
 4479a0       TrailUp1_0
 4479ac       TrailUp2_0
 4479c0       TrailUp3_0
 4479d8       loc_4479D8
 447a00       loc_447A00
 447a0c       loc_447A0C
 447a24       loc_447A24
 447a38       LeadDown1_0
 447a58       LeadDown2_0
 447a80       LeadDown3_0
 447ad0       off_447AD0
 447ad4       UnwindDown7_0
 447adc       UnwindDown6_0
 447ae4       UnwindDown5_0
 447aec       UnwindDown4_0
 447af4       UnwindDown3_0
 447afc       UnwindDown2_0
 447b04       UnwindDown1_0
 447b17       UnwindDown0_0
 447b20       off_447B20
 447b30       TrailDown0_0
 447b38       TrailDown1_0
 447b48       TrailDown2_0
 447b5c       TrailDown3_0
 447b75       _wcslen
 447b82       loc_447B82
 447b8c       loc_447B8C
 447b94       __EH_prolog
 447bb3       __mbschr
 447bd0       loc_447BD0
 447bdb       loc_447BDB
 447c0a       loc_447C0A
 447c12       loc_447C12
 447c15       loc_447C15
 447c21       loc_447C21
 447c2e       loc_447C2E
 447c46       loc_447C46
 447c50       _memset
 447c73       adjust_loop
 447c79       dwords
 447c93       main_loop_tail
 447c97       tail
 447c9d       finish_0
 447ca3       toend_1
 447ca8       __mbsinc
 447cbe       locret_447CBE
 447cbf       _vsprintf
 447cfe       loc_447CFE
 447d0b       loc_447D0B
 447d10       __mbclen
 447d30       _strlen
 447d3c       str_misaligned_1
 447d50       main_loop_2
 447d83       loc_447D83
 447d8d       loc_447D8D
 447d97       loc_447D97
 447da1       loc_447DA1
 447dab       _sprintf
 447deb       loc_447DEB
 447df8       loc_447DF8
 447dfd       __ismbcdigit
 447e2e       loc_447E2E
 447e32       loc_447E32
 447e6a       loc_447E6A
 447e7f       loc_447E7F
 447e90       _memcmp
 447ebd       main_loop_3
 447eda       done
 447edc       retnull_1
 447edd       dwords_0
 447f05       difference_in_tail
 447f0a       not_equal
 447f12       tail_loop_start_0
 447f39       tail_done
 447f3c       _CxxThrowException(x,x)
 447f76       _fabs
 447fdb       loc_447FDB
 447fec       loc_447FEC
 447ffc       loc_447FFC
 44800a       loc_44800A
 448027       loc_448027
 44802b       _ceil
 448086       loc_448086
 448094       loc_448094
 4480b1       loc_4480B1
 4480c6       loc_4480C6
 4480d4       loc_4480D4
 4480ee       loc_4480EE
 4480f6       loc_4480F6
 4480fa       _time
 44815f       loc_44815F
 448188       loc_448188
 44818c       loc_44818C
 44818f       loc_44818F
 4481a4       loc_4481A4
 4481d4       locret_4481D4
 4481d6       _localtime
 4481e9       loc_4481E9
 44824f       loc_44824F
 44826b       loc_44826B
 44828a       loc_44828A
 4482ac       loc_4482AC
 4482cd       loc_4482CD
 4482f3       loc_4482F3
 4482f9       loc_4482F9
 4482fb       loc_4482FB
 4482fe       loc_4482FE
 448336       sub_448336
 448370       loc_448370
 448383       loc_448383
 448391       loc_448391
 4483d6       loc_4483D6
 4483f1       loc_4483F1
 44840e       loc_44840E
 44841d       loc_44841D
 448448       loc_448448
 44845e       loc_44845E
 448467       loc_448467
 448473       loc_448473
 44848e       loc_44848E
 4484b9       loc_4484B9
 4484c1       loc_4484C1
 4484ca       loc_4484CA
 4484e4       loc_4484E4
 4484e7       loc_4484E7
 4484ea       loc_4484EA
 44854c       loc_44854C
 448569       loc_448569
 448584       loc_448584
 448587       loc_448587
 4485b2       loc_4485B2
 4485cd       loc_4485CD
 4485e0       loc_4485E0
 4485e9       loc_4485E9
 448609       loc_448609
 44860f       loc_44860F
 44861a       loc_44861A
 448628       loc_448628
 44863d       loc_44863D
 448654       loc_448654
 448656       loc_448656
 448665       _abs
 44866f       locret_44866F
 448670       __strdup
 448697       loc_448697
 44869b       __cinit
 4486a6       loc_4486A6
 4486c8       _exit
 4486d9       __exit
 4486ea       _doexit
 44870c       loc_44870C
 44873b       loc_44873B
 448743       loc_448743
 44874e       loc_44874E
 44874f       loc_44874F
 448760       loc_448760
 44877d       loc_44877D
 44878f       __lockexit
 448798       __unlockexit
 4487a1       __initterm
 4487a6       loc_4487A6
 4487b4       loc_4487B4
 4487b9       loc_4487B9
 4487bb       sub_4487BB
 4487ed       loc_4487ED
 448832       loc_448832
 44883b       loc_44883B
 44884a       loc_44884A
 44884d       loc_44884D
 448856       loc_448856
 448866       loc_448866
 4488bf       loc_4488BF
 4488ce       loc_4488CE
 4488d7       loc_4488D7
 4488df       loc_4488DF
 4488e2       loc_4488E2
 4488eb       loc_4488EB
 4488f2       loc_4488F2
 4488f8       loc_4488F8
 44890d       loc_44890D
 448910       loc_448910
 44891f       sub_44891F
 448974       loc_448974
 448977       loc_448977
 448980       loc_448980
 448986       loc_448986
 448989       loc_448989
 448992       loc_448992
 4489cb       loc_4489CB
 4489ce       loc_4489CE
 4489d7       loc_4489D7
 4489db       loc_4489DB
 4489dd       loc_4489DD
 4489f0       loc_4489F0
 448a01       loc_448A01
 448a04       loc_448A04
 448a0d       _strtol
 448a24       _strtoxl
 448a3c       loc_448A3C
 448a54       loc_448A54
 448a63       loc_448A63
 448a6c       loc_448A6C
 448a7a       loc_448A7A
 448a7f       loc_448A7F
 448a85       loc_448A85
 448ab7       loc_448AB7
 448aca       loc_448ACA
 448acd       loc_448ACD
 448ae1       loc_448AE1
 448ae9       loc_448AE9
 448af9       loc_448AF9
 448b11       loc_448B11
 448b1c       loc_448B1C
 448b28       loc_448B28
 448b3c       loc_448B3C
 448b47       loc_448B47
 448b5a       loc_448B5A
 448b79       loc_448B79
 448b7f       loc_448B7F
 448b88       loc_448B88
 448b95       loc_448B95
 448bac       loc_448BAC
 448bb2       loc_448BB2
 448bcd       loc_448BCD
 448bd6       loc_448BD6
 448bed       loc_448BED
 448bfd       loc_448BFD
 448c06       loc_448C06
 448c14       loc_448C14
 448c19       loc_448C19
 448c22       loc_448C22
 448c24       loc_448C24
 448c29       sub_448C29
 448c3c       loc_448C3C
 448c62       loc_448C62
 448c72       loc_448C72
 448c8f       loc_448C8F
 448c9c       __errno
 448ca5       ___doserrno
 448cae       _mktime
 448cbc       __make_time_t
 448ce8       loc_448CE8
 448d09       loc_448D09
 448d1e       loc_448D1E
 448d33       loc_448D33
 448d60       loc_448D60
 448d6c       loc_448D6C
 448d87       loc_448D87
 448d89       loc_448D89
 448da9       loc_448DA9
 448db5       loc_448DB5
 448dcf       loc_448DCF
 448dd1       loc_448DD1
 448df1       loc_448DF1
 448dfd       loc_448DFD
 448e17       loc_448E17
 448e19       loc_448E19
 448e33       loc_448E33
 448e3b       loc_448E3B
 448e6b       loc_448E6B
 448e7f       loc_448E7F
 448e8d       loc_448E8D
 448e99       loc_448E99
 448e9c       loc_448E9C
 448ea0       _gmtime
 448ebd       loc_448EBD
 448ed7       loc_448ED7
 448eda       loc_448EDA
 448f16       loc_448F16
 448f19       loc_448F19
 448f3f       loc_448F3F
 448f48       loc_448F48
 448f52       loc_448F52
 448fa6       loc_448FA6
 448faa       __setmbcp
 448fd1       loc_448FD1
 448fd8       loc_448FD8
 448fe7       loc_448FE7
 44903c       loc_44903C
 44904d       loc_44904D
 44905f       loc_44905F
 44907c       loc_44907C
 449083       loc_449083
 44909d       loc_44909D
 4490a8       loc_4490A8
 4490af       loc_4490AF
 4490e9       loc_4490E9
 4490f5       loc_4490F5
 4490f7       loc_4490F7
 44911a       loc_44911A
 449121       loc_449121
 44912d       loc_44912D
 449136       loc_449136
 44913b       loc_44913B
 449145       loc_449145
 449148       loc_449148
 449157       _getSystemCP
 449177       loc_449177
 44918c       loc_44918C
 4491a0       locret_4491A0
 4491a1       _CPtoLCID
 4491bc       loc_4491BC
 4491c2       loc_4491C2
 4491c8       loc_4491C8
 4491ce       loc_4491CE
 4491d4       _setSBCS
 4491fd       _setSBUpLow
 449227       loc_449227
 449246       loc_449246
 44926d       loc_44926D
 449278       loc_449278
 4492f3       loc_4492F3
 449309       loc_449309
 449311       loc_449311
 449326       loc_449326
 44932d       loc_44932D
 449336       loc_449336
 44933d       loc_44933D
 449353       loc_449353
 44935b       loc_44935B
 449373       loc_449373
 44937a       loc_44937A
 44937f       loc_44937F
 449382       ___initmbctable
 44939d       locret_44939D
 44939e       __XcptFilter
 4493df       loc_4493DF
 449419       loc_449419
 44943a       loc_44943A
 44944f       loc_44944F
 44945f       loc_44945F
 44946f       loc_44946F
 44947f       loc_44947F
 44948f       loc_44948F
 44949f       loc_44949F
 4494ad       loc_4494AD
 4494bc       loc_4494BC
 4494c4       loc_4494C4
 4494ca       loc_4494CA
 4494cf       loc_4494CF
 4494d8       loc_4494D8
 4494dc       _xcptlookup
 4494f8       loc_4494F8
 449503       loc_449503
 449511       loc_449511
 449513       loc_449513
 449516       __wincmdln
 449524       loc_449524
 449531       loc_449531
 44954e       loc_44954E
 449553       loc_449553
 449556       loc_449556
 44955a       loc_44955A
 449560       loc_449560
 44956a       loc_44956A
 44956e       __setenvp
 449580       loc_449580
 449588       loc_449588
 449593       loc_449593
 4495a0       loc_4495A0
 4495c2       loc_4495C2
 4495cd       loc_4495CD
 4495f1       loc_4495F1
 4495fe       loc_4495FE
 449605       loc_449605
 449627       __setargv
 44963e       loc_44963E
 449663       loc_449663
 449693       loc_449693
 4496c0       _parse_cmdline
 4496ea       loc_4496EA
 4496ef       loc_4496EF
 449714       loc_449714
 449721       loc_449721
 44972b       loc_44972B
 449733       loc_449733
 44973e       loc_44973E
 449758       loc_449758
 449759       loc_449759
 449767       loc_449767
 44976b       loc_44976B
 44976e       loc_44976E
 449776       loc_449776
 44977a       loc_44977A
 449783       loc_449783
 44978f       loc_44978F
 449792       loc_449792
 4497a7       loc_4497A7
 4497ac       loc_4497AC
 4497b5       loc_4497B5
 4497be       loc_4497BE
 4497dc       loc_4497DC
 4497df       loc_4497DF
 4497ed       loc_4497ED
 4497ef       loc_4497EF
 4497f7       loc_4497F7
 4497ff       loc_4497FF
 449804       loc_449804
 44981a       loc_44981A
 449836       loc_449836
 44983d       loc_44983D
 44984c       loc_44984C
 44984e       loc_44984E
 449854       loc_449854
 44985c       loc_44985C
 449863       loc_449863
 44986a       loc_44986A
 449874       ___crtGetEnvironmentStringsA
 4498a3       loc_4498A3
 4498c2       loc_4498C2
 4498cb       loc_4498CB
 4498db       loc_4498DB
 4498e2       loc_4498E2
 4498f0       loc_4498F0
 44993d       loc_44993D
 449941       loc_449941
 44994c       loc_44994C
 449951       loc_449951
 449961       loc_449961
 449967       loc_449967
 449971       loc_449971
 449987       loc_449987
 449992       loc_449992
 44999d       loc_44999D
 44999f       loc_44999F
 4499a6       __ioinit
 4499c8       loc_4499C8
 4499de       loc_4499DE
 449a00       loc_449A00
 449a36       loc_449A36
 449a43       loc_449A43
 449a61       loc_449A61
 449a81       loc_449A81
 449a8e       loc_449A8E
 449a94       loc_449A94
 449a9a       loc_449A9A
 449ab9       loc_449AB9
 449adc       loc_449ADC
 449ae6       loc_449AE6
 449ae8       loc_449AE8
 449b07       loc_449B07
 449b11       loc_449B11
 449b36       loc_449B36
 449b3c       loc_449B3C
 449b47       loc_449B47
 449b4b       loc_449B4B
 449b62       __mtinit
 449bb2       loc_449BB2
 449bb6       __initptd
 449bc9       __getptd
 449c1c       loc_449C1C
 449c24       loc_449C24
 449c30       sub_449C30
 449c5b       loc_449C5B
 449c5d       sub_449C5D
 449ca0       loc_449CA0
 449ccf       loc_449CCF
 449cdd       loc_449CDD
 449ce2       loc_449CE2
 449d04       loc_449D04
 449d25       loc_449D25
 449d33       loc_449D33
 449d38       loc_449D38
 449d4d       loc_449D4D
 449d66       loc_449D66
 449d6f       loc_449D6F
 449d70       loc_449D70
 449d74       loc_449D74
 449d8f       loc_449D8F
 449da2       loc_449DA2
 449da5       sub_449DA5
 449de1       loc_449DE1
 449deb       loc_449DEB
 449dfb       loc_449DFB
 449dfe       loc_449DFE
 449e0c       __except_handler3
 449e3f       _lh_top
 449e93       _lh_continue
 449e9e       _lh_dismiss
 449ea5       _lh_bagit
 449eac       _lh_unwinding
 449ec1       _lh_return
 449ec9       _seh_longjmp_unwind(x)
 449ee4       __FF_MSGBANNER
 449efb       loc_449EFB
 449f11       loc_449F11
 449f1c       locret_449F1C
 449f1d       sub_449F1D
 449f30       loc_449F30
 449f3f       loc_449F3F
 449f70       loc_449F70
 449fa7       loc_449FA7
 449fea       loc_449FEA
 44a047       loc_44A047
 44a06d       loc_44A06D
 44a070       __setdefaultprecision
 44a082       __ms_p5_test_fdiv
 44a0bc       loc_44A0BC
 44a0c0       __ms_p5_mp_test_fdiv
 44a0e4       loc_44A0E4
 44a0e9       __forcdecpt
 44a0fd       loc_44A0FD
 44a116       loc_44A116
 44a125       loc_44A125
 44a129       loc_44A129
 44a134       loc_44A134
 44a143       __cropzeros
 44a153       loc_44A153
 44a15f       loc_44A15F
 44a166       loc_44A166
 44a179       loc_44A179
 44a17b       loc_44A17B
 44a186       loc_44A186
 44a190       locret_44A190
 44a191       __positive
 44a1a6       loc_44A1A6
 44a1a9       __fassign
 44a1d2       loc_44A1D2
 44a1e7       __cftoe
 44a248       __cftoe2
 44a276       loc_44A276
 44a283       loc_44A283
 44a29a       loc_44A29A
 44a2be       loc_44A2BE
 44a2d2       loc_44A2D2
 44a2e9       loc_44A2E9
 44a300       loc_44A300
 44a303       loc_44A303
 44a30a       __cftof
 44a35f       __cftof2
 44a38f       loc_44A38F
 44a39c       loc_44A39C
 44a3b3       loc_44A3B3
 44a3b5       loc_44A3B5
 44a3de       loc_44A3DE
 44a3e5       loc_44A3E5
 44a3e8       loc_44A3E8
 44a3ff       loc_44A3FF
 44a406       __cftog
 44a461       loc_44A461
 44a46b       loc_44A46B
 44a47f       loc_44A47F
 44a494       loc_44A494
 44a499       __cfltcvt
 44a4c1       loc_44A4C1
 44a4d4       loc_44A4D4
 44a4e5       loc_44A4E5
 44a4ea       __shift
 44a50d       loc_44A50D
 44a510       fFYTOX
 44a51d       fFXTOY
 44a521       __fFEXP
 44a52e       fF2X
 44a54f       badP5_fdivr
 44a554       fdivr_done
 44a55b       ExpScaled
 44a561       expret
 44a566       negYTOX
 44a578       evenexp
 44a57e       _rtfor0to0
 44a583       negYTOXerror
 44a588       __rtinfpopse
 44a58a       __rtinfnpopse
 44a59a       __fFLN
 44a5b4       _rtforln0
 44a5c4       _rtforloginf
 44a5c9       fFLOGm
 44a5cd       fFLNm
 44a5cf       fFYL2Xm
 44a5d8       _rtforyto0
 44a5dd       _rtfor0tox
 44a5f7       zerotoxdone
 44a5f8       _rtfor0toneg
 44a612       tranzeropop
 44a614       tranzeronpop
 44a619       tranindfpop
 44a61b       tranindfnpop
 44a620       ExpArgOutOfRange
 44a642       _expbigret
 44a643       zeronpopue
 44a64f       __rtinfpop
 44a651       __rtinfnpop
 44a659       setOVERFLOW
 44a661       _rtforexpinf
 44a66e       __ffexpm1
 44a6b1       _isintTOS
 44a6d6       _isintTOSret
 44a6d7       notanint
 44a6de       evenint
 44a6e5       _usepowhlp
 44a716       noerror
 44a720       __trandisp1
 44a737       loc_44A737
 44a73b       loc_44A73B
 44a787       __trandisp2
 44a79e       cwdefault
 44a7a2       setcw
 44a813       __rttospopde
 44a818       __rttospop
 44a81a       __rtnospop
 44a81c       __rttosnpop
 44a81d       __rtnospopde
 44a824       __rtzeropop
 44a826       __rtzeronpop
 44a82b       __rtonepop
 44a82d       __rtonenpop
 44a832       __tosnan1
 44a84f       _tossnan1
 44a85d       __nosnan2
 44a85f       __tosnan2
 44a87d       _tossnan2
 44a884       _tosnan2ret
 44a887       __nan2
 44a8bc       _snan2
 44a8c3       _nan2ret
 44a8c6       __rtindfpop
 44a8c8       __rtindfnpop
 44a8d9       __rttosnpopde
 44a8e0       retj
 44a8e3       __rtchsifneg
 44a8e9       chsifnegret
 44a8f0       __startTwoArgErrorHandling
 44a907       __startOneArgErrorHandling
 44a910       _ContinueErrorHandling
 44a941       CW_is_restored
 44a950       __twoToTOS
 44a965       __load_CW
 44a97c       __convertTOStoQNaN
 44a989       tosIsSNaN
 44a995       __fload_withFB
 44a9a7       fpload_special
 44a9d8       __checkTOS_withFB
 44a9e9       special_exp
 44a9ee       __fast_exit
 44a9f9       fast_exit_CW_is_restored
 44a9fb       __math_exit
 44aa20       restore_CW
 44aa23       CW_is_restored_0
 44aa25       __check_overflow_exit
 44aa39       __check_range_exit
 44aa4d       _check_overflow_start
 44aa72       have_error
 44aa7e       have_error_in_pow
 44aa85       loc_44AA85
 44aa88       loc_44AA88
 44aa8a       haveunderflow
 44aab3       haveoverflow
 44aadc       __powhlp
 44aaf9       loc_44AAF9
 44ab2c       loc_44AB2C
 44ab3f       loc_44AB3F
 44ab67       loc_44AB67
 44ab83       loc_44AB83
 44ab8b       loc_44AB8B
 44ab99       loc_44AB99
 44ab9d       loc_44AB9D
 44abd3       loc_44ABD3
 44abdb       loc_44ABDB
 44abf6       loc_44ABF6
 44abf8       loc_44ABF8
 44ac00       loc_44AC00
 44ac02       loc_44AC02
 44ac07       loc_44AC07
 44ac0c       __d_inttype
 44ac68       loc_44AC68
 44ac6a       loc_44AC6A
 44ac6d       loc_44AC6D
 44ac71       __frnd
 44ac83       __handle_qnan1
 44acb8       loc_44ACB8
 44acd7       __except1
 44ad15       loc_44AD15
 44ad53       loc_44AD53
 44ad6f       __raise_exc
 44ada1       loc_44ADA1
 44adb4       loc_44ADB4
 44adc6       loc_44ADC6
 44add9       loc_44ADD9
 44adec       loc_44ADEC
 44ae75       loc_44AE75
 44ae80       loc_44AE80
 44ae8b       loc_44AE8B
 44ae95       loc_44AE95
 44ae9f       loc_44AE9F
 44aec4       loc_44AEC4
 44aed0       loc_44AED0
 44aeda       loc_44AEDA
 44aede       loc_44AEDE
 44aee4       loc_44AEE4
 44af02       loc_44AF02
 44af0f       loc_44AF0F
 44af1a       loc_44AF1A
 44af1c       loc_44AF1C
 44af96       loc_44AF96
 44af9f       loc_44AF9F
 44afa8       loc_44AFA8
 44afb1       loc_44AFB1
 44afb9       loc_44AFB9
 44afd7       loc_44AFD7
 44afe1       loc_44AFE1
 44afe9       loc_44AFE9
 44afed       loc_44AFED
 44afef       loc_44AFEF
 44b006       loc_44B006
 44b00f       loc_44B00F
 44b016       loc_44B016
 44b018       loc_44B018
 44b022       __handle_exc
 44b04d       loc_44B04D
 44b067       loc_44B067
 44b0c1       loc_44B0C1
 44b0c9       loc_44B0C9
 44b0e1       loc_44B0E1
 44b0e9       loc_44B0E9
 44b0f1       loc_44B0F1
 44b109       loc_44B109
 44b111       loc_44B111
 44b119       loc_44B119
 44b131       loc_44B131
 44b137       loc_44B137
 44b139       loc_44B139
 44b141       loc_44B141
 44b15c       loc_44B15C
 44b1a7       loc_44B1A7
 44b1b9       loc_44B1B9
 44b1bb       loc_44B1BB
 44b1d2       loc_44B1D2
 44b1dd       loc_44B1DD
 44b1e9       loc_44B1E9
 44b1ef       loc_44B1EF
 44b1fb       loc_44B1FB
 44b205       loc_44B205
 44b207       loc_44B207
 44b214       loc_44B214
 44b217       loc_44B217
 44b22e       loc_44B22E
 44b239       __umatherr
 44b29e       loc_44B29E
 44b2a4       loc_44B2A4
 44b2c1       __set_errno
 44b2dd       loc_44B2DD
 44b2e8       locret_44B2E8
 44b2e9       __get_fname
 44b2f0       loc_44B2F0
 44b306       loc_44B306
 44b30e       __errcode
 44b31a       loc_44B31A
 44b322       loc_44B322
 44b32a       loc_44B32A
 44b330       loc_44B330
 44b332       loc_44B332
 44b33b       __set_exp
 44b364       __sptype
 44b37b       loc_44B37B
 44b38d       loc_44B38D
 44b3a0       loc_44B3A0
 44b3b5       loc_44B3B5
 44b3b7       loc_44B3B7
 44b3ba       loc_44B3BA
 44b3be       __decomp
 44b3de       loc_44B3DE
 44b3f6       loc_44B3F6
 44b40e       loc_44B40E
 44b410       loc_44B410
 44b423       loc_44B423
 44b429       loc_44B429
 44b437       loc_44B437
 44b44d       loc_44B44D
 44b474       loc_44B474
 44b47f       __statfp
 44b48d       __clrfp
 44b49c       __ctrlfp
 44b4bf       __set_statfp
 44b4d6       loc_44B4D6
 44b4eb       loc_44B4EB
 44b4fa       loc_44B4FA
 44b508       loc_44B508
 44b513       locret_44B513
 44b520       __cintrindisp2
 44b53b       resume2
 44b54f       save2arg
 44b55e       __cintrindisp1
 44b578       resume1
 44b593       save1arg
 44b59b       __ctrandisp2
 44b5e3       ctranexit
 44b5ea       cintrinexit
 44b61d       checkinexact
 44b63f       restoreCW
 44b647       checkrng
 44b65f       haveunderflow_0
 44b68d       haveoverflow_0
 44b6b9       haveerror
 44b6eb       aftercopy
 44b711       movretval
 44b71b       __ctrandisp1
 44b74e       __fload
 44b784       fpload
 44b787       return
 44b790       unknown_libname_4
 44b798       loc_44B798
 44b7b3       loc_44B7B3
 44b7c2       loc_44B7C2
 44b813       loc_44B813
 44b82a       loc_44B82A
 44b834       loc_44B834
 44b837       loc_44B837
 44b878       loc_44B878
 44b880       loc_44B880
 44b8a0       loc_44B8A0
 44b8b4       sub_44B8B4
 44b8ba       word_44B8BA
 44b8bf       sub_44B8BF
 44b8c5       byte_44B8C5
 44b8ca       sub_44B8CA
 44b8d0       sub_44B8D0
 44b8d6       sub_44B8D6
 44b8dc       sub_44B8DC
 44b8e2       sub_44B8E2
 44b8fe       word_44B8FE
 44b903       sub_44B903
 44b919       byte_44B919
 44b91e       sub_44B91E
 44b93a       sub_44B93A
 44b94a       sub_44B94A
 44b95e       sub_44B95E
 44b96e       sub_44B96E
 44b98e       word_44B98E
 44b993       sub_44B993
 44b9ad       byte_44B9AD
 44b9b2       sub_44B9B2
 44b9d2       sub_44B9D2
 44b9e6       sub_44B9E6
 44b9fe       sub_44B9FE
 44ba12       sub_44BA12
 44ba32       word_44BA32
 44ba37       sub_44BA37
 44ba51       byte_44BA51
 44ba56       sub_44BA56
 44ba76       sub_44BA76
 44ba8a       sub_44BA8A
 44baa2       sub_44BAA2
 44bab6       sub_44BAB6
 44bad6       word_44BAD6
 44badb       sub_44BADB
 44baf5       byte_44BAF5
 44bafa       sub_44BAFA
 44bb1a       sub_44BB1A
 44bb2e       sub_44BB2E
 44bb46       sub_44BB46
 44bb5a       sub_44BB5A
 44bb7a       word_44BB7A
 44bb7f       sub_44BB7F
 44bb99       byte_44BB99
 44bb9e       sub_44BB9E
 44bbbe       sub_44BBBE
 44bbd2       sub_44BBD2
 44bbea       sub_44BBEA
 44bbfe       sub_44BBFE
 44bc1e       word_44BC1E
 44bc23       sub_44BC23
 44bc3d       byte_44BC3D
 44bc42       sub_44BC42
 44bc62       sub_44BC62
 44bc76       sub_44BC76
 44bc8e       sub_44BC8E
 44bca2       sub_44BCA2
 44bcc2       word_44BCC2
 44bcc7       sub_44BCC7
 44bce1       byte_44BCE1
 44bce6       sub_44BCE6
 44bd06       sub_44BD06
 44bd1a       sub_44BD1A
 44bd32       sub_44BD32
 44bd46       unknown_libname_6
 44bd59       unknown_libname_7
 44bd6c       unknown_libname_8
 44bd93       loc_44BD93
 44bdb0       loc_44BDB0
 44bdb8       unknown_libname_9
 44bddf       loc_44BDDF
 44bdfc       loc_44BDFC
 44be04       unknown_libname_10
 44be1b       loc_44BE1B
 44be38       unknown_libname_11
 44be4f       loc_44BE4F
 44be6c       unknown_libname_12
 44be93       loc_44BE93
 44beb0       loc_44BEB0
 44beb8       unknown_libname_13
 44bedf       loc_44BEDF
 44befc       loc_44BEFC
 44bf04       unknown_libname_14
 44bf1b       loc_44BF1B
 44bf38       unknown_libname_15
 44bf4f       loc_44BF4F
 44bf6c       unknown_libname_16
 44bf81       unknown_libname_17
 44bf96       unknown_libname_18
 44c020       loc_44C020
 44c07e       loc_44C07E
 44c08e       loc_44C08E
 44c0e8       loc_44C0E8
 44c0f5       loc_44C0F5
 44c130       loc_44C130
 44c13a       loc_44C13A
 44c16d       loc_44C16D
 44c198       loc_44C198
 44c19c       unknown_libname_19
 44c1be       loc_44C1BE
 44c219       loc_44C219
 44c239       loc_44C239
 44c247       loc_44C247
 44c24e       unknown_libname_20
 44c2d8       loc_44C2D8
 44c336       loc_44C336
 44c346       loc_44C346
 44c3a0       loc_44C3A0
 44c3ad       loc_44C3AD
 44c3e8       loc_44C3E8
 44c3f2       loc_44C3F2
 44c425       loc_44C425
 44c450       loc_44C450
 44c454       unknown_libname_21
 44c479       loc_44C479
 44c4d4       loc_44C4D4
 44c4f4       loc_44C4F4
 44c502       loc_44C502
 44c509       unknown_libname_22
 44c50f       unknown_libname_23
 44c515       unknown_libname_24
 44c518       unknown_libname_25
 44c51b       __mtinitlocks
 44c544       __lock
 44c573       loc_44C573
 44c58b       loc_44C58B
 44c591       loc_44C591
 44c59a       loc_44C59A
 44c5a5       __unlock
 44c5ba       __mbsnbicoll
 44c5c7       loc_44C5C7
 44c5f4       loc_44C5F4
 44c5f9       ___wtomb_environ
 44c612       loc_44C612
 44c65a       loc_44C65A
 44c65c       loc_44C65C
 44c662       loc_44C662
 44c667       ___crtsetenv
 44c6b1       loc_44C6B1
 44c6cb       loc_44C6CB
 44c6ce       loc_44C6CE
 44c6d3       loc_44C6D3
 44c709       loc_44C709
 44c73b       loc_44C73B
 44c74b       loc_44C74B
 44c761       loc_44C761
 44c769       loc_44C769
 44c773       loc_44C773
 44c796       loc_44C796
 44c79b       loc_44C79B
 44c7e7       loc_44C7E7
 44c7ee       _findenv
 44c800       loc_44C800
 44c81f       loc_44C81F
 44c829       loc_44C829
 44c836       loc_44C836
 44c839       loc_44C839
 44c846       _copy_environ
 44c855       loc_44C855
 44c85d       loc_44C85D
 44c867       loc_44C867
 44c888       loc_44C888
 44c88c       loc_44C88C
 44c8a3       loc_44C8A3
 44c8b0       _strcpy
 44c8c0       _strcat
 44c8cd       dest_misaligned
 44c8dc       find_end_of_dest_string_loop
 44c90f       start_byte_3
 44c914       start_byte_2
 44c919       start_byte_1
 44c91e       start_byte_0
 44c921       copy_start
 44c92d       src_misaligned_0
 44c941       main_loop_4
 44c946       main_loop_entrance_0
 44c97a       loc_44C97A
 44c982       loc_44C982
 44c98f       loc_44C98F
 44c998       loc_44C998
 44c9a0       ___InternalCxxFrameHandler
 44c9b6       loc_44C9B6
 44c9de       loc_44C9DE
 44ca18       loc_44CA18
 44ca34       loc_44CA34
 44ca37       loc_44CA37
 44ca3b       FindHandler(EHExceptionRecord_*,EHRegistrationNode_*,_CONTEXT_*,void_*,_s_FuncInfo_const_*,uchar,int,EHRegistrationNode_*)
 44ca5b       loc_44CA5B
 44ca60       loc_44CA60
 44cac2       loc_44CAC2
 44cae0       loc_44CAE0
 44cb17       loc_44CB17
 44cb3c       loc_44CB3C
 44cb4e       loc_44CB4E
 44cb6d       loc_44CB6D
 44cb7c       loc_44CB7C
 44cba0       loc_44CBA0
 44cba3       loc_44CBA3
 44cbae       loc_44CBAE
 44cbbe       loc_44CBBE
 44cbc3       loc_44CBC3
 44cbe9       loc_44CBE9
 44cbee       FindHandlerForForeignException(EHExceptionRecord_*,EHRegistrationNode_*,_CONTEXT_*,void_*,_s_FuncInfo_const_*,int,int,EHRegistrationNode_*)
 44cc21       loc_44CC21
 44cc3d       loc_44CC3D
 44cc66       loc_44CC66
 44cc8c       loc_44CC8C
 44cc94       loc_44CC94
 44cc98       TypeMatch(_s_HandlerType_const_*,_s_CatchableType_const_*,_s_ThrowInfo_const_*)
 44ccc9       loc_44CCC9
 44ccd3       loc_44CCD3
 44cce2       loc_44CCE2
 44cceb       loc_44CCEB
 44ccef       loc_44CCEF
 44ccf2       loc_44CCF2
 44ccf5       ___FrameUnwindToState
 44cd27       loc_44CD27
 44cd36       loc_44CD36
 44cd3b       loc_44CD3B
 44cd56       loc_44CD56
 44cd5c       loc_44CD5C
 44cd66       loc_44CD66
 44cd76       loc_44CD76
 44cd81       loc_44CD81
 44cd93       unknown_libname_26
 44cda4       loc_44CDA4
 44cda9       CatchIt(EHExceptionRecord_*,EHRegistrationNode_*,_CONTEXT_*,void_*,_s_FuncInfo_const_*,_s_HandlerType_const_*,_s_CatchableType_const_*,_s_TryBlockMapEntry_const_*,int,EHRegistrationNode_*,uchar)
 44cdcb       loc_44CDCB
 44cdd7       loc_44CDD7
 44cdda       loc_44CDDA
 44ce1f       loc_44CE1F
 44ce24       CallCatchBlock(EHExceptionRecord_*,EHRegistrationNode_*,_CONTEXT_*,_s_FuncInfo_const_*,void_*,int,ulong)
 44ceb7       loc_44CEB7
 44ceba       loc_44CEBA
 44cec9       loc_44CEC9
 44ced3       loc_44CED3
 44ceeb       loc_44CEEB
 44cef1       loc_44CEF1
 44cf3e       loc_44CF3E
 44cf3f       ExFilterRethrow(_EXCEPTION_POINTERS_*)
 44cf66       loc_44CF66
 44cf69       BuildCatchObject(EHExceptionRecord_*,EHRegistrationNode_*,_s_HandlerType_const_*,_s_CatchableType_const_*)
 44cff7       loc_44CFF7
 44d006       loc_44D006
 44d060       loc_44D060
 44d0a8       loc_44D0A8
 44d0ef       loc_44D0EF
 44d109       loc_44D109
 44d10e       loc_44D10E
 44d112       loc_44D112
 44d121       loc_44D121
 44d125       loc_44D125
 44d12d       unknown_libname_27
 44d174       loc_44D174
 44d183       loc_44D183
 44d18c       loc_44D18C
 44d194       AdjustPointer(void_*,PMD_const_&)
 44d1b5       loc_44D1B5
 44d1c0       _CallSettingFrame(x,x,x)
 44d1e7       __NLG_Return
 44d1ff       _NLG_Continue
 44d20c       terminate(void)
 44d254       loc_44D254
 44d258       loc_44D258
 44d25f       loc_44D25F
 44d268       loc_44D268
 44d26d       sub_44D26D
 44d2aa       loc_44D2AA
 44d2ae       loc_44D2AE
 44d2b5       loc_44D2B5
 44d2be       loc_44D2BE
 44d2c3       __fltin2
 44d2fb       loc_44D2FB
 44d314       loc_44D314
 44d319       loc_44D319
 44d323       loc_44D323
 44d329       loc_44D329
 44d342       __isctype
 44d360       loc_44D360
 44d385       loc_44D385
 44d38e       loc_44D38E
 44d3ae       loc_44D3AE
 44d3b2       loc_44D3B2
 44d3c0       _strcmp
 44d3d0       dodwords
 44d400       doneeq
 44d404       donene
 44d40c       dopartial
 44d428       doword
 44d444       ___crtLCMapStringA
 44d498       loc_44D498
 44d4ba       loc_44D4BA
 44d4cf       loc_44D4CF
 44d4f6       loc_44D4F6
 44d50c       loc_44D50C
 44d554       loc_44D554
 44d558       loc_44D558
 44d567       loc_44D567
 44d5d2       loc_44D5D2
 44d5d4       loc_44D5D4
 44d5e6       loc_44D5E6
 44d608       loc_44D608
 44d60c       loc_44D60C
 44d61a       loc_44D61A
 44d641       loc_44D641
 44d647       loc_44D647
 44d661       loc_44D661
 44d668       _strncnt
 44d678       loc_44D678
 44d685       loc_44D685
 44d690       loc_44D690
 44d6a0       __strcmpi
 44d6bc       chk_null
 44d6ee       done_0
 44d6f3       notclocale
 44d707       do_lock
 44d71c       end_lock
 44d724       chk_null2
 44d74f       done2
 44d75f       do_unlock
 44d769       end_unlock
 44d76b       doret
 44d770       __aulldiv
 44d792       loc_44D792
 44d7a0       loc_44D7A0
 44d7ce       loc_44D7CE
 44d7cf       loc_44D7CF
 44d7d3       loc_44D7D3
 44d7e0       __aullrem
 44d801       loc_44D801
 44d80f       loc_44D80F
 44d83a       loc_44D83A
 44d842       loc_44D842
 44d851       loc_44D851
 44d855       ___sbh_heap_init
 44d872       loc_44D872
 44d89d       ___sbh_find_block
 44d8ad       loc_44D8AD
 44d8c5       loc_44D8C5
 44d8c7       locret_44D8C7
 44d8c8       sub_44D8C8
 44d92c       loc_44D92C
 44d957       loc_44D957
 44d978       loc_44D978
 44d980       loc_44D980
 44d983       loc_44D983
 44d99e       loc_44D99E
 44d9ac       loc_44D9AC
 44d9d1       loc_44D9D1
 44d9e3       loc_44D9E3
 44da13       loc_44DA13
 44da32       loc_44DA32
 44da4a       loc_44DA4A
 44da4f       loc_44DA4F
 44da52       loc_44DA52
 44da60       loc_44DA60
 44daa7       loc_44DAA7
 44dab8       loc_44DAB8
 44dace       loc_44DACE
 44dae1       loc_44DAE1
 44db6f       loc_44DB6F
 44dbd4       loc_44DBD4
 44dbde       loc_44DBDE
 44dbec       loc_44DBEC
 44dbf1       ___sbh_alloc_block
 44dc31       loc_44DC31
 44dc41       loc_44DC41
 44dc4f       loc_44DC4F
 44dc68       loc_44DC68
 44dc6f       loc_44DC6F
 44dc89       loc_44DC89
 44dc8b       loc_44DC8B
 44dc8d       loc_44DC8D
 44dca0       loc_44DCA0
 44dca3       loc_44DCA3
 44dca7       loc_44DCA7
 44dcb9       loc_44DCB9
 44dcbb       loc_44DCBB
 44dccb       loc_44DCCB
 44dcdf       loc_44DCDF
 44dce6       loc_44DCE6
 44dd0d       loc_44DD0D
 44dd2a       loc_44DD2A
 44dd41       loc_44DD41
 44dd44       loc_44DD44
 44dd6d       loc_44DD6D
 44dd76       loc_44DD76
 44dd93       loc_44DD93
 44ddd3       loc_44DDD3
 44de01       loc_44DE01
 44de04       loc_44DE04
 44de64       loc_44DE64
 44de76       loc_44DE76
 44de8f       loc_44DE8F
 44dea5       loc_44DEA5
 44dea8       loc_44DEA8
 44deb4       loc_44DEB4
 44deb7       loc_44DEB7
 44deed       loc_44DEED
 44def5       loc_44DEF5
 44defa       ___sbh_alloc_new_region
 44df3d       loc_44DF3D
 44df8d       loc_44DF8D
 44df91       loc_44DF91
 44dfa8       loc_44DFA8
 44dfab       ___sbh_alloc_new_group
 44dfbd       loc_44DFBD
 44dfc6       loc_44DFC6
 44dfdb       loc_44DFDB
 44e00e       loc_44E00E
 44e01b       loc_44E01B
 44e054       loc_44E054
 44e091       loc_44E091
 44e0a1       loc_44E0A1
 44e0a6       ___sbh_resize_block
 44e11d       loc_44E11D
 44e149       loc_44E149
 44e16d       loc_44E16D
 44e1a7       loc_44E1A7
 44e1f3       loc_44E1F3
 44e200       loc_44E200
 44e216       loc_44E216
 44e225       loc_44E225
 44e229       loc_44E229
 44e23b       loc_44E23B
 44e23e       loc_44E23E
 44e24d       loc_44E24D
 44e254       loc_44E254
 44e27f       loc_44E27F
 44e298       loc_44E298
 44e2c3       loc_44E2C3
 44e2e4       loc_44E2E4
 44e2e7       loc_44E2E7
 44e30e       loc_44E30E
 44e355       loc_44E355
 44e362       loc_44E362
 44e378       loc_44E378
 44e387       loc_44E387
 44e38b       loc_44E38B
 44e394       loc_44E394
 44e397       loc_44E397
 44e39c       sub_44E39C
 44e3b0       loc_44E3B0
 44e3cd       loc_44E3CD
 44e41c       loc_44E41C
 44e42c       loc_44E42C
 44e441       loc_44E441
 44e463       loc_44E463
 44e48c       loc_44E48C
 44e4b0       loc_44E4B0
 44e4b4       loc_44E4B4
 44e4c2       loc_44E4C2
 44e4d9       loc_44E4D9
 44e4db       loc_44E4DB
 44e4e0       sub_44E4E0
 44e505       loc_44E505
 44e52d       loc_44E52D
 44e536       sub_44E536
 44e543       loc_44E543
 44e55c       loc_44E55C
 44e592       loc_44E592
 44e595       loc_44E595
 44e59d       loc_44E59D
 44e5aa       loc_44E5AA
 44e5c1       loc_44E5C1
 44e5d2       loc_44E5D2
 44e5e1       loc_44E5E1
 44e5f3       loc_44E5F3
 44e5f8       sub_44E5F8
 44e604       loc_44E604
 44e60e       loc_44E60E
 44e616       loc_44E616
 44e64b       loc_44E64B
 44e64f       sub_44E64F
 44e693       locret_44E693
 44e694       sub_44E694
 44e6a2       loc_44E6A2
 44e6cd       loc_44E6CD
 44e6f0       loc_44E6F0
 44e707       loc_44E707
 44e70a       loc_44E70A
 44e71d       loc_44E71D
 44e73c       loc_44E73C
 44e74d       loc_44E74D
 44e750       loc_44E750
 44e75f       loc_44E75F
 44e76f       loc_44E76F
 44e776       loc_44E776
 44e782       loc_44E782
 44e78e       loc_44E78E
 44e7ac       loc_44E7AC
 44e7bd       loc_44E7BD
 44e7fa       loc_44E7FA
 44e824       loc_44E824
 44e830       loc_44E830
 44e83e       loc_44E83E
 44e840       loc_44E840
 44e863       loc_44E863
 44e895       loc_44E895
 44e897       loc_44E897
 44e89c       sub_44E89C
 44e8d0       loc_44E8D0
 44e8d9       loc_44E8D9
 44e8e1       loc_44E8E1
 44e8ea       loc_44E8EA
 44e8f1       loc_44E8F1
 44e8fd       loc_44E8FD
 44e906       loc_44E906
 44e914       loc_44E914
 44e920       loc_44E920
 44e927       loc_44E927
 44e92c       loc_44E92C
 44e934       loc_44E934
 44e937       loc_44E937
 44e94f       loc_44E94F
 44e958       loc_44E958
 44e969       loc_44E969
 44e972       loc_44E972
 44e979       loc_44E979
 44e989       loc_44E989
 44e990       loc_44E990
 44e9a1       loc_44E9A1
 44e9aa       loc_44E9AA
 44e9af       loc_44E9AF
 44e9b9       loc_44E9B9
 44e9bb       loc_44E9BB
 44e9c0       sub_44E9C0
 44e9fa       loc_44E9FA
 44ea0f       loc_44EA0F
 44ea1b       loc_44EA1B
 44ea1d       loc_44EA1D
 44ea40       loc_44EA40
 44ea47       loc_44EA47
 44ea4c       loc_44EA4C
 44ea55       loc_44EA55
 44ea5a       loc_44EA5A
 44ea61       loc_44EA61
 44ea69       __callnewh
 44ea81       loc_44EA81
 44ea84       sub_44EA84
 44eab8       loc_44EAB8
 44eac5       loc_44EAC5
 44eae7       loc_44EAE7
 44eae9       loc_44EAE9
 44eb07       loc_44EB07
 44eb24       loc_44EB24
 44eb4c       loc_44EB4C
 44eb55       loc_44EB55
 44eb5e       loc_44EB5E
 44eb67       loc_44EB67
 44eb70       loc_44EB70
 44eb90       loc_44EB90
 44eb98       loc_44EB98
 44eba7       loc_44EBA7
 44ebb0       loc_44EBB0
 44ebd3       loc_44EBD3
 44ebe8       loc_44EBE8
 44ec08       loc_44EC08
 44ec11       loc_44EC11
 44ec1a       loc_44EC1A
 44ec33       loc_44EC33
 44ec37       loc_44EC37
 44ec64       loc_44EC64
 44ec7c       loc_44EC7C
 44ecc5       loc_44ECC5
 44ecd3       loc_44ECD3
 44ecfb       loc_44ECFB
 44ed04       loc_44ED04
 44ed1d       loc_44ED1D
 44ed27       loc_44ED27
 44ed4a       loc_44ED4A
 44ed55       loc_44ED55
 44ed86       loc_44ED86
 44ed9c       loc_44ED9C
 44edaf       loc_44EDAF
 44edbd       loc_44EDBD
 44edee       loc_44EDEE
 44edfd       loc_44EDFD
 44ee0b       loc_44EE0B
 44ee1b       loc_44EE1B
 44ee23       loc_44EE23
 44ee49       loc_44EE49
 44ee50       loc_44EE50
 44ee96       loc_44EE96
 44eea7       loc_44EEA7
 44eeb4       loc_44EEB4
 44eeb5       loc_44EEB5
 44eec0       loc_44EEC0
 44eeff       loc_44EEFF
 44ef08       loc_44EF08
 44ef15       loc_44EF15
 44ef17       loc_44EF17
 44ef26       loc_44EF26
 44ef2d       loc_44EF2D
 44ef34       loc_44EF34
 44ef3b       loc_44EF3B
 44ef5d       loc_44EF5D
 44ef6f       loc_44EF6F
 44ef88       loc_44EF88
 44ef8d       loc_44EF8D
 44ef99       loc_44EF99
 44ef9d       loc_44EF9D
 44efa4       loc_44EFA4
 44efb6       loc_44EFB6
 44efcf       loc_44EFCF
 44efd2       loc_44EFD2
 44efdd       loc_44EFDD
 44efef       loc_44EFEF
 44eff7       loc_44EFF7
 44f007       loc_44F007
 44f01a       loc_44F01A
 44f020       loc_44F020
 44f02a       loc_44F02A
 44f039       loc_44F039
 44f04a       loc_44F04A
 44f056       loc_44F056
 44f05c       loc_44F05C
 44f06e       loc_44F06E
 44f0a3       loc_44F0A3
 44f0ad       loc_44F0AD
 44f0cb       loc_44F0CB
 44f0d5       loc_44F0D5
 44f0d8       loc_44F0D8
 44f0f5       loc_44F0F5
 44f100       loc_44F100
 44f109       loc_44F109
 44f110       loc_44F110
 44f130       loc_44F130
 44f162       loc_44F162
 44f177       loc_44F177
 44f1a9       loc_44F1A9
 44f1be       loc_44F1BE
 44f1d6       loc_44F1D6
 44f1e9       loc_44F1E9
 44f1fa       loc_44F1FA
 44f202       off_44F202
 44f222       _write_char
 44f23b       loc_44F23B
 44f246       loc_44F246
 44f253       loc_44F253
 44f257       _write_multi_char
 44f268       loc_44F268
 44f285       loc_44F285
 44f288       _write_string
 44f29e       loc_44F29E
 44f2bc       loc_44F2BC
 44f2c0       _get_int_arg
 44f2cd       _get_int64_arg
 44f2dd       _get_short_arg
 44f2eb       sub_44F2EB
 44f329       loc_44F329
 44f334       loc_44F334
 44f336       loc_44F336
 44f375       loc_44F375
 44f37f       loc_44F37F
 44f384       loc_44F384
 44f38d       loc_44F38D
 44f3c1       loc_44F3C1
 44f3c7       loc_44F3C7
 44f3d3       loc_44F3D3
 44f3d8       loc_44F3D8
 44f3ea       loc_44F3EA
 44f408       loc_44F408
 44f40d       loc_44F40D
 44f416       loc_44F416
 44f419       loc_44F419
 44f428       __fcloseall
 44f440       loc_44F440
 44f464       loc_44F464
 44f492       loc_44F492
 44f49c       loc_44F49C
 44f4a9       __fflush_lk
 44f4be       loc_44F4BE
 44f4d3       loc_44F4D3
 44f4d7       __flush
 44f51d       loc_44F51D
 44f524       loc_44F524
 44f533       sub_44F533
 44f53c       _flsall
 44f555       loc_44F555
 44f596       loc_44F596
 44f5b0       loc_44F5B0
 44f5c0       loc_44F5C0
 44f5c9       loc_44F5C9
 44f5dc       loc_44F5DC
 44f5e0       __filbuf
 44f606       loc_44F606
 44f61a       loc_44F61A
 44f61f       loc_44F61F
 44f664       loc_44F664
 44f669       loc_44F669
 44f67b       loc_44F67B
 44f698       loc_44F698
 44f6a6       loc_44F6A6
 44f6b7       loc_44F6B7
 44f6c0       __strnicmp
 44f6ec       lupe
 44f704       skip1
 44f70e       skip2
 44f715       eject
 44f71f       differ
 44f731       notclocale_0
 44f745       do_lock_0
 44f75e       end_lock_0
 44f764       lupe2
 44f78f       eject2
 44f795       differ2
 44f79e       toend2
 44f7ac       do_unlock_0
 44f7ba       end_unlock_0
 44f7c1       _rt_probe_read4(x)
 44f7f8       loc_44F7F8
 44f80c       loc_44F80C
 44f811       loc_44F811
 44f826       __input
 44f850       loc_44F850
 44f855       loc_44F855
 44f86d       loc_44F86D
 44f87c       loc_44F87C
 44f8a4       loc_44F8A4
 44f8b6       loc_44F8B6
 44f8ed       loc_44F8ED
 44f90a       loc_44F90A
 44f919       loc_44F919
 44f92f       loc_44F92F
 44f94f       loc_44F94F
 44f96d       loc_44F96D
 44f972       loc_44F972
 44f981       loc_44F981
 44f986       loc_44F986
 44f989       loc_44F989
 44f98e       loc_44F98E
 44f994       loc_44F994
 44f9b9       loc_44F9B9
 44f9d3       loc_44F9D3
 44f9d7       loc_44F9D7
 44fa01       loc_44FA01
 44fa0c       loc_44FA0C
 44fa10       loc_44FA10
 44fa20       loc_44FA20
 44fa6c       loc_44FA6C
 44fa6f       loc_44FA6F
 44fa84       loc_44FA84
 44faa0       loc_44FAA0
 44faa5       loc_44FAA5
 44fabc       loc_44FABC
 44fabf       loc_44FABF
 44face       loc_44FACE
 44fad5       loc_44FAD5
 44faea       loc_44FAEA
 44faf5       loc_44FAF5
 44fb1a       loc_44FB1A
 44fb43       loc_44FB43
 44fb58       loc_44FB58
 44fb63       loc_44FB63
 44fb88       loc_44FB88
 44fba0       loc_44FBA0
 44fbc7       loc_44FBC7
 44fbcc       loc_44FBCC
 44fbdb       loc_44FBDB
 44fbea       loc_44FBEA
 44fbff       loc_44FBFF
 44fc0a       loc_44FC0A
 44fc20       loc_44FC20
 44fc64       loc_44FC64
 44fc73       loc_44FC73
 44fc7d       loc_44FC7D
 44fc87       loc_44FC87
 44fcb1       loc_44FCB1
 44fcd5       loc_44FCD5
 44fcdf       loc_44FCDF
 44fcf9       loc_44FCF9
 44fcfe       loc_44FCFE
 44fd0f       loc_44FD0F
 44fd20       loc_44FD20
 44fd52       loc_44FD52
 44fd58       loc_44FD58
 44fd6e       loc_44FD6E
 44fd83       loc_44FD83
 44fd8d       loc_44FD8D
 44fd92       loc_44FD92
 44fd96       loc_44FD96
 44fdba       loc_44FDBA
 44fdbd       loc_44FDBD
 44fddc       loc_44FDDC
 44fde0       loc_44FDE0
 44fded       loc_44FDED
 44fe05       loc_44FE05
 44fe09       loc_44FE09
 44fe22       loc_44FE22
 44fe34       loc_44FE34
 44fe4b       loc_44FE4B
 44fe5f       loc_44FE5F
 44febb       loc_44FEBB
 44fedc       loc_44FEDC
 44fedf       loc_44FEDF
 44fee7       loc_44FEE7
 44feef       loc_44FEEF
 44fefb       loc_44FEFB
 44ff2d       loc_44FF2D
 44ff35       loc_44FF35
 44ff39       loc_44FF39
 44ff47       loc_44FF47
 44ff4c       loc_44FF4C
 44ff5d       loc_44FF5D
 44ff6b       loc_44FF6B
 44ff6e       loc_44FF6E
 44ff82       loc_44FF82
 44ff9f       loc_44FF9F
 44ffac       loc_44FFAC
 44ffd6       loc_44FFD6
 44ffeb       loc_44FFEB
 44fff6       loc_44FFF6
 450007       loc_450007
 450014       loc_450014
 450023       loc_450023
 450029       loc_450029
 450041       loc_450041
 450057       loc_450057
 450065       loc_450065
 450087       loc_450087
 450091       loc_450091
 4500b0       loc_4500B0
 4500bb       loc_4500BB
 4500ce       loc_4500CE
 4500d5       loc_4500D5
 4500ed       loc_4500ED
 4500fa       loc_4500FA
 45010d       loc_45010D
 45011f       loc_45011F
 450135       loc_450135
 450143       loc_450143
 45014b       loc_45014B
 450154       loc_450154
 450167       loc_450167
 45017d       loc_45017D
 45018a       loc_45018A
 45018d       loc_45018D
 450198       loc_450198
 4501da       loc_4501DA
 4501f0       loc_4501F0
 4501fc       loc_4501FC
 450207       loc_450207
 45020c       loc_45020C
 450215       loc_450215
 45022c       loc_45022C
 450232       loc_450232
 450243       loc_450243
 450246       loc_450246
 45024b       __hextodec
 450265       loc_450265
 450274       loc_450274
 45027e       loc_45027E
 450282       _fgetc
 450294       loc_450294
 45029c       __un_inc
 4502b2       locret_4502B2
 4502b3       __whiteout
 4502b9       loc_4502B9
 4502e0       _strpbrk
 4502f4       listnext
 450301       listdone
 450304       dstnext
 450314       dstdone
 450320       __strrev
 45033a       lupe_0
 45034a       done_1
 450350       _strspn
 450364       listnext_0
 450371       listdone_0
 450378       dstnext_0
 450386       dstdone_0
 450390       _strcspn
 4503a4       listnext_1
 4503b1       listdone_1
 4503b8       dstnext_1
 4503c6       dstdone_1
 4503ce       __flsbuf
 450406       loc_450406
 45042e       loc_45042E
 450439       loc_450439
 450440       loc_450440
 450470       loc_450470
 45048e       loc_45048E
 450493       loc_450493
 4504a6       loc_4504A6
 4504b0       loc_4504B0
 4504c4       loc_4504C4
 4504d0       loc_4504D0
 4504da       loc_4504DA
 4504df       loc_4504DF
 4504e2       loc_4504E2
 4504e6       ___crtGetStringTypeA
 450533       loc_450533
 450550       loc_450550
 450555       loc_450555
 450566       loc_450566
 45057e       loc_45057E
 450594       loc_450594
 4505df       loc_4505DF
 4505e3       loc_4505E3
 4505ea       loc_4505EA
 45061b       loc_45061B
 45061d       loc_45061D
 45062f       __CxxUnhandledExceptionFilter(_EXCEPTION_POINTERS_*)
 450652       loc_450652
 45066f       loc_45066F
 450671       loc_450671
 450693       ___loctotime_t
 4506d2       loc_4506D2
 450745       loc_450745
 45074b       loc_45074B
 45074f       loc_45074F
 450752       loc_450752
 450755       ___tzset
 45077a       loc_45077A
 450782       locret_450782
 450783       __tzset_lk
 450811       loc_450811
 450835       loc_450835
 450841       loc_450841
 45087d       loc_45087D
 450885       loc_450885
 4508c1       loc_4508C1
 4508e4       loc_4508E4
 450943       loc_450943
 45095a       loc_45095A
 450968       loc_450968
 45096b       loc_45096B
 450989       loc_450989
 450996       loc_450996
 4509b1       loc_4509B1
 4509be       loc_4509BE
 4509cc       loc_4509CC
 4509f4       loc_4509F4
 4509fe       loc_4509FE
 450a05       loc_450A05
 450a0a       __isindst
 450a2b       __isindst_0
 450a38       loc_450A38
 450a3f       loc_450A3F
 450a5d       loc_450A5D
 450aaf       loc_450AAF
 450ac3       loc_450AC3
 450b12       loc_450B12
 450b1d       loc_450B1D
 450b35       loc_450B35
 450b5f       loc_450B5F
 450b89       loc_450B89
 450b8b       loc_450B8B
 450b8f       loc_450B8F
 450ba3       loc_450BA3
 450bc6       loc_450BC6
 450bca       loc_450BCA
 450bd7       _cvtdate
 450c02       loc_450C02
 450c0b       loc_450C0B
 450c45       loc_450C45
 450c4f       loc_450C4F
 450c63       loc_450C63
 450c69       loc_450C69
 450c72       loc_450C72
 450c83       loc_450C83
 450c8a       loc_450C8A
 450c8d       loc_450C8D
 450cbe       loc_450CBE
 450cf6       loc_450CF6
 450d07       loc_450D07
 450d0d       loc_450D0D
 450d13       loc_450D13
 450d17       __ismbblead
 450d28       _x_ismbbtype
 450d4e       loc_450D4E
 450d50       loc_450D50
 450d55       loc_450D55
 450d59       ___crtMessageBoxA
 450da8       loc_450DA8
 450dc7       loc_450DC7
 450dda       loc_450DDA
 450dde       loc_450DDE
 450de2       __control87
 450e17       __controlfp
 450e2d       __abstract_cw
 450e3e       loc_450E3E
 450e45       loc_450E45
 450e4c       loc_450E4C
 450e53       loc_450E53
 450e5a       loc_450E5A
 450e64       loc_450E64
 450e95       loc_450E95
 450e99       loc_450E99
 450e9c       loc_450E9C
 450eac       loc_450EAC
 450eb1       loc_450EB1
 450ebe       locret_450EBE
 450ebf       __hw_cw
 450ecf       loc_450ECF
 450ed6       loc_450ED6
 450edd       loc_450EDD
 450ee4       loc_450EE4
 450eeb       loc_450EEB
 450ef5       loc_450EF5
 450f1a       loc_450F1A
 450f1f       loc_450F1F
 450f22       loc_450F22
 450f38       loc_450F38
 450f3a       loc_450F3A
 450f47       locret_450F47
 450f48       _tolower
 450f66       loc_450F66
 450f90       loc_450F90
 450fac       loc_450FAC
 450faf       loc_450FAF
 450fb5       loc_450FB5
 450fb7       _tolower_0
 450fe4       loc_450FE4
 451006       loc_451006
 451010       loc_451010
 451014       loc_451014
 451018       loc_451018
 45103c       loc_45103C
 451045       loc_451045
 451070       loc_451070
 45107d       loc_45107D
 451082       __ZeroTail
 4510b4       loc_4510B4
 4510c2       loc_4510C2
 4510c7       loc_4510C7
 4510cb       __IncMan
 451104       loc_451104
 45111d       loc_45111D
 451121       __RoundMan
 451182       loc_451182
 451185       loc_451185
 4511a5       loc_4511A5
 4511ad       __CopyMan
 4511bb       loc_4511BB
 4511c8       __FillZeroMan
 4511d4       __IsZeroMan
 4511da       loc_4511DA
 4511ec       loc_4511EC
 4511ef       __ShrMan
 451225       loc_451225
 451257       loc_451257
 45126a       loc_45126A
 451271       loc_451271
 45127c       __ld12cvt
 4512e1       loc_4512E1
 4512e3       loc_4512E3
 4512e9       loc_4512E9
 45130a       loc_45130A
 451322       loc_451322
 45135e       loc_45135E
 451365       loc_451365
 451391       loc_451391
 4513a8       loc_4513A8
 4513aa       loc_4513AA
 4513d9       loc_4513D9
 4513e3       loc_4513E3
 4513e8       sub_4513E8
 4513fe       sub_4513FE
 451414       sub_451414
 451441       sub_451441
 45146e       __fptostr
 451491       loc_451491
 45149d       loc_45149D
 4514a0       loc_4514A0
 4514ab       loc_4514AB
 4514b7       loc_4514B7
 4514c2       loc_4514C2
 4514c4       loc_4514C4
 4514ce       loc_4514CE
 4514e0       loc_4514E0
 4514e5       __fltout2
 451541       ___dtold
 451588       loc_451588
 45158f       loc_45158F
 4515a7       loc_4515A7
 4515b0       loc_4515B0
 4515c8       loc_4515C8
 4515e9       loc_4515E9
 4515f2       loc_4515F2
 4515f7       __fptrap
 451600       __87except
 451631       loc_451631
 451639       loc_451639
 45163d       loc_45163D
 451641       loc_451641
 451645       loc_451645
 451647       loc_451647
 451672       loc_451672
 451684       loc_451684
 45169b       loc_45169B
 4516c3       loc_4516C3
 4516cb       loc_4516CB
 4516d0       sub_4516D0
 4516d3       ___crtCompareStringA
 451723       loc_451723
 451746       loc_451746
 45175d       loc_45175D
 451772       loc_451772
 451797       loc_451797
 4517ac       loc_4517AC
 4517b9       loc_4517B9
 4517be       loc_4517BE
 4517c0       loc_4517C0
 4517c6       loc_4517C6
 4517cb       loc_4517CB
 4517d2       loc_4517D2
 4517fd       loc_4517FD
 451811       loc_451811
 451817       loc_451817
 45181b       loc_45181B
 45182e       loc_45182E
 451846       loc_451846
 451851       loc_451851
 45188a       loc_45188A
 45188e       loc_45188E
 4518a0       loc_4518A0
 4518f9       loc_4518F9
 4518fd       loc_4518FD
 45190b       loc_45190B
 45193c       loc_45193C
 45193e       loc_45193E
 451950       _ValidateRead(void_const_*,uint)
 451968       loc_451968
 45196c       _ValidateWrite(void_*,uint)
 451984       loc_451984
 451988       _ValidateExecute(int_(*)(void))
 45199c       loc_45199C
 4519a0       _abort
 4519b7       ___strgtold12
 4519f2       loc_4519F2
 451a08       loc_451A08
 451a0b       loc_451A0B
 451a0e       loc_451A0E
 451a21       loc_451A21
 451a2b       loc_451A2B
 451a32       loc_451A32
 451a3a       loc_451A3A
 451a41       loc_451A41
 451a5b       loc_451A5B
 451a67       loc_451A67
 451a70       loc_451A70
 451a7d       loc_451A7D
 451a98       loc_451A98
 451ab8       loc_451AB8
 451abf       loc_451ABF
 451ac7       loc_451AC7
 451ad5       loc_451AD5
 451aea       loc_451AEA
 451af1       loc_451AF1
 451af4       loc_451AF4
 451b0d       loc_451B0D
 451b1b       loc_451B1B
 451b35       loc_451B35
 451b38       loc_451B38
 451b3d       loc_451B3D
 451b45       loc_451B45
 451b4c       loc_451B4C
 451b58       loc_451B58
 451b65       loc_451B65
 451b7e       loc_451B7E
 451b8c       loc_451B8C
 451ba7       loc_451BA7
 451bac       loc_451BAC
 451bc3       loc_451BC3
 451bdf       loc_451BDF
 451bed       loc_451BED
 451bf9       loc_451BF9
 451c09       loc_451C09
 451c1e       loc_451C1E
 451c22       loc_451C22
 451c25       loc_451C25
 451c2f       loc_451C2F
 451c43       loc_451C43
 451c4d       loc_451C4D
 451c4f       loc_451C4F
 451c50       loc_451C50
 451c56       loc_451C56
 451c5d       loc_451C5D
 451c79       loc_451C79
 451c85       loc_451C85
 451c87       loc_451C87
 451c8d       loc_451C8D
 451c91       loc_451C91
 451c9f       loc_451C9F
 451ca7       loc_451CA7
 451cb0       loc_451CB0
 451cc8       loc_451CC8
 451cd7       loc_451CD7
 451cf2       loc_451CF2
 451cf7       loc_451CF7
 451cfa       loc_451CFA
 451d12       loc_451D12
 451d21       loc_451D21
 451d2a       loc_451D2A
 451d2d       loc_451D2D
 451d2f       loc_451D2F
 451d4f       loc_451D4F
 451d5b       loc_451D5B
 451d5e       loc_451D5E
 451d68       loc_451D68
 451d76       loc_451D76
 451d95       loc_451D95
 451da0       loc_451DA0
 451da8       loc_451DA8
 451db6       loc_451DB6
 451dc2       loc_451DC2
 451ddf       loc_451DDF
 451def       loc_451DEF
 451e0d       loc_451E0D
 451e17       loc_451E17
 451e28       loc_451E28
 451e3d       loc_451E3D
 451e58       off_451E58
 451e88       __isatty
 451e97       loc_451E97
 451eb1       _wctomb
 451ee1       loc_451EE1
 451eff       loc_451EFF
 451f02       loc_451F02
 451f0a       __wctomb_lk
 451f16       loc_451F16
 451f31       loc_451F31
 451f63       loc_451F63
 451f71       loc_451F71
 451f73       _fclose
 451f88       loc_451F88
 451f9f       loc_451F9F
 451fa4       __fclose_lk
 451fd5       loc_451FD5
 451fe7       loc_451FE7
 451ff0       __commit
 45204b       loc_45204B
 45204d       loc_45204D
 452058       loc_452058
 452066       loc_452066
 452071       loc_452071
 45207f       loc_45207F
 452083       __write
 4520d0       loc_4520D0
 4520e8       __write_lk
 452101       loc_452101
 452108       loc_452108
 452138       loc_452138
 452158       loc_452158
 45215e       loc_45215E
 45217d       loc_45217D
 452192       loc_452192
 4521ce       loc_4521CE
 4521d0       loc_4521D0
 4521fc       loc_4521FC
 452207       loc_452207
 452229       loc_452229
 452234       loc_452234
 45223d       loc_45223D
 452242       loc_452242
 452257       loc_452257
 45226b       loc_45226B
 45226e       loc_45226E
 452273       __read
 4522c0       loc_4522C0
 4522d8       __read_lk
 452343       loc_452343
 45237d       loc_45237D
 45238d       loc_45238D
 452395       loc_452395
 4523ba       loc_4523BA
 4523bc       loc_4523BC
 4523d4       loc_4523D4
 4523f0       loc_4523F0
 452405       loc_452405
 45240e       loc_45240E
 452436       loc_452436
 452458       loc_452458
 452463       loc_452463
 452468       loc_452468
 45247d       loc_45247D
 452480       loc_452480
 452481       loc_452481
 45248f       loc_45248F
 45249f       loc_45249F
 4524a5       loc_4524A5
 4524aa       loc_4524AA
 4524ac       loc_4524AC
 4524b1       __getbuf
 4524da       loc_4524DA
 4524eb       loc_4524EB
 4524f5       _mbtowc
 452525       loc_452525
 452547       loc_452547
 45254a       loc_45254A
 452552       __mbtowc_lk
 452575       loc_452575
 452577       loc_452577
 45257b       loc_45257B
 452591       loc_452591
 452596       loc_452596
 4525da       loc_4525DA
 4525e4       loc_4525E4
 4525f4       loc_4525F4
 452620       __allshl
 452630       MORE32_0
 45263a       RETZERO_0
 45263f       _ungetc
 45265d       loc_45265D
 45266a       loc_45266A
 45267a       loc_45267A
 45268b       loc_45268B
 45268e       loc_45268E
 452691       loc_452691
 452697       loc_452697
 4526ad       __lseek
 4526fa       loc_4526FA
 452712       __lseek_lk
 452731       loc_452731
 452751       loc_452751
 452753       loc_452753
 45275e       loc_45275E
 452763       loc_452763
 452782       loc_452782
 452785       _raise
 4527bc       loc_4527BC
 4527c9       loc_4527C9
 4527d6       loc_4527D6
 4527e3       loc_4527E3
 452800       loc_452800
 45280b       loc_45280B
 45281d       loc_45281D
 452838       loc_452838
 45284b       loc_45284B
 452852       loc_452852
 452864       loc_452864
 45287f       loc_45287F
 45289b       loc_45289B
 4528bb       loc_4528BB
 4528bd       loc_4528BD
 4528cb       loc_4528CB
 4528dc       loc_4528DC
 4528ee       loc_4528EE
 452900       loc_452900
 452902       loc_452902
 452907       _siglookup
 452924       loc_452924
 452930       loc_452930
 45293f       loc_45293F
 452941       loc_452941
 452944       ___addl
 45295a       loc_45295A
 45295d       loc_45295D
 452965       ___add_12
 452997       loc_452997
 4529af       loc_4529AF
 4529c3       ___shl_12
 4529f1       ___shr_12
 452a1e       ___mtold12
 452a45       loc_452A45
 452a92       loc_452A92
 452abf       loc_452ABF
 452ac4       loc_452AC4
 452ad9       loc_452AD9
 452ae5       _$I10_OUTPUT
 452b47       loc_452B47
 452b4b       loc_452B4B
 452b5c       loc_452B5C
 452b71       loc_452B71
 452b8a       loc_452B8A
 452b99       loc_452B99
 452bb3       loc_452BB3
 452bc2       loc_452BC2
 452bd1       loc_452BD1
 452bda       loc_452BDA
 452bdf       loc_452BDF
 452bf0       loc_452BF0
 452c51       loc_452C51
 452c6b       loc_452C6B
 452c6e       loc_452C6E
 452c76       loc_452C76
 452c8c       loc_452C8C
 452ca9       loc_452CA9
 452cb6       loc_452CB6
 452cc6       loc_452CC6
 452d13       loc_452D13
 452d20       loc_452D20
 452d2f       loc_452D2F
 452d33       loc_452D33
 452d37       loc_452D37
 452d39       loc_452D39
 452d48       loc_452D48
 452d4b       loc_452D4B
 452d50       loc_452D50
 452d5c       loc_452D5C
 452d60       loc_452D60
 452d6f       loc_452D6F
 452d78       ___ld12mul
 452de1       loc_452DE1
 452e03       loc_452E03
 452e05       loc_452E05
 452e1b       loc_452E1B
 452e28       loc_452E28
 452e38       loc_452E38
 452e54       loc_452E54
 452e7f       loc_452E7F
 452e8c       loc_452E8C
 452eaa       loc_452EAA
 452ec8       loc_452EC8
 452ecf       loc_452ECF
 452ee8       loc_452EE8
 452ef1       loc_452EF1
 452f08       loc_452F08
 452f1f       loc_452F1F
 452f46       loc_452F46
 452f4c       loc_452F4C
 452f51       loc_452F51
 452f54       loc_452F54
 452f72       loc_452F72
 452f78       loc_452F78
 452f93       loc_452F93
 452f98       ___multtenpow12
 452fc0       loc_452FC0
 452fcb       loc_452FCB
 452fd2       loc_452FD2
 452ffd       loc_452FFD
 45300a       loc_45300A
 453011       loc_453011
 453014       __close
 453059       loc_453059
 453071       __close_lk
 45308d       loc_45308D
 4530a3       loc_4530A3
 4530bf       loc_4530BF
 4530c1       loc_4530C1
 4530ef       loc_4530EF
 4530f1       loc_4530F1
 4530f4       __freebuf
 45311d       loc_45311D
 45311f       __free_osfhnd
 45316d       loc_45316D
 453172       loc_453172
 453175       loc_453175
 45317b       loc_45317B
 453185       loc_453185
 45319b       loc_45319B
 45319e       __get_osfhandle
 4531c9       loc_4531C9
 4531e0       __lock_fhandle
 453226       loc_453226
 45322e       loc_45322E
 45323f       __unlock_fhandle
 453270       RtlUnwind
 453276       GetFileTitleA
 45327c       GetSaveFileNameA
 453282       GetOpenFileNameA
 453288       ChooseColorA
 45328e       WinMain(x,x,x,x)
 4532a6       AfxInitialize(int,ulong)
 4532be       loc_4532BE
 4532c4       sub_4532C4
 4532dc       loc_4532DC
 453300       __memicmp
 45332c       lupe_1
 453340       skip1_0
 45334a       skip2_0
 45334e       dolupe
 453356       differ_0
 453368       notclocale_1
 45337c       do_lock_1
 453395       end_lock_1
 45339c       lupe2_0
 4533c0       dolupe2
 4533c5       differ2_0
 4533ce       toend2_0
 4533dc       do_unlock_1
 4533ea       end_unlock_1
 4533f1       ___termcon
 45340a       loc_45340A
 45341c       loc_45341C
 45341e       sub_45341E
 45344c       loc_45344C
 453452       sub_453452
 453467       sub_453467
 45347f       loc_45347F
 453494       loc_453494
 4534d5       loc_4534D5
 4534e3       sub_4534E3
 4534fb       loc_4534FB
 453510       loc_453510
 45354d       loc_45354D
 45355b       sub_45355B
 453569       sub_453569
 453589       loc_453589
 45358e       loc_45358E
 453590       loc_453590
 453594       sub_453594
 4535ad       loc_4535AD
 4535db       loc_4535DB
 4535e5       loc_4535E5
 4535f8       loc_4535F8
 453608       loc_453608
 453617       loc_453617
 45361c       loc_45361C
 453626       loc_453626
 453645       loc_453645
 45366d       loc_45366D
 453691       loc_453691
 45369a       loc_45369A
 4536b9       loc_4536B9
 4536dd       loc_4536DD
 4536e4       loc_4536E4
 4536ed       loc_4536ED
 45373d       loc_45373D
 453784       loc_453784
 4537a1       loc_4537A1
 4537b8       loc_4537B8
 4537c1       loc_4537C1
 4537cf       loc_4537CF
 4537d4       loc_4537D4
 4537db       loc_4537DB
 4537e5       loc_4537E5
 4537ed       loc_4537ED
 4537f7       loc_4537F7
 453808       loc_453808
 453816       loc_453816
 45384e       loc_45384E
 453859       loc_453859
 453870       loc_453870
 453874       loc_453874
 453877       loc_453877
 453880       loc_453880
 453884       loc_453884
 453890       loc_453890
 453894       loc_453894
 453899       loc_453899
 4538a3       loc_4538A3
 4538b1       loc_4538B1
 4538e1       sub_4538E1
 4538f4       CSimpleException::InitString(void)
 45391d       CSimpleException::GetErrorMessage(char_*,uint,uint_*)
 45392b       loc_45392B
 453938       loc_453938
 453952       loc_453952
 453959       loc_453959
 453960       sub_453960
 453979       loc_453979
 453992       sub_453992
 453a52       loc_453A52
 453a5a       loc_453A5A
 453a6c       loc_453A6C
 453a8a       loc_453A8A
 453aa9       loc_453AA9
 453abc       loc_453ABC
 453ac5       loc_453AC5
 453ad8       sub_453AD8
 453aee       loc_453AEE
 453af4       sub_453AF4
 453b56       loc_453B56
 453b6c       loc_453B6C
 453b72       loc_453B72
 453b86       loc_453B86
 453b8b       loc_453B8B
 453b9f       loc_453B9F
 453bb7       loc_453BB7
 453bcc       loc_453BCC
 453bcf       sub_453BCF
 453c49       loc_453C49
 453c53       loc_453C53
 453c8d       loc_453C8D
 453c9c       loc_453C9C
 453ca7       loc_453CA7
 453cbb       loc_453CBB
 453cdf       std::_Ref_count_base::_Get_deleter(type_info_const_&)
 453ce4       nullsub_25
 453ce7       CFileDialog::OnInitDone(void)
 453d00       nullsub_26
 453d01       sub_453D01
 453d61       loc_453D61
 453d6d       loc_453D6D
 453d79       loc_453D79
 453d85       loc_453D85
 453d92       loc_453D92
 453d96       loc_453D96
 453dc0       loc_453DC0
 453dcc       loc_453DCC
 453dd6       loc_453DD6
 453dd9       loc_453DD9
 453ddf       _AFX_COLOR_STATE::_AFX_COLOR_STATE(void)
 453df9       sub_453DF9
 453e0e       loc_453E0E
 453e14       nullsub_9
 453e15       sub_453E15
 453e1b       CColorDialog::CColorDialog(ulong,ulong,CWnd_*)
 453e84       loc_453E84
 453e99       loc_453E99
 453eab       sub_453EAB
 453ec1       loc_453EC1
 453ec7       sub_453EC7
 453eed       loc_453EED
 453ef0       loc_453EF0
 453ef3       sub_453EF3
 453ef6       sub_453EF6
 453f11       sub_453F11
 453f17       sub_453F17
 453f58       loc_453F58
 453fc6       loc_453FC6
 453fe7       loc_453FE7
 454016       loc_454016
 45402d       loc_45402D
 454047       loc_454047
 45405a       loc_45405A
 45407b       loc_45407B
 45407f       loc_45407F
 454093       loc_454093
 4540a7       loc_4540A7
 4540ae       CCommonDialog::OnOK(void)
 4540c3       loc_4540C3
 4540c5       sub_4540C5
 4540d2       CTime::CTime(int,int,int,int,int,int,int)
 45411e       CTime::CTime(_SYSTEMTIME_const_&,int)
 454136       loc_454136
 454163       loc_454163
 45416a       CTime::CTime(_FILETIME_const_&,int)
 454196       loc_454196
 45419b       loc_45419B
 4541af       loc_4541AF
 4541b6       sub_4541B6
 4541e8       loc_4541E8
 454256       CTreeCtrl::GetItemImage(_TREEITEM_*,int_&,int_&)
 454291       locret_454291
 454295       CTreeCtrl::GetItemState(_TREEITEM_*,uint)
 4542cd       CTreeCtrl::ItemHasChildren(_TREEITEM_*)
 4542fb       CTreeCtrl::SetItem(_TREEITEM_*,uint,char_const_*,int,int,uint,uint,long)
 454349       sub_454349
 45437d       loc_45437D
 45439e       CSpinButtonCtrl::GetRange(int_&,int_&)
 4543ca       sub_4543CA
 454402       CTabCtrl::OnDestroy(void)
 454432       loc_454432
 45443c       afxMapHIMAGELIST(int)
 45448c       loc_45448C
 45448e       loc_45448E
 45449c       loc_45449C
 4544ae       sub_4544AE
 4544bb       sub_4544BB
 4544d1       loc_4544D1
 4544d7       sub_4544D7
 454500       sub_454500
 454521       loc_454521
 45452a       sub_45452A
 454533       loc_454533
 454540       sub_454540
 45455b       locret_45455B
 45455e       sub_45455E
 454564       CToolTipCtrl::CToolTipCtrl(void)
 45459d       sub_45459D
 4545b3       loc_4545B3
 4545b9       sub_4545B9
 4545d6       loc_4545D6
 4545d9       loc_4545D9
 454605       loc_454605
 454608       loc_454608
 45460e       CToolTipCtrl::~CToolTipCtrl(void)
 454655       sub_454655
 45466a       loc_45466A
 45466f       CToolTipCtrl::OnAddTool(uint,long)
 4546b8       loc_4546B8
 4546c6       loc_4546C6
 4546e3       CToolTipCtrl::OnDisableModal(uint,long)
 4546fa       CToolTipCtrl::OnEnable(int)
 454711       CToolTipCtrl::OnWindowFromPoint(uint,long)
 454752       loc_454752
 45477c       loc_45477C
 45477e       loc_45477E
 454784       CToolTipCtrl::AddTool(CWnd_*,char_const_*,tagRECT_const_*,uint)
 4547b3       loc_4547B3
 4547d2       unknown_libname_93
 4547f5       loc_4547F5
 4547f8       loc_4547F8
 454816       loc_454816
 454820       loc_454820
 454825       sub_454825
 45483c       sub_45483C
 454852       loc_454852
 454858       sub_454858
 454885       sub_454885
 45489c       sub_45489C
 4548b2       loc_4548B2
 4548b8       CStringArray::~CStringArray(void)
 4548f6       sub_4548F6
 454905       loc_454905
 454917       locret_454917
 454918       CStringArray::SetSize(int,int)
 45492b       loc_45492B
 454958       loc_454958
 45497a       loc_45497A
 454982       loc_454982
 4549a0       loc_4549A0
 4549ae       loc_4549AE
 4549b2       loc_4549B2
 4549d4       loc_4549D4
 4549d9       loc_4549D9
 4549dc       loc_4549DC
 4549e8       loc_4549E8
 454a2e       loc_454A2E
 454a35       sub_454A35
 454a44       loc_454A44
 454a60       locret_454A60
 454a61       CStringArray::SetAtGrow(int,char_const_*)
 454a79       loc_454A79
 454a8d       CStringArray::RemoveAt(int,int)
 454adc       loc_454ADC
 454ae9       CStringArray::Serialize(CArchive_&)
 454b0c       loc_454B0C
 454b21       loc_454B21
 454b39       loc_454B39
 454b4c       loc_454B4C
 454b52       sub_454B52
 454b69       sub_454B69
 454b7f       loc_454B7F
 454b85       sub_454B85
 454bb2       sub_454BB2
 454bc5       loc_454BC5
 454be5       loc_454BE5
 454c09       loc_454C09
 454c11       loc_454C11
 454c3d       loc_454C3D
 454c5f       loc_454C5F
 454c64       loc_454C64
 454c67       loc_454C67
 454c73       loc_454C73
 454cc4       loc_454CC4
 454ccb       sub_454CCB
 454cf7       sub_454CF7
 454d0f       loc_454D0F
 454d1e       sub_454D1E
 454d4d       loc_454D4D
 454d55       CDWordArray::Serialize(CArchive_&)
 454d83       loc_454D83
 454da5       loc_454DA5
 454daa       sub_454DAA
 454dc1       sub_454DC1
 454dd7       loc_454DD7
 454ddd       sub_454DDD
 454e0a       sub_454E0A
 454e1d       loc_454E1D
 454e3d       loc_454E3D
 454e5f       loc_454E5F
 454e67       loc_454E67
 454e92       loc_454E92
 454eb4       loc_454EB4
 454eb9       loc_454EB9
 454ebc       loc_454EBC
 454ec8       loc_454EC8
 454f16       loc_454F16
 454f1d       CWordArray::Serialize(CArchive_&)
 454f4a       loc_454F4A
 454f6b       loc_454F6B
 454f70       sub_454F70
 454f90       sub_454F90
 454fa6       locret_454FA6
 454fa9       sub_454FA9
 454fbf       loc_454FBF
 454fc3       loc_454FC3
 454fcd       CPlex::Create(CPlex_*_&,uint,uint)
 454fed       CPlex::FreeDataChain(void)
 454ff2       loc_454FF2
 455002       locret_455002
 455003       sub_455003
 45502a       sub_45502A
 455040       loc_455040
 455046       sub_455046
 45505b       loc_45505B
 455071       sub_455071
 45509a       sub_45509A
 4550c4       loc_4550C4
 4550d2       loc_4550D2
 4550e7       sub_4550E7
 4550fd       locret_4550FD
 455100       sub_455100
 45511f       loc_45511F
 45512c       loc_45512C
 45512e       loc_45512E
 455132       CMapPtrToPtr::GetValueAt(void_*)
 45514c       loc_45514C
 455159       loc_455159
 45515e       loc_45515E
 455160       loc_455160
 455165       sub_455165
 45518e       loc_45518E
 4551ac       loc_4551AC
 4551b5       sub_4551B5
 4551d2       loc_4551D2
 4551e1       loc_4551E1
 4551f0       loc_4551F0
 4551f2       loc_4551F2
 4551f7       sub_4551F7
 455210       loc_455210
 45521e       loc_45521E
 45523d       loc_45523D
 45524b       loc_45524B
 45524c       loc_45524C
 455269       sub_455269
 455290       sub_455290
 4552a6       loc_4552A6
 4552ac       sub_4552AC
 4552c2       loc_4552C2
 4552e9       loc_4552E9
 4552f1       sub_4552F1
 455305       loc_455305
 45530b       loc_45530B
 45531b       loc_45531B
 455322       loc_455322
 45532f       loc_45532F
 455343       sub_455343
 45536c       sub_45536C
 455399       loc_455399
 4553a7       loc_4553A7
 4553ce       sub_4553CE
 4553da       loc_4553DA
 4553ec       loc_4553EC
 455401       loc_455401
 455419       loc_455419
 45541d       loc_45541D
 45541f       loc_45541F
 455424       sub_455424
 455442       loc_455442
 455446       sub_455446
 455464       loc_455464
 455468       sub_455468
 455493       loc_455493
 4554c1       loc_4554C1
 4554ca       sub_4554CA
 4554d2       AfxSetNewHandler(int_(*)(uint))
 4554e4       sub_4554E4
 4554ea       loc_4554EA
 455508       loc_455508
 45550d       sub_45550D
 455518       sub_455518
 455535       loc_455535
 455545       loc_455545
 455555       sub_455555
 455564       loc_455564
 455570       loc_455570
 455584       sub_455584
 455596       loc_455596
 4555a2       loc_4555A2
 4555b6       sub_4555B6
 4555c8       loc_4555C8
 4555d4       loc_4555D4
 4555e8       sub_4555E8
 4555fa       loc_4555FA
 455606       loc_455606
 455610       sub_455610
 455625       loc_455625
 455632       loc_455632
 45563c       loc_45563C
 45564c       loc_45564C
 45565c       loc_45565C
 45566c       loc_45566C
 455679       loc_455679
 45568d       loc_45568D
 455692       sub_455692
 4556a0       loc_4556A0
 4556a6       loc_4556A6
 4556b5       loc_4556B5
 4556c4       loc_4556C4
 4556d3       loc_4556D3
 4556da       sub_4556DA
 455702       loc_455702
 455709       loc_455709
 45570b       sub_45570B
 45572a       loc_45572A
 45572e       CString::Empty(void)
 455741       loc_455741
 45574b       locret_45574B
 45574c       CString::CopyBeforeWrite(void)
 455777       loc_455777
 45577a       CString::AllocBeforeWrite(int)
 45578f       loc_45578F
 45579e       loc_45579E
 4557a3       sub_4557A3
 4557cb       loc_4557CB
 4557cd       sub_4557CD
 4557ed       loc_4557ED
 45580b       loc_45580B
 455811       sub_455811
 45583a       loc_45583A
 45585b       loc_45585B
 455863       CString::AssignCopy(int,char_const_*)
 455890       sub_455890
 4558b1       loc_4558B1
 4558b7       loc_4558B7
 4558c4       loc_4558C4
 4558d9       loc_4558D9
 4558e0       CString::operator=(char_const_*)
 4558f0       loc_4558F0
 4558f7       loc_4558F7
 455907       CString::operator=(ushort_const_*)
 45591d       loc_45591D
 45591f       loc_45591F
 455948       sub_455948
 455980       loc_455980
 455986       sub_455986
 4559ec       sub_4559EC
 455a15       loc_455A15
 455a1e       loc_455A1E
 455a60       sub_455A60
 455a89       loc_455A89
 455a92       loc_455A92
 455ad4       sub_455AD4
 455b17       loc_455B17
 455b2d       loc_455B2D
 455b33       sub_455B33
 455b43       loc_455B43
 455b4a       loc_455B4A
 455b5a       sub_455B5A
 455b6f       CString::operator+=(CString_const_&)
 455b87       sub_455B87
 455b9f       loc_455B9F
 455ba9       loc_455BA9
 455bcf       loc_455BCF
 455bd6       CString::ReleaseBuffer(int)
 455bef       loc_455BEF
 455bfe       CString::GetBufferSetLength(int)
 455c1e       sub_455C1E
 455c2c       sub_455C2C
 455c4e       loc_455C4E
 455c53       loc_455C53
 455c55       loc_455C55
 455c59       _wcstombsz(char_*,ushort_const_*,uint)
 455c6f       loc_455C6F
 455c8c       loc_455C8C
 455c8f       AfxA2WHelper(ushort_*,char_const_*,int)
 455cb5       locret_455CB5
 455cb8       CException::CException(void)
 455cc2       CException::CException(int)
 455cce       CException::Delete(void)
 455cdf       locret_455CDF
 455ce0       sub_455CE0
 455d16       loc_455D16
 455d23       loc_455D23
 455d31       locret_455D31
 455d35       AFX_EXCEPTION_LINK::AFX_EXCEPTION_LINK(void)
 455d4b       AfxGetExceptionContext(void)
 455d73       AfxTryCleanup(void)
 455d8a       loc_455D8A
 455d91       sub_455D91
 455dab       sub_455DAB
 455dc1       loc_455DC1
 455dc7       sub_455DC7
 455de6       CFile::~CFile(void)
 455e15       loc_455E15
 455e2e       sub_455E2E
 455e4f       loc_455E4F
 455e51       loc_455E51
 455e83       loc_455E83
 455e91       loc_455E91
 455ea3       CFile::Open(char_const_*,uint,CFileException_*)
 455f01       loc_455F01
 455f08       loc_455F08
 455f0d       loc_455F0D
 455f2d       loc_455F2D
 455f30       loc_455F30
 455f34       loc_455F34
 455f38       loc_455F38
 455f3a       loc_455F3A
 455f6a       loc_455F6A
 455f6d       loc_455F6D
 455fad       loc_455FAD
 455fb1       loc_455FB1
 455fb9       loc_455FB9
 455fc0       sub_455FC0
 455fcd       loc_455FCD
 455ff3       loc_455FF3
 455ff6       loc_455FF6
 455ffa       CFile::Write(void_const_*,uint)
 45602e       loc_45602E
 45603f       loc_45603F
 456045       CFile::Seek(long,uint)
 45606e       loc_45606E
 456074       CFile::GetPosition(void)
 456099       loc_456099
 45609d       CFile::Flush(void)
 4560bd       locret_4560BD
 4560be       CFile::Close(void)
 4560da       loc_4560DA
 4560fe       locret_4560FE
 4560ff       CFile::Abort(void)
 456115       loc_456115
 45611f       sub_45611F
 456145       locret_456145
 456148       sub_456148
 45616e       locret_45616E
 456171       sub_456171
 45619a       locret_45619A
 45619d       sub_45619D
 4561ca       sub_4561CA
 4561cf       AfxFullPath(char_*,char_const_*)
 45620e       loc_45620E
 45624c       loc_45624C
 45627e       loc_45627E
 456281       loc_456281
 45628f       loc_45628F
 45629f       sub_45629F
 4562d0       loc_4562D0
 4562de       loc_4562DE
 4562eb       loc_4562EB
 4562f6       loc_4562F6
 4562fc       loc_4562FC
 456315       loc_456315
 456319       loc_456319
 456320       loc_456320
 456330       loc_456330
 456337       loc_456337
 456348       loc_456348
 45634c       loc_45634C
 456365       AfxGetFileTitle(char_const_*,char_*,uint)
 456386       loc_456386
 4563a5       loc_4563A5
 4563b3       loc_4563B3
 4563b5       loc_4563B5
 4563bb       DialogFunc
 4563eb       loc_4563EB
 4563f0       loc_4563F0
 4563f2       locret_4563F2
 4563f5       sub_4563F5
 4563fb       CDialog::PreTranslateMessage(tagMSG_*)
 456422       loc_456422
 456438       loc_456438
 456470       loc_456470
 456482       loc_456482
 456487       loc_456487
 45648f       loc_45648F
 456494       sub_456494
 4564bc       loc_4564BC
 4564ef       loc_4564EF
 45650b       loc_45650B
 456510       loc_456510
 456512       loc_456512
 456519       sub_456519
 45652f       loc_45652F
 456535       sub_456535
 45655b       loc_45655B
 456573       sub_456573
 45659d       loc_45659D
 4565db       loc_4565DB
 4565e2       loc_4565E2
 4565f3       loc_4565F3
 456670       loc_456670
 45667a       loc_45667A
 4566bc       loc_4566BC
 4566d5       loc_4566D5
 4566d8       loc_4566D8
 4566fb       loc_4566FB
 456710       loc_456710
 456718       loc_456718
 45673b       loc_45673B
 45674e       loc_45674E
 456765       loc_456765
 45677c       loc_45677C
 456784       loc_456784
 456795       CDialog::SetOccDialogInfo(_AFX_OCC_DIALOG_INFO_*)
 4567a2       CDialog::CDialog(uint,CWnd_*)
 4567db       sub_4567DB
 4567f4       loc_4567F4
 4567fe       loc_4567FE
 456815       CDialog::PostModal(void)
 45683c       loc_45683C
 456856       locret_456856
 456857       sub_456857
 4568a4       loc_4568A4
 4568b2       loc_4568B2
 4568c0       loc_4568C0
 4568f7       loc_4568F7
 456930       loc_456930
 456938       loc_456938
 456950       loc_456950
 456965       loc_456965
 45696a       loc_45696A
 45697e       loc_45697E
 456997       loc_456997
 4569a8       loc_4569A8
 4569b7       sub_4569B7
 4569c9       loc_4569C9
 456a31       loc_456A31
 456a3b       loc_456A3B
 456a4c       loc_456A4C
 456a7f       loc_456A7F
 456a81       loc_456A81
 456a86       sub_456A86
 456a9d       loc_456A9D
 456ac2       loc_456AC2
 456ad8       loc_456AD8
 456adc       nullsub_21
 456adf       CDialog::OnInitDialog(void)
 456af1       loc_456AF1
 456afb       loc_456AFB
 456b0c       loc_456B0C
 456b19       loc_456B19
 456b3f       loc_456B3F
 456b44       CDialog::OnOK(void)
 456b5b       loc_456B5B
 456b5d       sub_456B5D
 456b65       sub_456B65
 456b93       loc_456B93
 456ba0       loc_456BA0
 456bbe       loc_456BBE
 456bc6       loc_456BC6
 456bdc       loc_456BDC
 456bde       loc_456BDE
 456c0f       loc_456C0F
 456c28       loc_456C28
 456c2d       loc_456C2D
 456c2f       loc_456C2F
 456c33       CDialog::OnHelpHitTest(uint,long)
 456c41       loc_456C41
 456c43       locret_456C43
 456c4b       loc_456C4B
 456c66       sub_456C66
 456c73       loc_456C73
 456c7f       unknown_libname_94
 456c99       locret_456C99
 456ca4       sub_456CA4
 456cb1       loc_456CB1
 456cbd       unknown_libname_95
 456cd7       locret_456CD7
 456ce2       sub_456CE2
 456cef       loc_456CEF
 456cfb       unknown_libname_96
 456d15       locret_456D15
 456d20       sub_456D20
 456d2d       loc_456D2D
 456d39       unknown_libname_97
 456d53       locret_456D53
 456d54       sub_456D54
 456d76       sub_456D76
 456d8c       loc_456D8C
 456d92       sub_456D92
 456dbe       _AfxModifyStyle(HWND___*,int,ulong,ulong,uint)
 456ddf       loc_456DDF
 456e06       loc_456E06
 456e09       loc_456E09
 456e0d       CWnd::ModifyStyle(HWND___*,ulong,ulong,uint)
 456e27       CWnd::ModifyStyleEx(HWND___*,ulong,ulong,uint)
 456e41       _AfxPreInitDialog(CWnd_*,tagRECT_*,ulong_*)
 456e64       _AfxPostInitDialog(CWnd_*,tagRECT_const_&,ulong)
 456ec1       loc_456EC1
 456ed8       loc_456ED8
 456edd       _AfxHandleActivate(CWnd_*,uint,CWnd_*)
 456f1c       loc_456F1C
 456f22       loc_456F22
 456f37       loc_456F37
 456f3e       _AfxHandleSetCursor(CWnd_*,uint,uint)
 456f63       loc_456F63
 456fad       loc_456FAD
 456faf       loc_456FAF
 456fb4       sub_456FB4
 457019       loc_457019
 457033       loc_457033
 45705e       loc_45705E
 45707d       loc_45707D
 457081       loc_457081
 45708f       loc_45708F
 457092       loc_457092
 4570b1       CWnd::GetCurrentMessage(void)
 4570e6       sub_4570E6
 45710d       afxMapHWND(int)
 45715d       loc_45715D
 45715f       loc_45715F
 45716d       loc_45716D
 45717f       sub_45717F
 4571a6       sub_4571A6
 4571c1       locret_4571C1
 4571c4       sub_4571C4
 4571d4       loc_4571D4
 4571f8       loc_4571F8
 4571fd       sub_4571FD
 45721e       loc_45721E
 457222       loc_457222
 45722b       sub_45722B
 45723d       loc_45723D
 457261       loc_457261
 457271       loc_457271
 457276       sub_457276
 45727c       sub_45727C
 45730d       loc_45730D
 457321       loc_457321
 457345       loc_457345
 457366       loc_457366
 457380       loc_457380
 457384       loc_457384
 45739f       sub_45739F
 4573db       _AfxGrayBackgroundWndProc(HWND___*,uint,uint,long)
 457423       loc_457423
 457442       loc_457442
 457451       loc_457451
 457457       fn
 45748c       loc_45748C
 4574bc       loc_4574BC
 4574fd       loc_4574FD
 457511       loc_457511
 45759f       loc_45759F
 4575b4       loc_4575B4
 4575b9       loc_4575B9
 4575c2       loc_4575C2
 457613       loc_457613
 45761d       loc_45761D
 457620       loc_457620
 457644       loc_457644
 457649       locret_457649
 45764d       AfxHookWindowCreate(CWnd_*)
 457691       loc_457691
 457694       loc_457694
 457699       AfxUnhookWindowCreate(void)
 4576c8       loc_4576C8
 4576d6       loc_4576D6
 4576db       yCFnCreateMainWindow
 45774e       loc_45774E
 457794       loc_457794
 45779c       loc_45779C
 4577a1       sub_4577A1
 4577ba       loc_4577BA
 4577c1       sub_4577C1
 4577d1       loc_4577D1
 4577d4       loc_4577D4
 45780d       CWnd::~CWnd(void)
 457853       loc_457853
 457861       loc_457861
 457871       loc_457871
 457889       CWnd::OnDestroy(void)
 45789a       loc_45789A
 4578e1       loc_4578E1
 4578e7       loc_4578E7
 4578ea       loc_4578EA
 4578f2       loc_4578F2
 457901       loc_457901
 457911       loc_457911
 457966       loc_457966
 4579a3       loc_4579A3
 4579b9       nullsub_11
 4579ba       sub_4579BA
 4579c5       loc_4579C5
 4579cb       sub_4579CB
 4579d8       loc_4579D8
 457a00       loc_457A00
 457a05       loc_457A05
 457a12       loc_457A12
 457a18       sub_457A18
 457a47       loc_457A47
 457a5a       loc_457A5A
 457a5f       sub_457A5F
 457a63       CWnd::PreTranslateMessage(tagMSG_*)
 457a7c       loc_457A7C
 457a82       sub_457A82
 457aab       loc_457AAB
 457ad5       loc_457AD5
 457ad9       CWnd::OnToolHitTest(CPoint,tagTOOLINFOA_*)
 457b3b       loc_457B3B
 457b41       loc_457B41
 457b44       loc_457B44
 457b4a       CWnd::GetWindowTextA(CString_&)
 457b82       loc_457B82
 457b8e       loc_457B8E
 457bb5       loc_457BB5
 457bc3       loc_457BC3
 457bca       loc_457BCA
 457bcf       CWnd::OnCompareItem(int,tagCOMPAREITEMSTRUCT_*)
 457bed       loc_457BED
 457bf4       loc_457BF4
 457bf9       CWnd::OnDeleteItem(int,tagDELETEITEMSTRUCT_*)
 457c15       loc_457C15
 457c19       sub_457C19
 457c38       loc_457C38
 457c3f       loc_457C3F
 457c44       sub_457C44
 457c5c       loc_457C5C
 457c80       loc_457C80
 457c90       loc_457C90
 457c95       loc_457C95
 457c97       loc_457C97
 457c9d       loc_457C9D
 457cd0       loc_457CD0
 457cd8       loc_457CD8
 457cf4       loc_457CF4
 457d13       loc_457D13
 457d1a       loc_457D1A
 457d1f       sub_457D1F
 457d59       loc_457D59
 457d9c       loc_457D9C
 457d9f       loc_457D9F
 457db0       sub_457DB0
 457dc0       AfxRegisterWndClass(uint,HICON___*,HBRUSH___*,HICON___*)
 457e01       loc_457E01
 457e1b       loc_457E1B
 457e6b       loc_457E6B
 457eba       sub_457EBA
 457efe       loc_457EFE
 457f51       loc_457F51
 457f7b       loc_457F7B
 457f9c       sub_457F9C
 457fa2       unknown_libname_98
 457fb2       unknown_libname_99
 457fbc       unknown_libname_100
 457fc1       unknown_libname_101
 457fd5       unknown_libname_102
 457fda       unknown_libname_103
 457fe2       sub_457FE2
 45801e       loc_45801E
 458026       sub_458026
 45805f       loc_45805F
 45807f       loc_45807F
 45808c       loc_45808C
 4580a4       loc_4580A4
 4580c1       loc_4580C1
 458127       loc_458127
 458132       loc_458132
 458138       loc_458138
 458157       loc_458157
 45816e       loc_45816E
 458171       loc_458171
 458198       loc_458198
 4581a4       loc_4581A4
 4581af       loc_4581AF
 4581b1       loc_4581B1
 4581c2       loc_4581C2
 4581cf       loc_4581CF
 4581f0       loc_4581F0
 458201       loc_458201
 45820f       loc_45820F
 458217       loc_458217
 45822e       loc_45822E
 45823c       loc_45823C
 458285       loc_458285
 458288       loc_458288
 4582b2       loc_4582B2
 4582e0       loc_4582E0
 4582ea       loc_4582EA
 4582f9       loc_4582F9
 458309       loc_458309
 45830a       loc_45830A
 458313       loc_458313
 458320       loc_458320
 458325       loc_458325
 45832f       loc_45832F
 458338       loc_458338
 458340       loc_458340
 45834c       loc_45834C
 458352       loc_458352
 458360       loc_458360
 458378       loc_458378
 45837e       loc_45837E
 458386       loc_458386
 45838c       loc_45838C
 458396       loc_458396
 4583aa       loc_4583AA
 4583af       loc_4583AF
 4583b0       loc_4583B0
 4583b7       loc_4583B7
 4583c2       loc_4583C2
 4583cc       loc_4583CC
 4583d7       loc_4583D7
 4583e5       loc_4583E5
 4583ee       loc_4583EE
 4583fd       loc_4583FD
 458424       loc_458424
 458428       loc_458428
 458429       loc_458429
 45842c       loc_45842C
 458435       loc_458435
 45843f       loc_45843F
 458442       loc_458442
 458448       loc_458448
 458449       loc_458449
 45844f       loc_45844F
 458456       loc_458456
 458460       loc_458460
 45846a       loc_45846A
 45846e       loc_45846E
 458474       loc_458474
 45847c       loc_45847C
 458485       loc_458485
 4584a5       loc_4584A5
 4584b2       loc_4584B2
 4584b5       loc_4584B5
 4584b9       loc_4584B9
 4584bd       loc_4584BD
 4584c0       loc_4584C0
 4584cc       loc_4584CC
 4584d4       off_4584D4
 458598       sub_458598
 4585b1       CTestCmdUI::Enable(int)
 4585c2       CWnd::OnCommand(uint,long)
 458606       loc_458606
 458613       loc_458613
 45861a       loc_45861A
 458641       loc_458641
 458646       loc_458646
 45864a       loc_45864A
 45864e       CWnd::OnNotify(uint,long,long_*)
 458698       loc_458698
 45869d       loc_45869D
 4586c1       loc_4586C1
 4586c8       sub_4586C8
 4586dc       loc_4586DC
 4586fd       loc_4586FD
 458701       loc_458701
 458703       loc_458703
 458706       AfxGetParentOwner(HWND___*)
 458725       loc_458725
 45873e       loc_45873E
 458747       loc_458747
 45874b       sub_45874B
 458756       loc_458756
 458759       loc_458759
 45875d       loc_45875D
 45876b       loc_45876B
 458773       sub_458773
 458780       loc_458780
 458784       loc_458784
 45879b       loc_45879B
 4587a1       loc_4587A1
 4587b0       loc_4587B0
 4587b4       sub_4587B4
 4587c7       loc_4587C7
 4587cf       loc_4587CF
 4587d2       loc_4587D2
 4587e6       CWnd::GetDescendantWindow(HWND___*,int,int)
 45881a       loc_45881A
 458828       loc_458828
 458831       loc_458831
 458836       loc_458836
 458857       loc_458857
 458859       loc_458859
 45885f       CWnd::SendMessageToDescendants(HWND___*,uint,uint,long,int,int)
 45886f       loc_45886F
 458899       loc_458899
 4588a9       loc_4588A9
 4588cb       loc_4588CB
 4588d6       loc_4588D6
 4588dc       sub_4588DC
 4588fb       loc_4588FB
 458901       loc_458901
 45890c       sub_45890C
 458923       loc_458923
 45892a       loc_45892A
 458934       sub_458934
 458956       loc_458956
 45895c       loc_45895C
 458967       sub_458967
 458986       loc_458986
 45898c       loc_45898C
 458997       CWnd::CalcWindowRect(tagRECT_*,uint)
 4589a9       loc_4589A9
 4589c2       sub_4589C2
 4589ca       loc_4589CA
 4589e7       loc_4589E7
 4589f8       loc_4589F8
 4589fd       loc_4589FD
 4589ff       loc_4589FF
 458a04       sub_458A04
 458a31       sub_458A31
 458ab7       loc_458AB7
 458abb       loc_458ABB
 458ac5       loc_458AC5
 458ad5       CWnd::OnChildNotify(uint,uint,long,long_*)
 458b0c       loc_458B0C
 458b15       loc_458B15
 458b1a       loc_458B1A
 458b2b       loc_458B2B
 458b30       sub_458B30
 458b87       loc_458B87
 458baf       loc_458BAF
 458bc4       loc_458BC4
 458bda       loc_458BDA
 458c11       loc_458C11
 458c13       loc_458C13
 458c18       CWnd::OnParentNotify(uint,long)
 458c2b       loc_458C2B
 458c3a       loc_458C3A
 458c41       loc_458C41
 458c45       CWnd::OnActivateTopLevel(uint,long)
 458c62       loc_458C62
 458c85       loc_458C85
 458cbb       loc_458CBB
 458cdb       loc_458CDB
 458d20       loc_458D20
 458d56       loc_458D56
 458d7e       loc_458D7E
 458d82       CWnd::OnHelpInfo(tagHELPINFO_*)
 458dd9       loc_458DD9
 458de0       loc_458DE0
 458de6       CWnd::OnDisplayChange(uint,long)
 458dfc       loc_458DFC
 458e24       loc_458E24
 458e2f       CWnd::OnDragList(uint,long)
 458e4d       loc_458E4D
 458e54       loc_458E54
 458e59       sub_458E59
 458e6f       loc_458E6F
 458e76       loc_458E76
 458e7a       CWnd::OnEnterIdle(uint,CWnd_*)
 458e9a       loc_458E9A
 458eb6       loc_458EB6
 458ec4       CWnd::OnCtlColor(CDC_*,CWnd_*,uint)
 458edf       loc_458EDF
 458ee6       loc_458EE6
 458eeb       CWnd::OnGrayCtlColor(CDC_*,CWnd_*,uint)
 458f0a       loc_458F0A
 458f22       loc_458F22
 458f44       loc_458F44
 458f47       loc_458F47
 458f4e       CWnd::GrayCtlColor(HDC___*,HWND___*,uint,HBRUSH___*,ulong)
 458f83       loc_458F83
 458fae       loc_458FAE
 458fbd       loc_458FBD
 458fbf       locret_458FBF
 458fc3       CWnd::OnQuery3dControls(uint,long)
 458fcb       sub_458FCB
 459029       loc_459029
 45902f       loc_45902F
 45904d       loc_45904D
 459050       loc_459050
 45906d       CDataExchange::CDataExchange(CWnd_*,int)
 459083       CWnd::CenterWindow(CWnd_*)
 4590a5       loc_4590A5
 4590b6       loc_4590B6
 4590c1       loc_4590C1
 4590dd       loc_4590DD
 459111       loc_459111
 459113       loc_459113
 45912a       loc_45912A
 459158       loc_459158
 459181       loc_459181
 4591ae       loc_4591AE
 4591f4       loc_4591F4
 459205       loc_459205
 45920f       loc_45920F
 45921f       loc_45921F
 459238       CWnd::ExecuteDlgInit(char_const_*)
 459271       loc_459271
 45927a       loc_45927A
 459282       loc_459282
 459288       sub_459288
 4592ab       loc_4592AB
 4592d9       loc_4592D9
 4592e4       loc_4592E4
 4592ea       loc_4592EA
 459305       loc_459305
 459311       loc_459311
 459318       loc_459318
 45932a       loc_45932A
 459337       loc_459337
 45933e       loc_45933E
 459351       loc_459351
 45935a       CWnd::PreTranslateInput(tagMSG_*)
 45936f       loc_45936F
 45937d       loc_45937D
 459385       std::_Ref_count_base::_Get_deleter(type_info_const_&)
 459387       locret_459387
 45938a       CWnd::RunModalLoop(ulong)
 4593b7       loc_4593B7
 4593bb       loc_4593BB
 4593dc       loc_4593DC
 459409       loc_459409
 45942f       loc_45942F
 459452       loc_459452
 459458       loc_459458
 45947f       loc_45947F
 459491       loc_459491
 4594b9       loc_4594B9
 4594cd       loc_4594CD
 4594d8       $ExitModal$70492
 4594df       loc_4594DF
 4594e9       CWnd::ContinueModal(void)
 4594f0       CWnd::EndModalLoop(int)
 459511       locret_459511
 459514       unknown_libname_104
 45954a       loc_45954A
 459555       sub_459555
 4595a0       loc_4595A0
 4595bd       loc_4595BD
 4595c6       loc_4595C6
 4595cc       sub_4595CC
 4595ec       loc_4595EC
 459647       loc_459647
 459668       loc_459668
 45968f       loc_45968F
 4596b5       loc_4596B5
 4596e1       loc_4596E1
 459704       loc_459704
 45971e       loc_45971E
 45973b       loc_45973B
 459754       loc_459754
 459771       loc_459771
 45978e       loc_45978E
 4597ab       loc_4597AB
 4597c8       loc_4597C8
 4597e5       loc_4597E5
 4597fe       loc_4597FE
 459817       loc_459817
 459834       loc_459834
 459851       loc_459851
 45986f       loc_45986F
 45987f       locret_45987F
 459883       CFrameWnd::IsTracking(void)
 45989f       loc_45989F
 4598a2       sub_4598A2
 4598de       loc_4598DE
 4598e1       loc_4598E1
 4598e5       sub_4598E5
 4598f4       sub_4598F4
 45990b       sub_45990B
 459927       loc_459927
 459932       locret_459932
 459935       sub_459935
 459951       loc_459951
 459960       locret_459960
 459963       CWnd::ScrollWindowEx(int,int,tagRECT_const_*,tagRECT_const_*,CRgn_*,tagRECT_*,uint)
 459974       loc_459974
 4599aa       loc_4599AA
 4599b2       CWnd::IsDialogMessageA(tagMSG_*)
 4599d4       loc_4599D4
 4599e1       loc_4599E1
 4599e5       sub_4599E5
 4599f8       loc_4599F8
 4599ff       sub_4599FF
 459a12       loc_459A12
 459a19       sub_459A19
 459a36       loc_459A36
 459a46       loc_459A46
 459a4a       sub_459A4A
 459a67       loc_459A67
 459a77       loc_459A77
 459a7b       sub_459A7B
 459a91       loc_459A91
 459a9f       locret_459A9F
 459aa2       sub_459AA2
 459ab3       loc_459AB3
 459abd       CWnd::MoveWindow(int,int,int,int,int)
 459ae1       loc_459AE1
 459afa       loc_459AFA
 459afe       CWnd::SetWindowPos(CWnd_const_*,int,int,int,int,uint)
 459b12       loc_459B12
 459b2d       loc_459B2D
 459b49       loc_459B49
 459b4d       sub_459B4D
 459b63       loc_459B63
 459b71       locret_459B71
 459b74       sub_459B74
 459b85       loc_459B85
 459b8f       CWnd::ShowWindow(int)
 459ba5       loc_459BA5
 459bb3       locret_459BB3
 459bb6       sub_459BB6
 459bcd       loc_459BCD
 459bd7       sub_459BD7
 459c10       loc_459C10
 459c14       sub_459C14
 459c30       locret_459C30
 459c33       sub_459C33
 459cb5       sub_459CB5
 459d37       CFile::GetFilePath(void)
 459d66       CFile::GetStatus(CFileStatus_&)
 459dcd       loc_459DCD
 459dd1       loc_459DD1
 459dda       loc_459DDA
 459de0       loc_459DE0
 459dee       loc_459DEE
 459e2a       loc_459E2A
 459e36       loc_459E36
 459e39       loc_459E39
 459e40       sub_459E40
 459e46       CWinApp::Run(void)
 459e5f       loc_459E5F
 459e68       sub_459E68
 459e9f       sub_459E9F
 459ec7       loc_459EC7
 459eca       loc_459ECA
 459ee8       loc_459EE8
 459efd       loc_459EFD
 459f02       loc_459F02
 459f08       loc_459F08
 459f12       loc_459F12
 459f16       sub_459F16
 459f44       loc_459F44
 459f65       loc_459F65
 459f72       loc_459F72
 459f80       CWinApp::DevModeChange(char_*)
 459fd7       loc_459FD7
 45a01e       loc_45A01E
 45a026       loc_45A026
 45a02d       sub_45A02D
 45a047       sub_45A047
 45a066       loc_45A066
 45a072       sub_45A072
 45a091       loc_45A091
 45a0c7       loc_45A0C7
 45a0da       loc_45A0DA
 45a0e5       loc_45A0E5
 45a0ea       loc_45A0EA
 45a0f2       loc_45A0F2
 45a0f7       loc_45A0F7
 45a10a       loc_45A10A
 45a11d       loc_45A11D
 45a121       loc_45A121
 45a124       loc_45A124
 45a12c       loc_45A12C
 45a12f       loc_45A12F
 45a137       loc_45A137
 45a144       loc_45A144
 45a152       loc_45A152
 45a15e       loc_45A15E
 45a16f       loc_45A16F
 45a171       loc_45A171
 45a173       loc_45A173
 45a179       sub_45A179
 45a1aa       loc_45A1AA
 45a1c5       loc_45A1C5
 45a1d2       loc_45A1D2
 45a1f7       loc_45A1F7
 45a20f       loc_45A20F
 45a21c       loc_45A21C
 45a221       loc_45A221
 45a225       loc_45A225
 45a22a       loc_45A22A
 45a23c       loc_45A23C
 45a241       loc_45A241
 45a24a       loc_45A24A
 45a265       loc_45A265
 45a27f       loc_45A27F
 45a281       loc_45A281
 45a288       sub_45A288
 45a28e       sub_45A28E
 45a291       CCmdTarget::GetTypeLib(ulong,ITypeLib_*_*)
 45a299       sub_45A299
 45a2ae       sub_45A2AE
 45a2c3       sub_45A2C3
 45a2c9       sub_45A2C9
 45a2cf       sub_45A2CF
 45a2d5       sub_45A2D5
 45a2db       sub_45A2DB
 45a2f7       loc_45A2F7
 45a30b       loc_45A30B
 45a30d       sub_45A30D
 45a311       sub_45A311
 45a317       std::_Ref_count_base::_Get_deleter(type_info_const_&)
 45a31c       sub_45A31C
 45a322       CCmdUI::CCmdUI(void)
 45a348       sub_45A348
 45a378       loc_45A378
 45a3a7       loc_45A3A7
 45a3c0       loc_45A3C0
 45a3cd       loc_45A3CD
 45a3d4       loc_45A3D4
 45a3d8       CCmdUI::SetCheck(int)
 45a406       loc_45A406
 45a435       loc_45A435
 45a43a       sub_45A43A
 45a470       loc_45A470
 45a48b       loc_45A48B
 45a490       sub_45A490
 45a4d4       loc_45A4D4
 45a4e3       loc_45A4E3
 45a4e7       AfxGetThread(void)
 45a4fb       locret_45A4FB
 45a4fc       AfxInitThread(void)
 45a54a       loc_45A54A
 45a55a       locret_45A55A
 45a55b       CWinThread::Delete(void)
 45a56c       locret_45A56C
 45a56d       sub_45A56D
 45a57d       loc_45A57D
 45a584       loc_45A584
 45a5a9       loc_45A5A9
 45a5ad       loc_45A5AD
 45a5ce       loc_45A5CE
 45a5df       loc_45A5DF
 45a5ec       sub_45A5EC
 45a612       loc_45A612
 45a616       loc_45A616
 45a62b       loc_45A62B
 45a63d       loc_45A63D
 45a640       loc_45A640
 45a645       sub_45A645
 45a649       CWinThread::OnIdle(long)
 45a693       loc_45A693
 45a6ac       loc_45A6AC
 45a6cd       loc_45A6CD
 45a6e2       loc_45A6E2
 45a6ff       loc_45A6FF
 45a711       loc_45A711
 45a718       loc_45A718
 45a71d       loc_45A71D
 45a744       loc_45A744
 45a754       sub_45A754
 45a773       loc_45A773
 45a789       loc_45A789
 45a791       loc_45A791
 45a797       loc_45A797
 45a7b3       loc_45A7B3
 45a7c5       loc_45A7C5
 45a7c7       loc_45A7C7
 45a7cf       sub_45A7CF
 45a7e4       loc_45A7E4
 45a7f2       loc_45A7F2
 45a7fd       loc_45A7FD
 45a802       loc_45A802
 45a825       loc_45A825
 45a827       loc_45A827
 45a82c       unknown_libname_105
 45a83d       loc_45A83D
 45a84c       loc_45A84C
 45a84e       locret_45A84E
 45a851       _AfxMsgFilterHook(int,uint,long)
 45a86d       loc_45A86D
 45a884       loc_45A884
 45a8a5       loc_45A8A5
 45a8a9       IsHelpKey(tagMSG_*)
 45a8ee       loc_45A8EE
 45a8f0       loc_45A8F0
 45a8f4       sub_45A8F4
 45a922       loc_45A922
 45a968       loc_45A968
 45a970       loc_45A970
 45a97e       loc_45A97E
 45a989       loc_45A989
 45a9ba       loc_45A9BA
 45aa29       loc_45AA29
 45aa2e       loc_45AA2E
 45aa35       loc_45AA35
 45aa37       loc_45AA37
 45aa3e       CWinThread::GetMainWnd(void)
 45aa58       locret_45AA58
 45aa59       sub_45AA59
 45aa93       loc_45AA93
 45aa96       loc_45AA96
 45aa99       afxMapHMENU(int)
 45aae9       loc_45AAE9
 45aaeb       loc_45AAEB
 45aaf9       loc_45AAF9
 45ab0b       sub_45AB0B
 45ab20       sub_45AB20
 45ab3b       locret_45AB3B
 45ab3e       sub_45AB3E
 45ab5f       loc_45AB5F
 45ab68       sub_45AB68
 45ab71       loc_45AB71
 45ab7e       sub_45AB7E
 45ab9c       locret_45AB9C
 45ab9f       sub_45AB9F
 45abc1       loc_45ABC1
 45abf3       loc_45ABF3
 45ac3f       sub_45AC3F
 45ac92       loc_45AC92
 45ac94       loc_45AC94
 45acaa       sub_45ACAA
 45ace7       loc_45ACE7
 45acee       loc_45ACEE
 45acf5       loc_45ACF5
 45acfc       loc_45ACFC
 45ad22       loc_45AD22
 45ad29       loc_45AD29
 45ad2d       loc_45AD2D
 45ad31       loc_45AD31
 45ad4d       loc_45AD4D
 45ad60       loc_45AD60
 45ad64       loc_45AD64
 45ad68       loc_45AD68
 45ad90       loc_45AD90
 45ada9       loc_45ADA9
 45adab       loc_45ADAB
 45adac       locret_45ADAC
 45adaf       loc_45ADAF
 45adb3       loc_45ADB3
 45ade0       loc_45ADE0
 45ade4       loc_45ADE4
 45ade8       loc_45ADE8
 45ae0d       loc_45AE0D
 45ae40       loc_45AE40
 45ae47       loc_45AE47
 45ae4e       loc_45AE4E
 45ae6f       loc_45AE6F
 45ae78       loc_45AE78
 45ae99       loc_45AE99
 45aea0       off_45AEA0
 45af04       off_45AF04
 45af28       CString::LoadStringA(uint)
 45af6e       loc_45AF6E
 45af71       loc_45AF71
 45afa6       loc_45AFA6
 45afac       AfxLoadString(uint,char_*,uint)
 45afcf       loc_45AFCF
 45afd3       CObject::IsKindOf(CRuntimeClass_const_*)
 45afe5       AfxDynamicDownCast(CRuntimeClass_*,CObject_*)
 45b002       loc_45B002
 45b005       sub_45B005
 45b02b       loc_45B02B
 45b02e       loc_45B02E
 45b03d       sub_45B03D
 45b04b       sub_45B04B
 45b071       CRuntimeClass::IsDerivedFrom(CRuntimeClass_const_*)
 45b080       loc_45B080
 45b085       loc_45B085
 45b087       locret_45B087
 45b08a       AfxLockTempMaps(void)
 45b093       sub_45B093
 45b0d8       loc_45B0D8
 45b100       loc_45B100
 45b133       loc_45B133
 45b15a       loc_45B15A
 45b17e       loc_45B17E
 45b18d       sub_45B18D
 45b1f2       CHandleMap::FromHandle(void_*)
 45b20f       loc_45B20F
 45b220       loc_45B220
 45b24d       loc_45B24D
 45b271       loc_45B271
 45b299       loc_45B299
 45b2a0       sub_45B2A0
 45b2b1       sub_45B2B1
 45b2d0       loc_45B2D0
 45b2f6       loc_45B2F6
 45b304       loc_45B304
 45b30b       loc_45B30B
 45b313       loc_45B313
 45b316       CDialogTemplate::CDialogTemplate(DLGTEMPLATE_const_*)
 45b32e       loc_45B32E
 45b33e       loc_45B33E
 45b345       CDialogTemplate::SetTemplate(DLGTEMPLATE_const_*,uint)
 45b388       loc_45B388
 45b38a       loc_45B38A
 45b3a1       loc_45B3A1
 45b3a5       Concurrency::details::UMSFreeVirtualProcessorRoot::InitialThreadParam::~InitialThreadParam(void)
 45b3b2       locret_45B3B2
 45b3b3       ATL::CComPtrBase<ICustomDestinationList>::Detach(void)
 45b3b9       sub_45B3B9
 45b3ca       loc_45B3CA
 45b3cd       loc_45B3CD
 45b3dd       loc_45B3DD
 45b3ec       loc_45B3EC
 45b3f8       loc_45B3F8
 45b404       loc_45B404
 45b40f       sub_45B40F
 45b436       loc_45B436
 45b438       loc_45B438
 45b457       loc_45B457
 45b461       loc_45B461
 45b465       loc_45B465
 45b477       loc_45B477
 45b48b       loc_45B48B
 45b49a       loc_45B49A
 45b49d       loc_45B49D
 45b4a9       loc_45B4A9
 45b4ac       loc_45B4AC
 45b4b8       loc_45B4B8
 45b4c2       loc_45B4C2
 45b4c7       CDialogTemplate::GetFont(DLGTEMPLATE_const_*,CString_&,ushort_&)
 45b4d9       loc_45B4D9
 45b4db       loc_45B4DB
 45b4e3       loc_45B4E3
 45b536       sub_45B536
 45b54e       loc_45B54E
 45b575       loc_45B575
 45b577       loc_45B577
 45b595       loc_45B595
 45b598       loc_45B598
 45b5d2       loc_45B5D2
 45b5f1       loc_45B5F1
 45b5f5       loc_45B5F5
 45b612       loc_45B612
 45b64b       loc_45B64B
 45b650       CDialogTemplate::SetSystemFont(ushort)
 45b67a       loc_45B67A
 45b6a4       loc_45B6A4
 45b6c4       loc_45B6C4
 45b6ce       loc_45B6CE
 45b6e1       AUX_DATA::UpdateSysColors(void)
 45b725       AUX_DATA::UpdateSysMetrics(void)
 45b74b       loc_45B74B
 45b750       loc_45B750
 45b77d       sub_45B77D
 45b7bd       loc_45B7BD
 45b7d4       loc_45B7D4
 45b7dd       loc_45B7DD
 45b7e4       loc_45B7E4
 45b7e6       loc_45B7E6
 45b7f3       CDC::CDC(void)
 45b807       sub_45B807
 45b81d       loc_45B81D
 45b823       afxMapHDC(int)
 45b873       loc_45B873
 45b875       loc_45B875
 45b883       loc_45B883
 45b895       sub_45B895
 45b8aa       sub_45B8AA
 45b8ba       loc_45B8BA
 45b8dc       loc_45B8DC
 45b8e1       sub_45B8E1
 45b902       loc_45B902
 45b912       sub_45B912
 45b91b       loc_45B91B
 45b928       sub_45B928
 45b952       loc_45B952
 45b95e       unknown_libname_106
 45b968       unknown_libname_107
 45b972       CDC::ReleaseAttribDC(void)
 45b977       Concurrency::details::TaskStack::Clear(void)
 45b97c       sub_45B97C
 45b995       loc_45B995
 45b9a7       loc_45B9A7
 45b9ad       CDC::RestoreDC(int)
 45b9c9       loc_45B9C9
 45b9e4       loc_45B9E4
 45b9e6       loc_45B9E6
 45b9eb       sub_45B9EB
 45ba02       sub_45BA02
 45ba27       loc_45BA27
 45ba32       loc_45BA32
 45ba3e       sub_45BA3E
 45ba5e       loc_45BA5E
 45ba62       loc_45BA62
 45ba71       loc_45BA71
 45ba74       loc_45BA74
 45ba78       loc_45BA78
 45ba84       sub_45BA84
 45baa6       loc_45BAA6
 45baa9       loc_45BAA9
 45baad       loc_45BAAD
 45babc       loc_45BABC
 45babf       loc_45BABF
 45bac3       loc_45BAC3
 45bac9       CDC::SelectPalette(CPalette_*,int)
 45bad4       loc_45BAD4
 45baeb       sub_45BAEB
 45bb07       loc_45BB07
 45bb15       loc_45BB15
 45bb1a       sub_45BB1A
 45bb35       loc_45BB35
 45bb43       loc_45BB43
 45bb48       sub_45BB48
 45bb63       loc_45BB63
 45bb71       loc_45BB71
 45bb76       sub_45BB76
 45bb91       loc_45BB91
 45bb9f       loc_45BB9F
 45bba4       sub_45BBA4
 45bbbf       loc_45BBBF
 45bbcd       loc_45BBCD
 45bbd2       sub_45BBD2
 45bbee       loc_45BBEE
 45bbfc       loc_45BBFC
 45bc01       sub_45BC01
 45bc1c       loc_45BC1C
 45bc2a       loc_45BC2A
 45bc2f       CDC::SetViewportOrg(int,int)
 45bc53       loc_45BC53
 45bc67       loc_45BC67
 45bc7b       CDC::OffsetViewportOrg(int,int)
 45bc9f       loc_45BC9F
 45bcb3       loc_45BCB3
 45bcc7       CDC::SetViewportExt(int,int)
 45bceb       loc_45BCEB
 45bcff       loc_45BCFF
 45bd13       CDC::ScaleViewportExt(int,int,int,int)
 45bd3d       loc_45BD3D
 45bd57       loc_45BD57
 45bd6b       CDC::SetWindowOrg(int,int)
 45bd8f       loc_45BD8F
 45bda3       loc_45BDA3
 45bdb7       CDC::SetWindowExt(int,int)
 45bddb       loc_45BDDB
 45bdef       loc_45BDEF
 45be03       CDC::ScaleWindowExt(int,int,int,int)
 45be2d       loc_45BE2D
 45be47       loc_45BE47
 45be5b       sub_45BE5B
 45be6b       sub_45BE6B
 45be8b       loc_45BE8B
 45be8f       loc_45BE8F
 45be9e       loc_45BE9E
 45bea1       loc_45BEA1
 45bea5       loc_45BEA5
 45beab       sub_45BEAB
 45bed1       loc_45BED1
 45bee7       loc_45BEE7
 45beed       sub_45BEED
 45bf14       loc_45BF14
 45bf29       loc_45BF29
 45bf2f       CDC::MoveTo(int,int)
 45bf53       loc_45BF53
 45bf67       loc_45BF67
 45bf7b       CDC::LineTo(int,int)
 45bf9b       loc_45BF9B
 45bfb0       CWnd::ScreenToClient(tagRECT_*)
 45bfe5       loc_45BFE5
 45bfec       sub_45BFEC
 45c021       loc_45C021
 45c028       sub_45C028
 45c048       loc_45C048
 45c050       loc_45C050
 45c05f       loc_45C05F
 45c062       loc_45C062
 45c06a       loc_45C06A
 45c070       CDC::LPtoDP(tagSIZE_*)
 45c0d9       CDC::DPtoLP(tagSIZE_*)
 45c142       sub_45C142
 45c16c       loc_45C16C
 45c187       loc_45C187
 45c198       sub_45C198
 45c1ae       loc_45C1AE
 45c1b4       sub_45C1B4
 45c1f6       sub_45C1F6
 45c220       loc_45C220
 45c23b       loc_45C23B
 45c24c       sub_45C24C
 45c262       loc_45C262
 45c268       sub_45C268
 45c2aa       CPaintDC::CPaintDC(CWnd_*)
 45c2ef       loc_45C2EF
 45c300       sub_45C300
 45c316       loc_45C316
 45c31c       CPaintDC::~CPaintDC(void)
 45c363       afxMapHGDIOBJ(int)
 45c3b3       loc_45C3B3
 45c3b5       loc_45C3B5
 45c3c3       loc_45C3C3
 45c3d5       sub_45C3D5
 45c3ea       sub_45C3EA
 45c3fa       loc_45C3FA
 45c412       loc_45C412
 45c417       sub_45C417
 45c438       loc_45C438
 45c441       sub_45C441
 45c44a       loc_45C44A
 45c457       CPen::CPen(int,int,ulong)
 45c496       loc_45C496
 45c4a7       CBrush::CBrush(ulong)
 45c4e0       loc_45C4E0
 45c4f1       sub_45C4F1
 45c50a       sub_45C50A
 45c52c       loc_45C52C
 45c54e       loc_45C54E
 45c56d       loc_45C56D
 45c583       ReadStringLength(CArchive_&)
 45c5a0       loc_45C5A0
 45c5b9       loc_45C5B9
 45c5d2       loc_45C5D2
 45c5d6       locret_45C5D6
 45c5da       sub_45C5DA
 45c601       loc_45C601
 45c61a       loc_45C61A
 45c640       loc_45C640
 45c668       loc_45C668
 45c672       sub_45C672
 45c6c2       loc_45C6C2
 45c6c9       loc_45C6C9
 45c6f0       loc_45C6F0
 45c6f3       loc_45C6F3
 45c722       loc_45C722
 45c725       loc_45C725
 45c738       loc_45C738
 45c74e       CArchive::~CArchive(void)
 45c774       loc_45C774
 45c794       CArchive::Abort(void)
 45c7b1       loc_45C7B1
 45c7bf       loc_45C7BF
 45c7d0       loc_45C7D0
 45c7d6       CArchive::Close(void)
 45c7e4       sub_45C7E4
 45c7fb       loc_45C7FB
 45c80a       loc_45C80A
 45c837       loc_45C837
 45c858       loc_45C858
 45c878       loc_45C878
 45c87e       loc_45C87E
 45c8a2       loc_45C8A2
 45c8b0       loc_45C8B0
 45c8ca       loc_45C8CA
 45c8d5       loc_45C8D5
 45c8e7       loc_45C8E7
 45c8ed       loc_45C8ED
 45c8f3       CArchive::Write(void_const_*,uint)
 45c910       loc_45C910
 45c96a       loc_45C96A
 45c97c       loc_45C97C
 45c983       sub_45C983
 45c9a4       loc_45C9A4
 45c9ac       loc_45C9AC
 45c9cf       loc_45C9CF
 45c9e4       loc_45C9E4
 45c9f6       loc_45C9F6
 45c9fc       loc_45C9FC
 45c9ff       CArchive::FillBuffer(uint)
 45ca43       loc_45CA43
 45ca4d       loc_45CA4D
 45ca6e       loc_45CA6E
 45ca7e       loc_45CA7E
 45ca8f       loc_45CA8F
 45caa6       loc_45CAA6
 45cabd       locret_45CABD
 45cac1       CArchive::WriteCount(ulong)
 45cada       loc_45CADA
 45caea       loc_45CAEA
 45caef       CArchive::ReadCount(void)
 45cb0e       loc_45CB0E
 45cb1c       loc_45CB1C
 45cb1f       sub_45CB1F
 45cb41       loc_45CB41
 45cb73       loc_45CB73
 45cbbf       sub_45CBBF
 45cc0c       loc_45CC0C
 45cc0e       loc_45CC0E
 45cc37       _AfxIsComboBoxControl(HWND___*,uint)
 45cc56       loc_45CC56
 45cc5a       loc_45CC5A
 45cc7d       locret_45CC7D
 45cc81       _AfxCompareClassName(HWND___*,char_const_*)
 45ccac       _AfxChildWindowFromPoint(HWND___*,tagPOINT)
 45cccc       loc_45CCCC
 45cd10       loc_45CD10
 45cd15       loc_45CD15
 45cd19       loc_45CD19
 45cd1b       loc_45CD1B
 45cd21       AfxSetWindowText(HWND___*,char_const_*)
 45cd68       loc_45CD68
 45cd74       loc_45CD74
 45cd79       AfxDeleteObject(void_*_*)
 45cd8e       loc_45CD8E
 45cd92       AfxCancelModes(HWND___*)
 45cdd0       loc_45CDD0
 45cdf3       loc_45CDF3
 45ce03       loc_45CE03
 45ce09       AfxGlobalFree(void_*)
 45ce29       loc_45CE29
 45ce34       loc_45CE34
 45ce3b       loc_45CE3B
 45ce3f       AfxCriticalNewHandler(uint)
 45ce73       loc_45CE73
 45ce83       loc_45CE83
 45ce88       loc_45CE88
 45ce91       CMemFile::CMemFile(uint)
 45cec1       sub_45CEC1
 45ced7       loc_45CED7
 45cedd       CMemFile::Attach(uchar_*,uint,uint)
 45cf08       CMemFile::Detach(void)
 45cf1a       CMemFile::~CMemFile(void)
 45cf41       loc_45CF41
 45cf66       std::allocator<char>::allocate(uint)
 45cf73       sub_45CF73
 45cf85       sub_45CF85
 45cfaa       std::allocator<char>::allocate(uint)
 45cfb7       sub_45CFB7
 45cfbb       sub_45CFBB
 45cfd6       loc_45CFD6
 45cfdd       loc_45CFDD
 45cfe3       loc_45CFE3
 45cff4       loc_45CFF4
 45cffd       loc_45CFFD
 45d008       loc_45D008
 45d00e       loc_45D00E
 45d014       sub_45D014
 45d027       loc_45D027
 45d02f       loc_45D02F
 45d037       sub_45D037
 45d04d       loc_45D04D
 45d051       loc_45D051
 45d05c       loc_45D05C
 45d073       loc_45D073
 45d078       sub_45D078
 45d094       loc_45D094
 45d0b5       loc_45D0B5
 45d0ba       CMemFile::Seek(long,uint)
 45d0cf       loc_45D0CF
 45d0de       loc_45D0DE
 45d0e1       loc_45D0E1
 45d0f0       loc_45D0F0
 45d0f7       loc_45D0F7
 45d0fa       loc_45D0FA
 45d100       nullsub_23
 45d101       sub_45D101
 45d125       loc_45D125
 45d12b       CMemFile::Abort(void)
 45d130       sub_45D130
 45d138       sub_45D138
 45d140       sub_45D140
 45d157       loc_45D157
 45d16d       loc_45D16D
 45d171       loc_45D171
 45d18c       loc_45D18C
 45d1aa       loc_45D1AA
 45d1b4       loc_45D1B4
 45d1bf       loc_45D1BF
 45d1cd       loc_45D1CD
 45d1dc       loc_45D1DC
 45d1e1       loc_45D1E1
 45d1e7       sub_45D1E7
 45d211       loc_45D211
 45d215       sub_45D215
 45d259       loc_45D259
 45d263       loc_45D263
 45d27d       loc_45D27D
 45d299       loc_45D299
 45d29c       loc_45D29C
 45d2a5       loc_45D2A5
 45d2bf       loc_45D2BF
 45d2d8       loc_45D2D8
 45d2e9       loc_45D2E9
 45d2fc       sub_45D2FC
 45d320       loc_45D320
 45d330       loc_45D330
 45d334       sub_45D334
 45d361       loc_45D361
 45d38d       sub_45D38D
 45d3b5       loc_45D3B5
 45d3bd       loc_45D3BD
 45d3c6       loc_45D3C6
 45d3d7       loc_45D3D7
 45d3ff       loc_45D3FF
 45d402       loc_45D402
 45d406       loc_45D406
 45d41d       loc_45D41D
 45d420       loc_45D420
 45d429       unknown_libname_108
 45d435       CWinApp::DoWaitCursor(int)
 45d475       loc_45D475
 45d488       loc_45D488
 45d494       sub_45D494
 45d4a3       loc_45D4A3
 45d4a7       sub_45D4A7
 45d4ba       locret_45D4BA
 45d4bd       CWinApp::GetNextDocTemplate(__POSITION_*_&)
 45d4cf       CWinApp::OnUpdateRecentFileMenu(CCmdUI_*)
 45d4e5       loc_45D4E5
 45d4ee       locret_45D4EE
 45d4f1       sub_45D4F1
 45d506       std::_Ref_count_base::_Get_deleter(type_info_const_&)
 45d508       locret_45D508
 45d536       loc_45D536
 45d53e       CDataExchange::PrepareCtrl(int)
 45d55e       loc_45D55E
 45d56d       DDX_Control(CDataExchange_*,int,CWnd_&)
 45d59b       loc_45D59B
 45d5b4       loc_45D5B4
 45d5b9       sub_45D5B9
 45d5fe       loc_45D5FE
 45d629       loc_45D629
 45d62e       AfxFormatStrings(CString_&,uint,char_const_*_const_*,int)
 45d664       locret_45D664
 45d668       AfxFormatStrings(CString_&,char_const_*,char_const_*_const_*,int)
 45d679       loc_45D679
 45d68b       loc_45D68B
 45d69f       loc_45D69F
 45d6a5       loc_45D6A5
 45d6c1       loc_45D6C1
 45d6cf       loc_45D6CF
 45d6d0       loc_45D6D0
 45d6d1       loc_45D6D1
 45d6d6       loc_45D6D6
 45d6e3       loc_45D6E3
 45d6fa       loc_45D6FA
 45d70e       loc_45D70E
 45d714       loc_45D714
 45d721       loc_45D721
 45d73e       loc_45D73E
 45d74e       loc_45D74E
 45d756       loc_45D756
 45d767       sub_45D767
 45d77e       sub_45D77E
 45d7b6       sub_45D7B6
 45d7ee       sub_45D7EE
 45d80a       loc_45D80A
 45d818       loc_45D818
 45d81c       CListBox::GetText(int,CString_&)
 45d85f       sub_45D85F
 45d897       nullsub_24
 45d89a       std::_Ref_count_base::_Get_deleter(type_info_const_&)
 45d89f       CComboBox::OnChildNotify(uint,uint,long,long_*)
 45d8c8       loc_45D8C8
 45d8da       loc_45D8DA
 45d8e7       loc_45D8E7
 45d8f4       loc_45D8F4
 45d8ff       loc_45D8FF
 45d902       loc_45D902
 45d906       sub_45D906
 45d927       sub_45D927
 45d95f       _AFX_CHECKLIST_STATE::_AFX_CHECKLIST_STATE(void)
 45d9a6       loc_45D9A6
 45d9ab       loc_45D9AB
 45da01       sub_45DA01
 45da16       loc_45DA16
 45da1c       sub_45DA1C
 45da30       locret_45DA30
 45da31       sub_45DA31
 45da4a       loc_45DA4A
 45da84       loc_45DA84
 45da86       loc_45DA86
 45daa7       loc_45DAA7
 45daac       sub_45DAAC
 45dacc       loc_45DACC
 45dace       locret_45DACE
 45dad1       sub_45DAD1
 45daf2       loc_45DAF2
 45daf5       locret_45DAF5
 45daf8       CCheckListBox::CalcMinimumItemHeight(void)
 45db71       loc_45DB71
 45db7f       loc_45DB7F
 45db83       loc_45DB83
 45db93       CCheckListBox::InvalidateCheck(int)
 45dbe5       CCheckListBox::CheckFromPoint(CPoint,int_&)
 45dc70       loc_45DC70
 45dc83       loc_45DC83
 45dcbe       loc_45DCBE
 45dcd1       loc_45DCD1
 45dcdb       loc_45DCDB
 45dce5       sub_45DCE5
 45dd2b       loc_45DD2B
 45dd4d       loc_45DD4D
 45dd53       loc_45DD53
 45dd5d       sub_45DD5D
 45ddda       loc_45DDDA
 45de22       loc_45DE22
 45de29       loc_45DE29
 45de4d       loc_45DE4D
 45de54       loc_45DE54
 45de5a       CCheckListBox::OnLButtonDblClk(uint,CPoint)
 45de88       loc_45DE88
 45de8f       loc_45DE8F
 45de94       sub_45DE94
 45df36       loc_45DF36
 45df67       loc_45DF67
 45df74       loc_45DF74
 45df76       loc_45DF76
 45df80       loc_45DF80
 45dfa3       loc_45DFA3
 45dfce       loc_45DFCE
 45dfee       loc_45DFEE
 45dff2       loc_45DFF2
 45dff9       loc_45DFF9
 45e012       loc_45E012
 45e03b       loc_45E03B
 45e03d       loc_45E03D
 45e041       CCheckListBox::OnSetFont(uint,long)
 45e072       loc_45E072
 45e0a1       loc_45E0A1
 45e0a3       loc_45E0A3
 45e0b0       loc_45E0B0
 45e0d9       loc_45E0D9
 45e108       loc_45E108
 45e117       loc_45E117
 45e12a       loc_45E12A
 45e152       loc_45E152
 45e157       loc_45E157
 45e15a       loc_45E15A
 45e189       loc_45E189
 45e198       loc_45E198
 45e1ab       loc_45E1AB
 45e1d3       loc_45E1D3
 45e1d8       loc_45E1D8
 45e1db       loc_45E1DB
 45e203       locret_45E203
 45e258       loc_45E258
 45e25a       loc_45E25A
 45e267       loc_45E267
 45e290       loc_45E290
 45e2bf       loc_45E2BF
 45e2ce       loc_45E2CE
 45e2e1       loc_45E2E1
 45e309       loc_45E309
 45e31d       loc_45E31D
 45e320       loc_45E320
 45e366       loc_45E366
 45e368       loc_45E368
 45e36a       loc_45E36A
 45e393       loc_45E393
 45e3b6       loc_45E3B6
 45e3b8       loc_45E3B8
 45e3d4       loc_45E3D4
 45e3e4       loc_45E3E4
 45e3f5       CDC::FillSolidRect(tagRECT_const_*,ulong)
 45e41f       sub_45E41F
 45e46b       CSharedFile::CSharedFile(uint,uint)
 45e495       sub_45E495
 45e4ab       loc_45E4AB
 45e4b1       CSharedFile::~CSharedFile(void)
 45e4d7       loc_45E4D7
 45e4ef       sub_45E4EF
 45e50e       locret_45E50E
 45e511       CSharedFile::Realloc(uchar_*,ulong)
 45e537       loc_45E537
 45e53b       loc_45E53B
 45e545       loc_45E545
 45e549       CSharedFile::Free(uchar_*)
 45e562       CSharedFile::Detach(void)
 45e571       AfxOleCanExitApp(void)
 45e581       AfxOleGetUserCtrl(void)
 45e58a       sub_45E58A
 45e59a       unknown_libname_109
 45e5ac       loc_45E5AC
 45e5b8       loc_45E5B8
 45e5c2       sub_45E5C2
 45e5d2       unknown_libname_110
 45e5e4       loc_45E5E4
 45e5f0       loc_45E5F0
 45e5fa       CThreadLocal<_AFX_THREAD_STATE>::CreateObject(void)
 45e622       loc_45E622
 45e62e       sub_45E62E
 45e634       sub_45E634
 45e63a       sub_45E63A
 45e64a       unknown_libname_111
 45e65c       loc_45E65C
 45e668       loc_45E668
 45e672       sub_45E672
 45e682       unknown_libname_112
 45e694       loc_45E694
 45e6a0       loc_45E6A0
 45e6be       loc_45E6BE
 45e6c1       sub_45E6C1
 45e6c7       sub_45E6C7
 45e6cd       sub_45E6CD
 45e6d3       sub_45E6D3
 45e6f0       loc_45E6F0
 45e6f3       sub_45E6F3
 45e6f9       sub_45E6F9
 45e6ff       sub_45E6FF
 45e705       sub_45E705
 45e70b       sub_45E70B
 45e711       sub_45E711
 45e717       sub_45E717
 45e73f       loc_45E73F
 45e743       sub_45E743
 45e75d       loc_45E75D
 45e763       sub_45E763
 45e768       sub_45E768
 45e787       loc_45E787
 45e78a       sub_45E78A
 45e7a4       loc_45E7A4
 45e7aa       sub_45E7AA
 45e7d3       sub_45E7D3
 45e7e3       sub_45E7E3
 45e7f2       loc_45E7F2
 45e7fe       unknown_libname_113
 45e818       locret_45E818
 45e823       sub_45E823
 45e832       loc_45E832
 45e83e       unknown_libname_114
 45e858       locret_45E858
 45e859       sub_45E859
 45e85f       CWnd::CreateObject(void)
 45e885       loc_45E885
 45e891       sub_45E891
 45e897       sub_45E897
 45e8ca       loc_45E8CA
 45e8d7       sub_45E8D7
 45e8f1       loc_45E8F1
 45e8f7       CWnd::~CWnd(void)
 45e8fc       sub_45E8FC
 45e90c       sub_45E90C
 45e91b       loc_45E91B
 45e927       unknown_libname_115
 45e941       locret_45E941
 45e942       sub_45E942
 45e967       loc_45E967
 45e973       CProcessLocal<_AFX_CTL3D_STATE>::CreateObject(void)
 45e985       loc_45E985
 45e988       sub_45E988
 45e99d       loc_45E99D
 45e9a3       sub_45E9A3
 45e9a9       sub_45E9A9
 45e9af       sub_45E9AF
 45e9b5       sub_45E9B5
 45e9bb       sub_45E9BB
 45e9cb       nullsub_13
 45e9cc       loc_45E9CC
 45e9d8       loc_45E9D8
 45e9e2       sub_45E9E2
 45ea07       loc_45EA07
 45ea13       sub_45EA13
 45ea19       _AFX_THREAD_STATE::_AFX_THREAD_STATE(void)
 45ea30       sub_45EA30
 45ea45       loc_45EA45
 45ea4b       sub_45EA4B
 45ea89       loc_45EA89
 45ea99       loc_45EA99
 45eaa3       loc_45EAA3
 45eab1       loc_45EAB1
 45eabf       AfxGetThreadState(void)
 45ead9       nullsub_14
 45eada       loc_45EADA
 45eae6       loc_45EAE6
 45eaf0       AFX_MODULE_STATE::AFX_MODULE_STATE(int)
 45eb53       sub_45EB53
 45eb68       loc_45EB68
 45eb6e       sub_45EB6E
 45eb9d       loc_45EB9D
 45ebc6       loc_45EBC6
 45ebe3       CThreadLocalObject::~CThreadLocalObject(void)
 45ebe8       sub_45EBE8
 45ec07       sub_45EC07
 45ec1c       loc_45EC1C
 45ec22       sub_45EC22
 45ec4d       loc_45EC4D
 45ec59       loc_45EC59
 45ec65       loc_45EC65
 45ec71       loc_45EC71
 45ec7d       loc_45EC7D
 45ec84       loc_45EC84
 45ec9b       loc_45EC9B
 45eca8       loc_45ECA8
 45ecb5       loc_45ECB5
 45ecc2       loc_45ECC2
 45ecda       nullsub_15
 45ecdb       loc_45ECDB
 45ece7       loc_45ECE7
 45ecf1       AfxGetModuleState(void)
 45ed16       locret_45ED16
 45ed17       AfxGetModuleThreadState(void)
 45ed2e       CTypeLibCache::Unlock(void)
 45ed50       loc_45ED50
 45ed61       loc_45ED61
 45ed63       sub_45ED63
 45ed76       loc_45ED76
 45ed79       loc_45ED79
 45ed9d       loc_45ED9D
 45eda1       sub_45EDA1
 45edb6       loc_45EDB6
 45edbc       sub_45EDBC
 45edd5       loc_45EDD5
 45edd8       sub_45EDD8
 45ede3       loc_45EDE3
 45edee       CSimpleList::AddHead(void_*)
 45ee01       sub_45EE01
 45ee0b       loc_45EE0B
 45ee20       loc_45EE20
 45ee28       loc_45EE28
 45ee35       loc_45EE35
 45ee40       loc_45EE40
 45ee43       loc_45EE43
 45ee44       locret_45EE44
 45ee47       CNoTrackObject::operator_new(uint)
 45ee5f       loc_45EE5F
 45ee65       CNoTrackObject::operator_delete(void_*)
 45ee76       locret_45EE76
 45ee79       CThreadSlotData::CThreadSlotData(void)
 45eead       loc_45EEAD
 45eebb       CThreadSlotData::~CThreadSlotData(void)
 45eecd       loc_45EECD
 45eed4       loc_45EED4
 45eee7       loc_45EEE7
 45ef05       loc_45EF05
 45ef12       sub_45EF12
 45ef3e       loc_45EF3E
 45ef4b       loc_45EF4B
 45ef58       loc_45EF58
 45ef60       loc_45EF60
 45ef7e       loc_45EF7E
 45efa0       loc_45EFA0
 45efc9       loc_45EFC9
 45eff7       loc_45EFF7
 45f002       loc_45F002
 45f024       CThreadSlotData::FreeSlot(int)
 45f044       loc_45F044
 45f059       loc_45F059
 45f060       loc_45F060
 45f067       loc_45F067
 45f081       sub_45F081
 45f0b2       loc_45F0B2
 45f0c7       loc_45F0C7
 45f0c9       loc_45F0C9
 45f0f4       loc_45F0F4
 45f10c       loc_45F10C
 45f11c       loc_45F11C
 45f128       loc_45F128
 45f158       loc_45F158
 45f16b       sub_45F16B
 45f180       loc_45F180
 45f186       nullsub_8
 45f187       sub_45F187
 45f19e       loc_45F19E
 45f1bd       loc_45F1BD
 45f1cd       loc_45F1CD
 45f1d4       loc_45F1D4
 45f1e0       loc_45F1E0
 45f20f       loc_45F20F
 45f219       loc_45F219
 45f220       CThreadSlotData::DeleteValues(HINSTANCE___*,int)
 45f24f       loc_45F24F
 45f257       loc_45F257
 45f26d       loc_45F26D
 45f279       CThreadLocalObject::GetData(CNoTrackObject_*_(*)(void))
 45f2a0       loc_45F2A0
 45f2a2       loc_45F2A2
 45f2a8       loc_45F2A8
 45f2af       loc_45F2AF
 45f2cf       loc_45F2CF
 45f2d1       loc_45F2D1
 45f2e9       loc_45F2E9
 45f2f0       CThreadLocalObject::~CThreadLocalObject(void)
 45f309       loc_45F309
 45f30e       sub_45F30E
 45f33b       loc_45F33B
 45f346       loc_45F346
 45f359       sub_45F359
 45f369       CProcessLocalObject::~CProcessLocalObject(void)
 45f38c       locret_45F38C
 45f38e       AfxTermLocalData(HINSTANCE___*,int)
 45f3a5       locret_45F3A5
 45f3a8       AfxTlsRelease(void)
 45f3b9       loc_45F3B9
 45f3cf       locret_45F3CF
 45f3d0       sub_45F3D0
 45f3d9       sub_45F3D9
 45f3ee       loc_45F3EE
 45f3f4       CWinApp::CWinApp(char_const_*)
 45f42a       loc_45F42A
 45f42d       loc_45F42D
 45f4de       sub_45F4DE
 45f4f4       loc_45F4F4
 45f4fa       CWinApp::InitApplication(void)
 45f515       loc_45F515
 45f51c       loc_45F51C
 45f52f       loc_45F52F
 45f536       loc_45F536
 45f53a       sub_45F53A
 45f53e       sub_45F53E
 45f56c       loc_45F56C
 45f57d       loc_45F57D
 45f59e       loc_45F59E
 45f5b5       loc_45F5B5
 45f5c5       loc_45F5C5
 45f5d5       loc_45F5D5
 45f5eb       loc_45F5EB
 45f5fa       loc_45F5FA
 45f60c       loc_45F60C
 45f61c       loc_45F61C
 45f624       loc_45F624
 45f674       sub_45F674
 45f686       loc_45F686
 45f6a2       loc_45F6A2
 45f6a4       CWinApp::ExitInstance(void)
 45f6b7       loc_45F6B7
 45f6c9       loc_45F6C9
 45f6d5       loc_45F6D5
 45f6da       sub_45F6DA
 45f6ea       nullsub_16
 45f6eb       loc_45F6EB
 45f6f7       loc_45F6F7
 45f701       sub_45F701
 45f71b       loc_45F71B
 45f71e       sub_45F71E
 45f746       loc_45F746
 45f74a       sub_45F74A
 45f764       loc_45F764
 45f76a       sub_45F76A
 45f76f       sub_45F76F
 45f77f       sub_45F77F
 45f78e       loc_45F78E
 45f79a       unknown_libname_116
 45f7b4       locret_45F7B4
 45f7b5       sub_45F7B5
 45f7bb       sub_45F7BB
 45f7c1       _AfxLoadDotBitmap(void)
 45f7e7       loc_45F7E7
 45f808       loc_45F808
 45f812       loc_45F812
 45f84d       loc_45F84D
 45f89f       locret_45F89F
 45f8a1       sub_45F8A1
 45f8b7       loc_45F8B7
 45f8bd       CWinThread::CWinThread(void)
 45f8fa       CWinThread::CommonConstruct(void)
 45f92c       sub_45F92C
 45f932       sub_45F932
 45f944       loc_45F944
 45f947       sub_45F947
 45f95c       loc_45F95C
 45f979       loc_45F979
 45f97c       sub_45F97C
 45f99b       loc_45F99B
 45f99e       sub_45F99E
 45f9b8       loc_45F9B8
 45f9be       sub_45F9BE
 45f9e7       sub_45F9E7
 45f9f7       sub_45F9F7
 45fa06       loc_45FA06
 45fa12       unknown_libname_117
 45fa2c       locret_45FA2C
 45fa41       loc_45FA41
 45fa44       sub_45FA44
 45fa4f       loc_45FA4F
 45fa6e       loc_45FA6E
 45fa71       sub_45FA71
 45fa7c       loc_45FA7C
 45fa87       sub_45FA87
 45fa8d       sub_45FA8D
 45fa93       sub_45FA93
 45fa99       sub_45FA99
 45faa9       nullsub_17
 45faaa       loc_45FAAA
 45fab6       loc_45FAB6
 45fac0       loc_45FAC0
 45fac5       loc_45FAC5
 45fad8       loc_45FAD8
 45fadb       sub_45FADB
 45fb27       loc_45FB27
 45fb38       loc_45FB38
 45fb3e       CWinApp::SetCurrentHandles(void)
 45fbbc       loc_45FBBC
 45fbe4       loc_45FBE4
 45fbea       loc_45FBEA
 45fbf3       loc_45FBF3
 45fc28       loc_45FC28
 45fc56       loc_45FC56
 45fc5b       AfxGetFileName(char_const_*,char_*,uint)
 45fc63       loc_45FC63
 45fc76       loc_45FC76
 45fc7f       loc_45FC7F
 45fc8a       loc_45FC8A
 45fc9b       loc_45FC9B
 45fcac       loc_45FCAC
 45fcb1       sub_45FCB1
 45fcd7       loc_45FCD7
 45fce5       loc_45FCE5
 45fcf2       sub_45FCF2
 45fd1c       loc_45FD1C
 45fd28       AfxGetCtl3dState(void)
 45fd42       nullsub_18
 45fd43       loc_45FD43
 45fd4f       loc_45FD4F
 45fd63       nullsub_19
 45fd64       loc_45FD64
 45fd70       loc_45FD70
 45fd84       sub_45FD84
 45fd8e       loc_45FD8E
 45fd9a       loc_45FD9A
 45fda4       AfxEnableWin40Compatibility(void)
 45fdd3       locret_45FDD3
 45fdd4       AfxEnableWin31Compatibility(void)
 45fdf6       AUX_DATA::AUX_DATA(void)
 45fe49       loc_45FE49
 45fe91       AfxInitDBCS(void)
 45feb9       loc_45FEB9
 45fec4       sub_45FEC4
 45fef0       loc_45FEF0
 45ff02       loc_45FF02
 45ff09       sub_45FF09
 45ff3b       loc_45FF3B
 45ff45       loc_45FF45
 45ff56       locret_45FF56
 45ff57       sub_45FF57
 45ff67       loc_45FF67
 45ffac       loc_45FFAC
 45ffb4       loc_45FFB4
 45ffc3       loc_45FFC3
 45ffc7       AfxUnlockGlobals(int)
 45ffe5       locret_45FFE5
 45ffe8       CWinApp::GetAppRegistryKey(void)
 460005       loc_460005
 46005a       loc_46005A
 46006a       loc_46006A
 460074       loc_460074
 46007c       CWinApp::GetSectionKey(char_const_*)
 460097       loc_460097
 4600bc       loc_4600BC
 4600c2       sub_4600C2
 4600c8       sub_4600C8
 4600f5       AfxPostQuitMessage(int)
 46010b       loc_46010B
 460118       CWinThread::~CWinThread(void)
 460141       loc_460141
 46014f       loc_46014F
 460167       loc_460167
 460171       AfxWinTerm(void)
 46018a       loc_46018A
 4601b0       loc_4601B0
 4601d2       loc_4601D2
 4601f7       loc_4601F7
 460214       loc_460214
 460221       loc_460221
 460230       sub_460230
 460238       SEH_401180
 460250       sub_460250
 460258       SEH_4011C0
 460270       unknown_libname_239
 46027b       SEH_401200
 460290       unknown_libname_240
 460298       sub_460298
 4602a0       SEH_401740
 4602b0       unknown_libname_241
 4602b8       sub_4602B8
 4602c0       SEH_401890
 4602d0       unknown_libname_242
 4602db       sub_4602DB
 4602e3       SEH_401E40
 4602f0       unknown_libname_243
 4602f8       sub_4602F8
 460300       unknown_libname_119
 460310       sub_460310
 460318       ?OnDeltapos@CSpin@@IAEXPAUtagNMHDR@@PAJ@Z_SEH
 460330       sub_460330
 460338       SEH_4026D0
 460350       sub_460350
 460358       ?OnMyNcPaint@CUEdit@@QAEJIJ@Z_SEH
 460370       sub_460370
 460378       ?OnNcCalcSize@CUEdit@@QAEXHPAUtagNCCALCSIZE_PARAMS@@@Z_SEH
 460390       sub_460390
 460398       SEH_402B20
 4603b0       sub_4603B0
 4603b8       ?OnKillfocus@CUEdit@@QAEXXZ_SEH
 4603d0       unknown_libname_244
 4603d8       sub_4603D8
 4603e0       ?OnPaint@CUTab@@IAEXXZ_SEH
 4603f0       sub_4603F0
 4603f8       SEH_403700
 460410       unknown_libname_245
 460418       sub_460418
 460420       sub_460420
 460428       sub_460428
 460430       SEH_4037C0
 460440       sub_460440
 460448       SEH_403B30
 460460       unknown_libname_246
 46046b       sub_46046B
 460476       sub_460476
 46047e       sub_46047E
 460489       sub_460489
 460494       sub_460494
 46049c       sub_46049C
 4604a7       sub_4604A7
 4604b2       sub_4604B2
 4604bd       sub_4604BD
 4604c8       sub_4604C8
 4604d3       sub_4604D3
 4604de       ?OnPaint@CULabel@@IAEXXZ_SEH
 4604f0       unknown_libname_247
 4604f8       sub_4604F8
 460500       SEH_404170
 460510       sub_460510
 460518       SEH_404320
 460530       unknown_libname_248
 460538       sub_460538
 460543       sub_460543
 46054e       sub_46054E
 460559       sub_460559
 460564       sub_460564
 46056f       sub_46056F
 46057a       sub_46057A
 460585       sub_460585
 460590       ?OnPaint@CUShapeBox@@IAEXXZ_SEH
 4605a0       sub_4605A0
 4605a8       SEH_404960
 4605c0       sub_4605C0
 4605c8       SEH_405020
 4605e0       unknown_libname_249
 4605eb       SEH_405550
 460600       unknown_libname_250
 460608       sub_460608
 460610       sub_460610
 460618       sub_460618
 460620       sub_460620
 460628       SEH_405700
 460640       sub_460640
 460648       ?OnSelchange@CUFileBox@@IAEXXZ_SEH
 460660       unknown_libname_251
 46066b       SEH_405F40
 460680       unknown_libname_252
 460688       sub_460688
 460693       sub_460693
 46069e       sub_46069E
 4606a9       sub_4606A9
 4606b4       sub_4606B4
 4606bf       __ehhandler$?UpdateDialogControls@CWnd@@QAEXPAVCCmdTarget@@H@Z
 4606d0       sub_4606D0
 4606d8       SEH_406400
 4606f0       unknown_libname_253
 4606fa       ?Create_Timer@@YGKPAEHKPAUHWND__@@IPAUHMENU__@@HHHHKK1H@Z_SEH
 460710       sub_460710
 460718       SEH_406920
 460730       sub_460730
 460738       SEH_406AA0
 460750       sub_460750
 460758       SEH_406E60
 460770       sub_460770
 460778       SEH_407380
 460790       sub_460790
 460798       SEH_4075F0
 4607b0       sub_4607B0
 4607b8       loc_4607B8
 4607d0       sub_4607D0
 4607d8       loc_4607D8
 4607f0       sub_4607F0
 4607f8       ?OnLButtonDblClk@CUChkListBox@@IAEXIVCPoint@@@Z_SEH
 460810       unknown_libname_254
 460818       sub_460818
 460820       sub_460820
 460828       sub_460828
 460830       sub_460830
 460838       SEH_407EA0
 460850       unknown_libname_255
 46085b       sub_46085B
 460866       ?OnPaint@CUDrawPanel@@IAEXXZ_SEH
 460870       unknown_libname_256
 460878       sub_460878
 460880       sub_460880
 460888       sub_460888
 460890       sub_460890
 460898       sub_460898
 4608a0       sub_4608A0
 4608a8       sub_4608A8
 4608b0       sub_4608B0
 4608b8       sub_4608B8
 4608c0       SEH_4084A0
 4608d0       unknown_libname_257
 4608d8       sub_4608D8
 4608e0       ?OnPaint@CUDataSource@@IAEXXZ_SEH
 4608f0       sub_4608F0
 4608f8       ?OnDestroy@CUDataSource@@IAEXXZ_SEH
 460910       sub_460910
 460918       ?OnGetColName@CUDataSource@@IAEJIJ@Z_SEH
 460930       unknown_libname_258
 460938       sub_460938
 460940       sub_460940
 460948       ?OnPaint@CUGrid@@IAEXXZ_SEH
 460960       unknown_libname_259
 460968       sub_460968
 460970       ?OnPaint@CUErrorControl@@IAEXXZ_SEH
 460980       unknown_libname_260
 460988       sub_460988
 460993       __ehhandler$??0CDHtmlElementEventSink@@QAE@PAVCDHtmlEventSink@@PAUIDispatch@@@Z
 4609a0       unknown_libname_261
 4609ab       __ehhandler$??0CDHtmlElementEventSink@@QAE@PAVCDHtmlEventSink@@PAUIDispatch@@@Z_0
 4609c0       unknown_libname_262
 4609cb       sub_4609CB
 4609d6       sub_4609D6
 4609e1       unknown_libname_121
 4609f0       unknown_libname_263
 4609f8       sub_4609F8
 460a06       sub_460A06
 460a14       sub_460A14
 460a22       sub_460A22
 460a30       sub_460A30
 460a3e       sub_460A3E
 460a4c       sub_460A4C
 460a5a       sub_460A5A
 460a68       sub_460A68
 460a76       sub_460A76
 460a84       sub_460A84
 460a92       sub_460A92
 460aa0       sub_460AA0
 460aae       sub_460AAE
 460abc       sub_460ABC
 460aca       sub_460ACA
 460ad8       sub_460AD8
 460ae6       sub_460AE6
 460af4       sub_460AF4
 460b02       sub_460B02
 460b10       sub_460B10
 460b1e       sub_460B1E
 460b2c       sub_460B2C
 460b3a       sub_460B3A
 460b48       sub_460B48
 460b56       sub_460B56
 460b64       sub_460B64
 460b72       sub_460B72
 460b80       sub_460B80
 460b8e       sub_460B8E
 460b9c       sub_460B9C
 460baa       sub_460BAA
 460bb8       unknown_libname_122
 460bd0       unknown_libname_264
 460bd8       sub_460BD8
 460be3       __ehhandler$??0CDHtmlElementEventSink@@QAE@PAVCDHtmlEventSink@@PAUIDispatch@@@Z_1
 460bf0       unknown_libname_265
 460bfb       __ehhandler$??0CDHtmlElementEventSink@@QAE@PAVCDHtmlEventSink@@PAUIDispatch@@@Z_2
 460c10       unknown_libname_266
 460c18       sub_460C18
 460c26       sub_460C26
 460c34       sub_460C34
 460c42       sub_460C42
 460c50       sub_460C50
 460c5e       sub_460C5E
 460c6c       sub_460C6C
 460c7a       sub_460C7A
 460c88       sub_460C88
 460c96       sub_460C96
 460ca4       sub_460CA4
 460cb2       sub_460CB2
 460cc0       sub_460CC0
 460cce       sub_460CCE
 460cdc       sub_460CDC
 460cea       sub_460CEA
 460cf8       sub_460CF8
 460d06       sub_460D06
 460d14       sub_460D14
 460d22       sub_460D22
 460d30       sub_460D30
 460d3e       sub_460D3E
 460d4c       sub_460D4C
 460d5a       sub_460D5A
 460d68       sub_460D68
 460d76       sub_460D76
 460d84       sub_460D84
 460d92       sub_460D92
 460da0       sub_460DA0
 460dae       sub_460DAE
 460dbc       sub_460DBC
 460dca       sub_460DCA
 460dd8       sub_460DD8
 460de6       sub_460DE6
 460dee       sub_460DEE
 460df9       __ehhandler$??0CDHtmlElementEventSink@@QAE@PAVCDHtmlEventSink@@PAUIDispatch@@@Z_3
 460e10       unknown_libname_267
 460e1a       sub_460E1A
 460e22       SEH_40B880
 460e30       unknown_libname_268
 460e38       sub_460E38
 460e40       SEH_40C820
 460e50       sub_460E50
 460e58       unknown_libname_124
 460e70       unknown_libname_269
 460e78       sub_460E78
 460e80       sub_460E80
 460e88       sub_460E88
 460e90       unknown_libname_125
 460ea0       sub_460EA0
 460ea8       unknown_libname_126
 460ec0       unknown_libname_270
 460ec8       sub_460EC8
 460ed0       sub_460ED0
 460ed8       sub_460ED8
 460ee0       unknown_libname_127
 460ef0       sub_460EF0
 460ef8       unknown_libname_128
 460f10       sub_460F10
 460f18       unknown_libname_129
 460f30       sub_460F30
 460f38       unknown_libname_130
 460f50       sub_460F50
 460f58       unknown_libname_131
 460f70       sub_460F70
 460f78       SEH_411170
 460f90       unknown_libname_271
 460f9a       SEH_411980
 460fb0       unknown_libname_272
 460fbb       sub_460FBB
 460fc6       sub_460FC6
 460fce       sub_460FCE
 460fd9       sub_460FD9
 460fe4       sub_460FE4
 460fef       sub_460FEF
 460ffa       sub_460FFA
 461005       sub_461005
 46100d       sub_46100D
 461015       sub_461015
 46101d       sub_46101D
 461028       sub_461028
 461033       sub_461033
 46103b       sub_46103B
 461043       sub_461043
 46104b       sub_46104B
 461056       sub_461056
 461061       sub_461061
 461069       sub_461069
 461071       sub_461071
 461079       SEH_4127A0
 461090       unknown_libname_273
 46109b       sub_46109B
 4610a6       sub_4610A6
 4610b1       sub_4610B1
 4610bc       sub_4610BC
 4610c7       loc_4610C7
 4610e0       unknown_libname_274
 4610eb       sub_4610EB
 4610f6       sub_4610F6
 4610fe       sub_4610FE
 461109       sub_461109
 461114       sub_461114
 46111f       sub_46111F
 461127       sub_461127
 46112f       sub_46112F
 461137       ?LangCnvWinForm@@YGPAXPAEPAHP6GXPADKH@ZH@Z_SEH
 461150       unknown_libname_275
 46115a       ?CreateObject@CWinFormUnit@@SGPAVCObject@@XZ_SEH
 461170       unknown_libname_276
 461178       sub_461178
 461183       sub_461183
 46118e       sub_46118E
 461199       sub_461199
 4611a4       sub_4611A4
 4611b2       SEH_412D20
 4611c0       unknown_libname_277
 4611c8       sub_4611C8
 4611d3       sub_4611D3
 4611e1       sub_4611E1
 4611ef       sub_4611EF
 4611fd       sub_4611FD
 461205       sub_461205
 461210       sub_461210
 46121b       sub_46121B
 461226       sub_461226
 461231       sub_461231
 46123c       SEH_412E80
 461250       unknown_libname_278
 461258       sub_461258
 461260       sub_461260
 461268       sub_461268
 461270       sub_461270
 461278       SEH_413350
 461290       unknown_libname_279
 461298       sub_461298
 4612a3       sub_4612A3
 4612ae       sub_4612AE
 4612b9       sub_4612B9
 4612c4       sub_4612C4
 4612cf       sub_4612CF
 4612da       sub_4612DA
 4612e5       ?OnPaint@CWinFormUnit@@IAEXXZ_SEH
 4612f0       unknown_libname_280
 4612f8       sub_4612F8
 461300       sub_461300
 461308       SEH_4143D0
 461320       unknown_libname_281
 461328       sub_461328
 461330       sub_461330
 461338       sub_461338
 461340       SEH_414ED0
 461350       unknown_libname_282
 461358       sub_461358
 461360       __ehhandler$?GetPredefinedStrings@XPerPropertyBrowsing@COleControl@@UAGJJPAUtagCALPOLESTR@@PAUtagCADWORD@@@Z
 461370       sub_461370
 461378       SEH_416A10
 461390       sub_461390
 461398       SEH_416E60
 4613b0       sub_4613B0
 4613b8       SEH_416EF0
 4613d0       sub_4613D0
 4613d8       unknown_libname_132
 4613f0       unknown_libname_283
 4613f8       sub_4613F8
 46140e       locret_46140E
 46140f       unknown_libname_133
 461420       unknown_libname_284
 461428       SEH_4177C0
 461440       unknown_libname_285
 461448       sub_461448
 461453       sub_461453
 46145e       sub_46145E
 461469       sub_461469
 461474       sub_461474
 46147f       sub_46147F
 46148a       unknown_libname_134
 461495       SEH_4178B0
 4614a0       sub_4614A0
 4614a8       SEH_417F90
 4614c0       sub_4614C0
 4614c8       SEH_418110
 4614e0       unknown_libname_286
 4614f6       locret_4614F6
 4614f7       ?OnDestroy@CBrowDlg@@IAEXXZ_SEH
 461510       unknown_libname_287
 461518       sub_461518
 461520       unknown_libname_135
 461530       unknown_libname_288
 461538       sub_461538
 461540       sub_461540
 461548       sub_461548
 461550       sub_461550
 46155b       sub_46155B
 461563       sub_461563
 46156e       SEH_418CB0
 461580       unknown_libname_289
 46158b       sub_46158B
 461596       sub_461596
 4615a1       sub_4615A1
 4615ac       sub_4615AC
 4615b7       sub_4615B7
 4615c2       SEH_419540
 4615d0       unknown_libname_290
 4615d8       sub_4615D8
 4615e3       sub_4615E3
 4615ee       sub_4615EE
 4615fc       sub_4615FC
 46160a       SEH_419770
 461620       sub_461620
 461628       ?OnKillfocus@CFieldEdit@@IAEXXZ_SEH
 461640       sub_461640
 461648       ?OnPaint@CFieldLabel@@IAEXXZ_SEH
 461660       unknown_libname_291
 461668       sub_461668
 461673       sub_461673
 46167e       sub_46167E
 46168c       sub_46168C
 46169a       SEH_419D00
 4616b0       unknown_libname_292
 4616bb       sub_4616BB
 4616c6       sub_4616C6
 4616d1       SEH_419E30
 4616e0       unknown_libname_293
 4616ea       SEH_41A0B0
 461700       unknown_libname_294
 46170b       sub_46170B
 461716       sub_461716
 461721       sub_461721
 46172c       SEH_41A460
 461740       sub_461740
 461748       SEH_41A850
 461760       sub_461760
 461768       unknown_libname_136
 461780       sub_461780
 461788       unknown_libname_137
 4617a0       sub_4617A0
 4617a8       SEH_41AF30
 4617c0       sub_4617C0
 4617c8       SEH_41B170
 4617e0       unknown_libname_295
 4617e8       sub_4617E8
 4617f0       sub_4617F0
 4617f8       sub_4617F8
 461800       sub_461800
 461808       sub_461808
 461810       sub_461810
 461818       sub_461818
 461820       SEH_41B270
 461830       sub_461830
 461838       SEH_41B5F0
 461850       unknown_libname_296
 461858       sub_461858
 461860       sub_461860
 461868       sub_461868
 461870       SEH_41B630
 461880       unknown_libname_297
 46188b       sub_46188B
 461896       SEH_41B780
 4618a0       sub_4618A0
 4618a8       SEH_41B840
 4618c0       sub_4618C0
 4618c8       SEH_41C4D0
 4618e0       unknown_libname_298
 4618e8       sub_4618E8
 4618f3       sub_4618F3
 4618fe       sub_4618FE
 461909       sub_461909
 461914       SEH_41C840
 461920       sub_461920
 461928       SEH_41CDD0
 461940       sub_461940
 461948       SEH_41DEB0
 461960       sub_461960
 461968       SEH_41DFD0
 461980       unknown_libname_299
 461988       sub_461988
 461993       __ehhandler$?OnToolTipText@CFrameWnd@@IAEHIPAUtagNMHDR@@PAJ@Z
 4619a0       sub_4619A0
 4619a8       ?OnPaint@CPicWnd@@IAEXXZ_SEH
 4619c0       unknown_libname_300
 4619c8       SEH_41E820
 4619e0       sub_4619E0
 4619e8       SEH_41EA00
 461a00       unknown_libname_301
 461a0b       sub_461A0B
 461a16       sub_461A16
 461a21       unknown_libname_138
 461a30       unknown_libname_302
 461a3b       sub_461A3B
 461a46       sub_461A46
 461a51       unknown_libname_139
 461a60       sub_461A60
 461a68       ?OnDataIncoming@CUDPSockWnd@@IAEJIJ@Z_SEH
 461a80       unknown_libname_303
 461a88       sub_461A88
 461a90       __ehhandler$?GetPredefinedStrings@XPerPropertyBrowsing@COleControl@@UAGJJPAUtagCALPOLESTR@@PAUtagCADWORD@@@Z_0
 461aa0       unknown_libname_304
 461aa8       sub_461AA8
 461ab0       sub_461AB0
 461ab8       __ehhandler$?GetPredefinedStrings@XPerPropertyBrowsing@COleControl@@UAGJJPAUtagCALPOLESTR@@PAUtagCADWORD@@@Z_1
 461ad0       unknown_libname_305
 461ad9       sub_461AD9
 461ae2       ?OnHasEvent@CSerial@@IAEJIJ@Z_SEH
 461af0       sub_461AF0
 461af8       SEH_421DC0
 461b10       sub_461B10
 461b18       SEH_421E60
 461b30       sub_461B30
 461b38       SEH_421EF0
 461b50       unknown_libname_306
 461b58       SEH_4220D0
 461b70       unknown_libname_307
 461b78       SEH_4221B0
 461b90       unknown_libname_308
 461b98       sub_461B98
 461ba0       SEH_422270
 461bb0       unknown_libname_309
 461bb8       sub_461BB8
 461bc0       SEH_422460
 461bd0       unknown_libname_310
 461bdb       sub_461BDB
 461be6       sub_461BE6
 461bf1       sub_461BF1
 461bfc       sub_461BFC
 461c07       sub_461C07
 461c12       sub_461C12
 461c1d       sub_461C1D
 461c28       sub_461C28
 461c33       sub_461C33
 461c3e       sub_461C3E
 461c49       sub_461C49
 461c54       sub_461C54
 461c5f       sub_461C5F
 461c6a       sub_461C6A
 461c75       sub_461C75
 461c80       sub_461C80
 461c8b       sub_461C8B
 461c96       sub_461C96
 461ca1       sub_461CA1
 461cac       sub_461CAC
 461cb7       sub_461CB7
 461cc2       sub_461CC2
 461ccd       sub_461CCD
 461cd8       sub_461CD8
 461ce3       sub_461CE3
 461ceb       sub_461CEB
 461cf6       sub_461CF6
 461d01       sub_461D01
 461d0c       sub_461D0C
 461d17       sub_461D17
 461d22       sub_461D22
 461d2d       sub_461D2D
 461d38       sub_461D38
 461d43       sub_461D43
 461d4e       sub_461D4E
 461d59       sub_461D59
 461d64       sub_461D64
 461d6f       sub_461D6F
 461d7a       sub_461D7A
 461d85       sub_461D85
 461d90       sub_461D90
 461d9b       sub_461D9B
 461da6       sub_461DA6
 461db1       sub_461DB1
 461dbc       sub_461DBC
 461dc7       sub_461DC7
 461dd2       sub_461DD2
 461ddd       sub_461DDD
 461de8       sub_461DE8
 461df3       sub_461DF3
 461dfb       SEH_422620
 461e10       unknown_libname_311
 461e18       sub_461E18
 461e23       sub_461E23
 461e31       sub_461E31
 461e3f       sub_461E3F
 461e4d       sub_461E4D
 461e5b       sub_461E5B
 461e69       sub_461E69
 461e77       sub_461E77
 461e85       sub_461E85
 461e93       sub_461E93
 461ea1       sub_461EA1
 461eaf       sub_461EAF
 461ebd       sub_461EBD
 461ecb       sub_461ECB
 461ed9       sub_461ED9
 461ee7       sub_461EE7
 461ef5       sub_461EF5
 461f03       sub_461F03
 461f11       sub_461F11
 461f1f       sub_461F1F
 461f2d       sub_461F2D
 461f3b       sub_461F3B
 461f49       sub_461F49
 461f57       sub_461F57
 461f65       SEH_422B10
 461f70       unknown_libname_312
 461f7b       sub_461F7B
 461f86       sub_461F86
 461f91       sub_461F91
 461f9c       sub_461F9C
 461fa7       sub_461FA7
 461fb2       loc_461FB2
 461fc0       sub_461FC0
 461fc8       SEH_4230F0
 461fe0       sub_461FE0
 461fe8       SEH_423510
 462000       unknown_libname_313
 46200b       sub_46200B
 462016       sub_462016
 462021       SEH_423750
 462030       unknown_libname_314
 46203b       sub_46203B
 462046       __ehhandler$??0CDaoDatabase@@QAE@PAVCDaoWorkspace@@@Z
 462050       sub_462050
 462058       SEH_423BC0
 462070       sub_462070
 462078       unknown_libname_140
 462090       sub_462090
 462098       unknown_libname_141
 4620b0       sub_4620B0
 4620b8       unknown_libname_142
 4620d0       sub_4620D0
 4620d8       SEH_4243A0
 4620f0       sub_4620F0
 4620f8       SEH_424480
 462110       sub_462110
 462118       SEH_424560
 462130       sub_462130
 462138       SEH_424640
 462150       sub_462150
 462158       SEH_424770
 462170       unknown_libname_315
 46217b       sub_46217B
 462186       sub_462186
 462191       sub_462191
 46219c       sub_46219C
 4621a7       sub_4621A7
 4621b2       sub_4621B2
 4621bd       sub_4621BD
 4621c8       sub_4621C8
 4621d3       sub_4621D3
 4621de       sub_4621DE
 4621e9       sub_4621E9
 4621f4       sub_4621F4
 4621ff       sub_4621FF
 46220a       sub_46220A
 462215       sub_462215
 462220       sub_462220
 46222b       sub_46222B
 462236       sub_462236
 462241       sub_462241
 46224c       sub_46224C
 462257       sub_462257
 462262       sub_462262
 46226d       sub_46226D
 462278       sub_462278
 462283       sub_462283
 46228e       sub_46228E
 462299       sub_462299
 4622a4       sub_4622A4
 4622af       SEH_424D30
 4622c0       unknown_libname_316
 4622c8       sub_4622C8
 4622d0       sub_4622D0
 4622d8       sub_4622D8
 4622e0       sub_4622E0
 4622e8       SEH_426470
 462300       sub_462300
 462308       SEH_426730
 462320       unknown_libname_317
 462328       sub_462328
 462330       SEH_426D10
 462340       unknown_libname_318
 462348       sub_462348
 462350       sub_462350
 462358       sub_462358
 462360       SEH_426FC0
 462370       unknown_libname_319
 462378       sub_462378
 462380       SEH_4274B0
 462390       unknown_libname_320
 462398       sub_462398
 4623a0       sub_4623A0
 4623ab       sub_4623AB
 4623b6       sub_4623B6
 4623c1       sub_4623C1
 4623cc       sub_4623CC
 4623d7       sub_4623D7
 4623e2       sub_4623E2
 4623ed       sub_4623ED
 4623f5       SEH_427620
 462400       unknown_libname_321
 462408       sub_462408
 462410       sub_462410
 462418       sub_462418
 462420       SEH_427F60
 462430       sub_462430
 462438       SEH_428340
 462450       unknown_libname_322
 462458       sub_462458
 462460       SEH_4286A0
 462470       unknown_libname_323
 462478       sub_462478
 462480       ?OnLButtonDown@CMGrid@@IAEXIVCPoint@@@Z_SEH
 462490       unknown_libname_324
 462498       sub_462498
 4624a0       SEH_4290D0
 4624b0       unknown_libname_325
 4624b8       sub_4624B8
 4624c0       SEH_4294B0
 4624d0       unknown_libname_326
 4624d8       sub_4624D8
 4624e0       sub_4624E0
 4624e8       sub_4624E8
 4624f0       sub_4624F0
 4624f8       SEH_429710
 462510       unknown_libname_327
 462518       sub_462518
 462520       ?OnEndInPlaceEdit@CMGrid@@IAEXPAUtagNMHDR@@PAJ@Z_SEH
 462530       sub_462530
 462538       ?OnChar@CMGrid@@IAEXIII@Z_SEH
 462550       sub_462550
 462558       SEH_42A010
 462570       unknown_libname_328
 462578       sub_462578
 462580       sub_462580
 462588       sub_462588
 462592       sub_462592
 46259a       SEH_42A260
 4625b0       unknown_libname_329
 4625b8       sub_4625B8
 4625c0       SEH_42A560
 4625d0       sub_4625D0
 4625d8       SEH_42A750
 4625f0       unknown_libname_330
 4625fb       sub_4625FB
 462606       sub_462606
 462611       sub_462611
 462619       SEH_42AA30
 462630       unknown_libname_331
 462638       sub_462638
 462643       sub_462643
 462651       SEH_42AB30
 462660       unknown_libname_332
 46266b       __ehhandler$??0CDHtmlElementEventSink@@QAE@PAVCDHtmlEventSink@@PAUIDispatch@@@Z_4
 462680       sub_462680
 462688       SEH_42AE70
 4626a0       sub_4626A0
 4626a8       unknown_libname_143
 4626c0       sub_4626C0
 4626c8       unknown_libname_144
 4626e0       unknown_libname_333
 4626e8       sub_4626E8
 4626f0       SEH_42B500
 462700       unknown_libname_334
 46270e       unknown_libname_146
 462720       sub_462720
 462728       unknown_libname_147
 462740       sub_462740
 462748       SEH_42BE20
 462760       unknown_libname_335
 462768       sub_462768
 462770       SEH_42C070
 462780       sub_462780
 462788       unknown_libname_150
 4627a0       unknown_libname_336
 4627a8       sub_4627A8
 4627b0       SEH_42C4E0
 4627c0       sub_4627C0
 4627c8       unknown_libname_152
 4627e0       sub_4627E0
 4627e8       unknown_libname_153
 462800       sub_462800
 462808       unknown_libname_154
 462820       sub_462820
 462828       unknown_libname_155
 462840       sub_462840
 462848       unknown_libname_156
 462860       unknown_libname_337
 46286b       sub_46286B
 462876       unknown_libname_157
 462880       sub_462880
 462888       unknown_libname_158
 4628a0       unknown_libname_338
 4628a8       sub_4628A8
 4628b0       __ehhandler$?GetPredefinedStrings@XPerPropertyBrowsing@COleControl@@UAGJJPAUtagCALPOLESTR@@PAUtagCADWORD@@@Z_2
 4628c0       sub_4628C0
 4628c8       unknown_libname_159
 4628e0       unknown_libname_339
 4628e8       sub_4628E8
 4628f0       __ehhandler$?GetPredefinedStrings@XPerPropertyBrowsing@COleControl@@UAGJJPAUtagCALPOLESTR@@PAUtagCADWORD@@@Z_3
 462900       unknown_libname_340
 462908       sub_462908
 462910       __ehhandler$?GetPredefinedStrings@XPerPropertyBrowsing@COleControl@@UAGJJPAUtagCALPOLESTR@@PAUtagCADWORD@@@Z_4
 462920       unknown_libname_341
 462928       sub_462928
 462933       sub_462933
 46293e       sub_46293E
 462949       ?OnPaint@CRgnBtn@@IAEXXZ_SEH
 462960       unknown_libname_342
 462968       sub_462968
 462973       sub_462973
 46297e       SEH_42EE20
 462990       unknown_libname_343
 462998       sub_462998
 4629a3       SEH_42EEF0
 4629b0       unknown_libname_344
 4629ba       ?CreateObject@CColourPicker@@SGPAVCObject@@XZ_SEH
 4629d0       unknown_libname_345
 4629da       ?OnLButtonUp@CColourPicker@@IAEXIVCPoint@@@Z_SEH
 4629f0       unknown_libname_346
 4629f8       sub_4629F8
 462a00       sub_462A00
 462a08       sub_462A08
 462a10       SEH_42F230
 462a20       sub_462A20
 462a28       unknown_libname_161
 462a40       sub_462A40
 462a48       unknown_libname_162
 462a60       sub_462A60
 462a68       ?OnPaint@CGifWnd@@IAEXXZ_SEH
 462a80       unknown_libname_347
 462a88       sub_462A88
 462a90       sub_462A90
 462a98       SEH_42FE10
 462ab0       sub_462AB0
 462ab8       SEH_430160
 462ad0       sub_462AD0
 462ad8       unknown_libname_163
 462af0       unknown_libname_348
 462af8       sub_462AF8
 462b00       sub_462B00
 462b08       sub_462B08
 462b13       sub_462B13
 462b1b       sub_462B1B
 462b23       sub_462B23
 462b2b       sub_462B2B
 462b33       SEH_4324F0
 462b40       sub_462B40
 462b48       SEH_432A40
 462b60       sub_462B60
 462b68       unknown_libname_165
 462b80       unknown_libname_349
 462b88       sub_462B88
 462b90       SEH_433AA0
 462ba0       unknown_libname_350
 462ba8       sub_462BA8
 462bb3       sub_462BB3
 462bc1       sub_462BC1
 462bcf       sub_462BCF
 462bdd       sub_462BDD
 462beb       sub_462BEB
 462bf9       sub_462BF9
 462c07       sub_462C07
 462c15       sub_462C15
 462c23       sub_462C23
 462c31       sub_462C31
 462c3f       sub_462C3F
 462c4d       sub_462C4D
 462c5b       sub_462C5B
 462c69       sub_462C69
 462c77       sub_462C77
 462c85       sub_462C85
 462c93       sub_462C93
 462ca1       sub_462CA1
 462caf       sub_462CAF
 462cbd       sub_462CBD
 462ccb       sub_462CCB
 462cd9       sub_462CD9
 462ce7       sub_462CE7
 462cf5       SEH_433FE0
 462d00       unknown_libname_351
 462d08       sub_462D08
 462d10       unknown_libname_166
 462d20       unknown_libname_352
 462d2b       sub_462D2B
 462d36       sub_462D36
 462d41       ?OnSetPrintIntoFile@CPrinterSetup@@IAEXXZ_SEH
 462d50       sub_462D50
 462d58       SEH_434720
 462d70       sub_462D70
 462d78       SEH_4350E0
 462d90       unknown_libname_353
 462d98       sub_462D98
 462da0       sub_462DA0
 462da8       ?OnPaint@CPreviewDlg@@IAEXXZ_SEH
 462dc0       unknown_libname_354
 462dcb       sub_462DCB
 462dd6       sub_462DD6
 462de1       __ehhandler$?HttpExtensionProc@CHttpServer@@UAEKPAU_EXTENSION_CONTROL_BLOCK@@@Z
 462df0       unknown_libname_355
 462df8       sub_462DF8
 462e03       SEH_435E10
 462e10       sub_462E10
 462e18       SEH_436020
 462e30       sub_462E30
 462e38       SEH_4361A0
 462e50       unknown_libname_356
 462e58       sub_462E58
 462e63       sub_462E63
 462e6e       sub_462E6E
 462e79       unknown_libname_167
 462e84       ?OnPaint@CPreviewWnd@@IAEXXZ_SEH
 462e90       unknown_libname_357
 462e98       sub_462E98
 462ea3       SEH_4369F0
 462eb0       unknown_libname_358
 462eb8       sub_462EB8
 462ec0       SEH_436B50
 462ed0       unknown_libname_359
 462ed8       sub_462ED8
 462ee0       SEH_436C70
 462ef0       sub_462EF0
 462ef8       SEH_436FF0
 462f10       unknown_libname_360
 462f18       sub_462F18
 462f23       SEH_437120
 462f30       unknown_libname_361
 462f3b       sub_462F3B
 462f46       sub_462F46
 462f51       sub_462F51
 462f5c       sub_462F5C
 462f67       sub_462F67
 462f72       __ehhandler$?OnToolTipText@CFrameWnd@@IAEHIPAUtagNMHDR@@PAJ@Z_0
 462f80       unknown_libname_362
 462f88       sub_462F88
 462f93       sub_462F93
 462f9e       sub_462F9E
 462fac       sub_462FAC
 462fba       sub_462FBA
 462fc8       SEH_437AC0
 462fe0       unknown_libname_363
 462fe8       sub_462FE8
 462ff3       sub_462FF3
 462ffe       sub_462FFE
 46300c       sub_46300C
 46301a       sub_46301A
 463028       sub_463028
 463030       sub_463030
 463038       SEH_437CE0
 463050       sub_463050
 463058       SEH_437DA0
 463070       sub_463070
 463078       ?OnPaint@CColourPopup@@IAEXXZ_SEH
 463090       sub_463090
 463098       SEH_438650
 4630b0       sub_4630B0
 4630b8       SEH_438980
 4630d0       unknown_libname_364
 4630db       SEH_438A70
 4630f0       unknown_libname_365
 4630f8       sub_4630F8
 463100       sub_463100
 463108       sub_463108
 463110       sub_463110
 463118       sub_463118
 463120       SEH_438B80
 463130       unknown_libname_366
 463138       sub_463138
 463143       SEH_439920
 463150       sub_463150
 463158       SEH_439A50
 463164       unknown_libname_169
 46316c       sub_46316C
 463182       locret_463182
 463183       loc_463183
 463190       unknown_libname_170
 463198       sub_463198
 4631ae       locret_4631AE
 4631af       loc_4631AF
 4631bc       unknown_libname_171
 4631c4       sub_4631C4
 4631da       locret_4631DA
 4631db       loc_4631DB
 4631e8       sub_4631E8
 4631fe       locret_4631FE
 4631ff       sub_4631FF
 463207       loc_463207
 463214       sub_463214
 46322a       locret_46322A
 46322b       sub_46322B
 463233       loc_463233
 463240       sub_463240
 463249       loc_463249
 463254       unknown_libname_172
 46325c       unknown_libname_367
 463267       loc_463267
 463274       sub_463274
 46327c       loc_46327C
 463288       sub_463288
 463290       loc_463290
 46329c       unknown_libname_173
 4632a6       unknown_libname_81
 4632b0       sub_4632B0
 4632b8       loc_4632B8
 4632c4       sub_4632C4
 4632cc       loc_4632CC
 4632d8       sub_4632D8
 4632e0       loc_4632E0
 4632ec       sub_4632EC
 4632f4       loc_4632F4
 463300       sub_463300
 463308       loc_463308
 463314       sub_463314
 46331c       loc_46331C
 463328       sub_463328
 463330       loc_463330
 46333c       unknown_libname_174
 463346       unknown_libname_82
 463350       sub_463350
 463358       loc_463358
 463364       sub_463364
 46336c       loc_46336C
 463378       sub_463378
 463380       loc_463380
 46338c       sub_46338C
 463394       loc_463394
 4633a0       unknown_libname_175
 4633a8       sub_4633A8
 4633b0       loc_4633B0
 4633bc       loc_4633BC
 4633c8       loc_4633C8
 4633d4       unknown_libname_176
 4633de       unknown_libname_83
 4633e8       loc_4633E8
 4633f4       sub_4633F4
 4633fc       loc_4633FC
 463408       loc_463408
 463414       sub_463414
 46341c       loc_46341C
 463428       unknown_libname_177
 463430       sub_463430
 463438       sub_463438
 463440       loc_463440
 46344c       sub_46344C
 463454       loc_463454
 463460       loc_463460
 46346c       sub_46346C
 463475       loc_463475
 463480       unknown_libname_178
 46348a       unknown_libname_84
 463494       sub_463494
 46349d       loc_46349D
 4634a8       sub_4634A8
 4634b0       loc_4634B0
 4634bc       sub_4634BC
 4634c4       loc_4634C4
 4634d0       sub_4634D0
 4634d8       loc_4634D8
 4634e4       sub_4634E4
 4634ec       loc_4634EC
 4634f8       sub_4634F8
 463500       loc_463500
 46350c       unknown_libname_179
 463514       sub_463514
 46351c       sub_46351C
 463524       loc_463524
 463530       sub_463530
 463538       loc_463538
 463544       sub_463544
 46354d       loc_46354D
 463558       unknown_libname_180
 463560       sub_463560
 46356e       loc_46356E
 463578       sub_463578
 463580       loc_463580
 46358c       sub_46358C
 463594       loc_463594
 4635a0       sub_4635A0
 4635a8       sub_4635A8
 4635b6       __ehhandler$??1AFX_MODULE_STATE@@UAE@XZ
 4635c0       sub_4635C0
 4635c8       loc_4635C8
 4635d4       sub_4635D4
 4635dc       loc_4635DC
 4635e8       loc_4635E8
 4635f4       unknown_libname_181
 4635fc       sub_4635FC
 463612       locret_463612
 463613       loc_463613
 463620       unknown_libname_182
 463628       sub_463628
 46363e       locret_46363E
 46363f       loc_46363F
 46364c       sub_46364C
 463654       loc_463654
 463660       sub_463660
 463668       loc_463668
 463674       sub_463674
 46367c       loc_46367C
 463688       unknown_libname_183
 463690       sub_463690
 4636a6       locret_4636A6
 4636a7       loc_4636A7
 4636b4       sub_4636B4
 4636bc       loc_4636BC
 4636c8       unknown_libname_184
 4636d2       unknown_libname_85
 4636dc       sub_4636DC
 4636e4       loc_4636E4
 4636f0       sub_4636F0
 4636fb       loc_4636FB
 463708       sub_463708
 463713       loc_463713
 463720       sub_463720
 463728       sub_463728
 463730       loc_463730
 46373c       unknown_libname_185
 463745       sub_463745
 46374d       sub_46374D
 463758       loc_463758
 463764       sub_463764
 46376c       loc_46376C
 463778       sub_463778
 463780       loc_463780
 46378c       sub_46378C
 463794       loc_463794
 4637a0       sub_4637A0
 4637a8       loc_4637A8
 4637b4       sub_4637B4
 4637bc       loc_4637BC
 4637c8       sub_4637C8
 4637d0       loc_4637D0
 4637dc       unknown_libname_186
 4637e6       unknown_libname_86
 4637f0       sub_4637F0
 4637f8       loc_4637F8
 463804       sub_463804
 46380c       loc_46380C
 463818       sub_463818
 463820       loc_463820
 46382c       sub_46382C
 463834       loc_463834
 463840       sub_463840
 463848       sub_463848
 463850       loc_463850
 46385c       unknown_libname_187
 463865       sub_463865
 46386d       sub_46386D
 463878       loc_463878
 463884       sub_463884
 46388c       loc_46388C
 463898       sub_463898
 4638a0       loc_4638A0
 4638ac       unknown_libname_368
 4638b4       sub_4638B4
 4638bf       loc_4638BF
 4638cc       sub_4638CC
 4638d4       loc_4638D4
 4638e0       loc_4638E0
 4638ec       loc_4638EC
 4638f8       unknown_libname_369
 463903       unknown_libname_87
 46390e       loc_46390E
 463918       loc_463918
 463924       unknown_libname_370
 46392f       unknown_libname_88
 46393a       loc_46393A
 463944       sub_463944
 46394c       loc_46394C
 463958       sub_463958
 463960       loc_463960
 46396c       sub_46396C
 463974       loc_463974
 4016a0       dword_4646A0
 4016a4       dword_4646A4
 4016a8       dword_4646A8
 4016ac       lp_yCFnOnTimerEvent
 4016b0       off_4646B0
 4016b4       dword_4646B4
 4016b8       off_4646B8
 4016bc       dword_4646BC
 4016c0       dword_4646C0
 4016c4       off_4646C4
 4016c8       dword_4646C8
 4016cc       dword_4646CC
 4016d0       dword_4646D0
 4016d4       off_4646D4
 4016d8       dword_4646D8
 401768       aD09f2340818511d396f6aaf844c7e325
 401789       aZT
 40261c       off_46561C
 402638       off_465638
 40263c       off_46563C
 402640       off_465640
 402644       aThisIsATestStr
 40265c       asc_46565C
 402780       dbl_465780
 402788       dbl_465788
 402790       dbl_465790
 402798       dbl_465798
 4027a0       dbl_4657A0
 4027a8       dbl_4657A8
 4027b0       off_4657B0
 4027b4       off_4657B4
 4027b8       dbl_4657B8
 4027c0       dbl_4657C0
 4027c8       dbl_4657C8
 4027d0       off_4657D0
 4027d8       off_4657D8
 402838       unk_465838
 403490       off_466490
 403498       unk_466498
 403f90       off_466F90
 403f98       unk_466F98
 403fb0       off_466FB0
 403fb8       unk_466FB8
 403fe8       off_466FE8
 403ff0       off_466FF0
 403ffc       off_466FFC
 4040b8       off_4670B8
 404170       off_467170
 404178       off_467178
 404190       off_467190
 4041a8       off_4671A8
 404244       off_467244
 4042fc       off_4672FC
 404300       lpCWinIDManger__Serialize_lpCArchive_
 40430c       lpCIDDWordManger_Serialize_lpCArchive_
 404318       strCWinFormUnit
 404330       off_467330
 404338       unk_467338
 404560       off_467560
 404568       off_467568
 404620       dbl_467620
 404628       dbl_467628
 404630       flt_467630
 404638       dbl_467638
 404640       dbl_467640
 404648       dbl_467648
 404658       unk_467658
 404888       off_467888
 404890       unk_467890
 404920       off_467920
 4049f0       off_4679F0
 4049fc       flt_4679FC
 404a00       off_467A00
 404a08       unk_467A08
 404a38       off_467A38
 404a40       off_467A40
 404a48       off_467A48
 404a68       unk_467A68
 404b40       off_467B40
 404b50       unk_467B50
 404cf0       off_467CF0
 404cf4       off_467CF4
 404d00       unk_467D00
 404db0       off_467DB0
 404dc8       off_467DC8
 404dd0       unk_467DD0
 404e78       off_467E78
 404f38       off_467F38
 404f40       unk_467F40
 404f70       off_467F70
 40502c       off_46802C
 405038       unk_468038
 405230       off_468230
 405300       dbl_468300
 405308       dbl_468308
 405310       dbl_468310
 405318       dbl_468318
 405320       dbl_468320
 405328       dbl_468328
 405330       dbl_468330
 405338       dbl_468338
 405340       dbl_468340
 405348       dbl_468348
 405350       dbl_468350
 405358       dbl_468358
 405360       dbl_468360
 405368       dbl_468368
 405378       unk_468378
 405560       off_468560
 405568       unk_468568
 405628       off_468628
 4056e0       off_4686E0
 4056e8       unk_4686E8
 405718       off_468718
 4057e8       off_4687E8
 4057f0       unk_4687F0
 4058e0       off_4688E0
 405998       off_468998
 4059a0       off_4689A0
 4059a8       unk_4689A8
 4059c0       off_4689C0
 405a90       dword_468A90
 405a98       dword_468A98
 405aa0       dword_468AA0
 405ba0       unk_468BA0
 405be0       dword_468BE0
 405c20       dword_468C20
 405c60       dword_468C60
 405ca0       dword_468CA0
 405ce0       unk_468CE0
 405d60       unk_468D60
 405da0       unk_468DA0
 405ea0       unk_468EA0
 405eac       flt_468EAC
 405eb0       flt_468EB0
 405eb4       flt_468EB4
 405eb8       flt_468EB8
 405ec0       dword_468EC0
 405ec4       dword_468EC4
 405ec8       dword_468EC8
 405ecc       dword_468ECC
 405ed0       unk_468ED0
 405ee0       unk_468EE0
 405f50       a_F
 405f58       aI64
 405f60       dbl_468F60
 405f68       dbl_468F68
 405f70       off_468F70
 405f88       aCnotsupportede
 405fa0       off_468FA0
 405fb8       aCmemoryexcepti
 405fe8       aCexception
 405ff8       off_468FF8
 406010       off_469010
 406028       off_469028
 406040       aCfile
 40604c       off_46904C
 4060a4       off_4690A4
 4060b8       off_4690B8
 4060d0       aCmemfile
 4060e0       off_4690E0
 406148       off_469148
 406160       aCtempgdiobject
 406170       off_469170
 406188       aCtempdc
 406190       off_469190
 4061a8       aCrgn
 4061b0       off_4691B0
 4061c8       aCpalette
 4061d8       off_4691D8
 4061f0       aCbitmap
 4061f8       off_4691F8
 406210       aCfont
 406218       off_469218
 406230       aCbrush
 406238       off_469238
 406250       aCpen
 406258       off_469258
 406270       aCgdiobject
 406280       off_469280
 406298       aCpaintdc
 4062a8       off_4692A8
 4062c0       aCwindowdc
 4062d0       off_4692D0
 4062e8       aCclientdc
 4062f8       off_4692F8
 406310       off_469310
 406318       off_469318
 406330       aCuserexception
 406340       off_469340
 406358       aCresourceexcep
 406370       off_469370
 4063e8       off_4693E8
 406460       off_469460
 4064d8       off_4694D8
 406550       off_469550
 406560       off_469560
 406570       off_469570
 406580       off_469580
 4065f8       off_4695F8
 406608       off_469608
 406620       off_469620
 406638       off_469638
 406650       aCdialog
 406658       off_469658
 406660       unk_469660
 406738       aEdit
 406744       off_469744
 406814       aHelv
 40681c       aMsSansSerif
 40682c       aMsShellDlg
 406840       off_469840
 406858       aCtempwnd
 406868       off_469868
 406880       aCwnd
 406888       off_469888
 406890       unk_469890
 406b30       aAfxoldwndproc4
 406b44       aAfxwnd42s
 406b50       aAfxcontrolbar4
 406b64       aAfxmdiframe42s
 406b74       aAfxframeorview
 406b88       aAfxolecontrol4
 406b9c       aGetmonitorinfo
 406bac       aEnumdisplaymon
 406bc0       aMonitorfrompoi
 406bd4       aMonitorfromrec
 406be4       aMonitorfromwin
 406bf8       aGetsystemmetri
 406c0c       ModuleName
 406c14       aCommctrl_dragl
 406c30       off_469C30
 406ce8       aIme
 406cec       aAfxXXXXX
 406d00       aAfxXX
 406d10       off_469D10
 406d20       aInitcommoncont
 406d38       aComctl32_dll_0
 406d4c       off_469D4C
 406e08       off_469E08
 406e10       off_469E10
 406e28       aCptrarray
 406e38       off_469E38
 406e48       off_469E48
 406e60       aCedit
 406e68       off_469E68
 406e80       aCcombobox
 406e90       off_469E90
 406ea8       aCbutton
 406eb0       off_469EB0
 406ec8       aCstatic
 406ed4       off_469ED4
 406f90       off_469F90
 407050       off_46A050
 40711c       off_46A11C
 4071e0       unk_46A1E0
 40734c       off_46A34C
 40735c       off_46A35C
 407364       off_46A364
 407370       off_46A370
 407388       aCfiledialog
 407398       off_46A398
 407488       off_46A488
 407490       off_46A490
 407498       off_46A498
 4074a0       off_46A4A0
 4074a4       aCstringarray
 4074b8       off_46A4B8
 4074c8       off_46A4C8
 4074d0       off_46A4D0
 4074e8       aCwinapp
 4074f0       off_46A4F0
 4074f8       unk_46A4F8
 407558       ValueName
 407568       aSettings
 407578       off_46A578
 407580       off_46A580
 407620       off_46A620
 407638       aCtempimagelist
 407648       off_46A648
 407660       aCimagelist
 407670       off_46A670
 407688       aCprogressctrl
 4076a0       unk_46A6A0
 40770c       off_46A70C
 4077c8       off_46A7C8
 4077d8       off_46A7D8
 4077e8       off_46A7E8
 407800       aCarchiveexcept
 407818       off_46A818
 407830       off_46A830
 407848       aCsharedfile
 407858       off_46A858
 4078d8       aCcmdtarget
 4078e4       unk_46A8E4
 4078f0       unk_46A8F0
 407910       unk_46A910
 407940       unk_46A940
 407978       unk_46A978
 407990       unk_46A990
 4079a0       unk_46A9A0
 4079b8       off_46A9B8
 4079c8       off_46A9C8
 4079e0       aCwinthread
 4079f0       off_46A9F0
 407a70       off_46AA70
 407a78       off_46AA78
 407a90       aCtempmenu
 407aa0       off_46AAA0
 407ab8       aCmenu
 407ac4       off_46AAC4
 407adc       off_46AADC
 407af0       aCombobox
 407afc       aCdwordarray
 407b0c       off_46AB0C
 407b18       aCwordarray
 407b28       off_46AB28
 407b38       off_46AB38
 407b50       aCfileexception
 407b60       off_46AB60
 407b78       aCmapptrtoptr
 407b8c       off_46AB8C
 407b98       off_46AB98
 407bb0       aCtooltipctrl
 407bc0       off_46ABC0
 407bc8       unk_46ABC8
 407c44       off_46AC44
 407d00       aTooltips_class
 407d18       off_46AD18
 407d30       aCcolordialog
 407d40       off_46AD40
 407d48       unk_46AD48
 407d7c       off_46AD7C
 407d84       off_46AD84
 407e70       aCobject
 407e78       a_ini
 407e80       a_hlp
 407e8c       off_46AE8C
 407e90       MultiByteStr
 407e98       off_46AE98
 407ea0       unk_46AEA0
 407ed0       aCommdlg_setrgb
 407ee4       aCommdlg_help
 407ef4       aCommdlg_coloro
 407f04       aCommdlg_filena
 407f18       aCommdlg_sharev
 407f30       String
 407f4c       SubKey
 407f58       off_46AF58
 407f70       aCmapstringtopt
 407f84       off_46AF84
 407f90       stru_46AF90
 407fa0       off_46AFA0
 407fa8       stru_46AFA8
 407fc0       stru_46AFC0
 407fd8       unk_46AFD8
 407ff8       aHMmSs
 408000       aDdddMmmmDdYyyy
 408014       aMDYy
 40801c       unk_46B01C
 408020       unk_46B020
 408024       aDecember
 408030       aNovember
 40803c       aOctober
 408044       aSeptember
 408050       aAugust
 408058       aJuly
 408060       aJune
 408068       aApril
 408070       aMarch
 408078       aFebruary
 408084       aJanuary
 40808c       unk_46B08C
 408090       unk_46B090
 408094       unk_46B094
 408098       unk_46B098
 40809c       unk_46B09C
 4080a0       unk_46B0A0
 4080a4       unk_46B0A4
 4080a8       unk_46B0A8
 4080ac       unk_46B0AC
 4080b0       unk_46B0B0
 4080b4       unk_46B0B4
 4080b8       unk_46B0B8
 4080bc       aSaturday
 4080c8       aFriday
 4080d0       aThursday
 4080dc       aWednesday
 4080e8       aTuesday
 4080f0       aMonday
 4080f8       aSunday
 408100       unk_46B100
 408104       unk_46B104
 408108       unk_46B108
 40810c       unk_46B10C
 408110       unk_46B110
 408114       unk_46B114
 408118       unk_46B118
 408120       stru_46B120
 408138       stru_46B138
 408150       stru_46B150
 408168       a__global_heap_
 408180       Name
 408198       aRuntimeError
 4081a8       aTlossError
 4081b8       aSingError
 4081c8       aDomainError
 4081d8       aR6028UnableToI
 408200       aR6027NotEnough
 408238       aR6026NotEnough
 408270       aR6025PureVirtu
 408298       aR6024NotEnough
 4082d0       aR6019UnableToO
 4082fc       aR6018Unexpecte
 408320       aR6017Unexpecte
 408350       aR6016NotEnough
 40837c       aAbnormalProgra
 4083a0       aR6009NotEnough
 4083cc       aR6008NotEnough
 4083f8       aR6002FloatingP
 408420       aMicrosoftVisua
 408448       asc_46B448
 40844c       aRuntimeErrorPr
 408468       aProgramNameUnk
 408480       dbl_46B480
 408488       dbl_46B488
 408490       aIsprocessorfea
 4084ac       aKernel32
 4084b8       aE000
 4084c0       dbl_46B4C0
 4084d4       dbl_46B4D4
 4084dc       dbl_46B4DC
 4084e4       dbl_46B4E4
 4084ec       dbl_46B4EC
 4084f4       dbl_46B4F4
 4084fc       dbl_46B4FC
 4085b4       unk_46B5B4
 4085c0       dbl_46B5C0
 4085c8       dbl_46B5C8
 4085d0       dbl_46B5D0
 4085d8       dbl_46B5D8
 4085e0       dbl_46B5E0
 4085e8       dbl_46B5E8
 4085f0       stru_46B5F0
 408600       stru_46B600
 408618       stru_46B618
 408628       stru_46B628
 408638       stru_46B638
 408650       stru_46B650
 408668       byte_46B668
 40866c       String1
 408670       stru_46B670
 408688       byte_46B688
 4086e4       aNull_0
 4086f4       aNull
 408700       stru_46B700
 408718       stru_46B718
 408728       stru_46B728
 408734       aSunmontuewedth
 40874c       aJanfebmaraprma
 408774       aTz
 408778       aGetlastactivep
 40878c       aGetactivewindo
 40879c       aMessageboxa
 4087a8       LibFileName
 4087b8       stru_46B7B8
 4087d0       a1Qnan
 4087d8       a1Inf
 4087e0       a1Ind
 4087e8       a1Snan
 4088f8       unk_46B8F8
 408950       unk_46B950
 4089a0       unk_46B9A0
 4089f0       unk_46B9F0
 408a40       unk_46BA40
 408a90       unk_46BA90
 408ae0       unk_46BAE0
 408b30       unk_46BB30
 408b80       unk_46BB80
 408be8       unk_46BBE8
 408c38       unk_46BC38
 408c70       unk_46BC70
 408cc0       unk_46BCC0
 408d10       unk_46BD10
 408d68       unk_46BD68
 408dc0       unk_46BDC0
 408e48       unk_46BE48
 408e80       unk_46BE80
 408ee8       unk_46BEE8
 408f40       unk_46BF40
 408fa8       unk_46BFA8
 408ff8       unk_46BFF8
 409050       unk_46C050
 4090a8       unk_46C0A8
 409100       unk_46C100
 409158       unk_46C158
 4091a8       unk_46C1A8
 409248       unk_46C248
 4092c0       unk_46C2C0
 409310       unk_46C310
 409360       unk_46C360
 4093b0       unk_46C3B0
 409400       unk_46C400
 409450       unk_46C450
 4094a0       unk_46C4A0
 4094f0       unk_46C4F0
 409560       unk_46C560
 409608       unk_46C608
 409658       unk_46C658
 4096a8       unk_46C6A8
 409700       unk_46C700
 409768       unk_46C768
 4097b8       unk_46C7B8
 409808       unk_46C808
 409858       unk_46C858
 4098a8       unk_46C8A8
 4098f8       unk_46C8F8
 409948       unk_46C948
 409a50       unk_46CA50
 409a98       unk_46CA98
 409ae8       unk_46CAE8
 409b30       unk_46CB30
 409b48       stru_46CB48
 409b70       stru_46CB70
 409b98       stru_46CB98
 409bc0       stru_46CBC0
 409c00       stru_46CC00
 409c18       stru_46CC18
 409c28       stru_46CC28
 409c68       stru_46CC68
 409c80       stru_46CC80
 409c90       stru_46CC90
 409cc0       stru_46CCC0
 409cf0       stru_46CCF0
 409d18       stru_46CD18
 409d40       stru_46CD40
 409d68       stru_46CD68
 409d90       stru_46CD90
 409db8       stru_46CDB8
 409de0       stru_46CDE0
 409e10       stru_46CE10
 409e38       stru_46CE38
 409e78       stru_46CE78
 409ea0       stru_46CEA0
 409f20       stru_46CF20
 409f50       stru_46CF50
 409f78       stru_46CF78
 409fe0       stru_46CFE0
 40a008       stru_46D008
 40a030       stru_46D030
 40a058       stru_46D058
 40a0a0       stru_46D0A0
 40a0c8       stru_46D0C8
 40a0f0       stru_46D0F0
 40a140       stru_46D140
 40a178       stru_46D178
 40a190       stru_46D190
 40a1a0       stru_46D1A0
 40a1c8       stru_46D1C8
 40a1f0       stru_46D1F0
 40a218       stru_46D218
 40a240       stru_46D240
 40a268       stru_46D268
 40a290       stru_46D290
 40a2b8       stru_46D2B8
 40a2e0       stru_46D2E0
 40a308       stru_46D308
 40a350       stru_46D350
 40a380       stru_46D380
 40a3f0       stru_46D3F0
 40a420       stru_46D420
 40a448       stru_46D448
 40a470       stru_46D470
 40a4a8       stru_46D4A8
 40a4d8       stru_46D4D8
 40a508       stru_46D508
 40a530       stru_46D530
 40a568       stru_46D568
 40a690       stru_46D690
 40a6c0       stru_46D6C0
 40a6e8       stru_46D6E8
 40a828       stru_46D828
 40a858       stru_46D858
 40a8a8       stru_46D8A8
 40a8d0       stru_46D8D0
 40a8e0       stru_46D8E0
 40a8f0       stru_46D8F0
 40a918       stru_46D918
 40a958       stru_46D958
 40a980       stru_46D980
 40a9c0       stru_46D9C0
 40a9e8       stru_46D9E8
 40aa10       stru_46DA10
 40aa38       stru_46DA38
 40aa60       stru_46DA60
 40aa98       stru_46DA98
 40aab0       stru_46DAB0
 40aac0       stru_46DAC0
 40aae8       stru_46DAE8
 40abc0       stru_46DBC0
 40abd8       stru_46DBD8
 40abe8       stru_46DBE8
 40ac30       stru_46DC30
 40ac98       stru_46DC98
 40acc0       stru_46DCC0
 40ad10       stru_46DD10
 40ad88       stru_46DD88
 40add0       stru_46DDD0
 40ae30       stru_46DE30
 40ae68       stru_46DE68
 40aea8       stru_46DEA8
 40aed8       stru_46DED8
 40af00       stru_46DF00
 40af28       stru_46DF28
 40af50       stru_46DF50
 40af78       stru_46DF78
 40afa8       stru_46DFA8
 40afd0       stru_46DFD0
 40b030       stru_46E030
 40b058       stru_46E058
 40b080       stru_46E080
 40b0a8       stru_46E0A8
 40b0d8       stru_46E0D8
 40b140       stru_46E140
 40b158       stru_46E158
 40b178       stru_46E178
 40b1c8       stru_46E1C8
 40b210       stru_46E210
 40b238       stru_46E238
 40b260       stru_46E260
 40b2a8       stru_46E2A8
 40b2e0       stru_46E2E0
 40b308       stru_46E308
 40b348       stru_46E348
 40b370       stru_46E370
 40b398       stru_46E398
 40b3c0       stru_46E3C0
 40b3e8       stru_46E3E8
 40b420       stru_46E420
 40b438       stru_46E438
 40b448       stru_46E448
 40b4a8       stru_46E4A8
 40b4d0       stru_46E4D0
 40b510       stru_46E510
 40b540       stru_46E540
 40b568       stru_46E568
 40b590       stru_46E590
 40b5d8       stru_46E5D8
 40b610       stru_46E610
 40b628       stru_46E628
 40b638       stru_46E638
 40b670       stru_46E670
 40b688       stru_46E688
 40b698       stru_46E698
 40b6d0       stru_46E6D0
 40b6e8       stru_46E6E8
 40b6f8       stru_46E6F8
 40b738       stru_46E738
 40b750       stru_46E750
 40b760       stru_46E760
 40b788       stru_46E788
 40b7b0       stru_46E7B0
 40b7e8       stru_46E7E8
 40b800       stru_46E800
 40b810       stru_46E810
 40b848       stru_46E848
 40b880       stru_46E880
 40b8a8       stru_46E8A8
 40b8d8       stru_46E8D8
 40b910       stru_46E910
 40b940       stru_46E940
 40b968       stru_46E968
 40b990       stru_46E990
 40b9b8       stru_46E9B8
 40b9e0       stru_46E9E0
 40ba08       stru_46EA08
 40ba48       stru_46EA48
 40ba60       stru_46EA60
 40ba70       stru_46EA70
 40bab0       stru_46EAB0
 40bac8       stru_46EAC8
 40bad8       stru_46EAD8
 40bc90       stru_46EC90
 40bd78       stru_46ED78
 40bdc8       stru_46EDC8
 40bdf0       stru_46EDF0
 40be18       stru_46EE18
 40be50       stru_46EE50
 40be80       stru_46EE80
 40bea8       stru_46EEA8
 40bed0       stru_46EED0
 40bef8       stru_46EEF8
 40bf20       stru_46EF20
 40bf48       stru_46EF48
 40bf70       stru_46EF70
 40bf98       stru_46EF98
 40bfc0       stru_46EFC0
 40bfe8       stru_46EFE8
 40c0f0       stru_46F0F0
 40c138       stru_46F138
 40c160       stru_46F160
 40c190       stru_46F190
 40c1d0       stru_46F1D0
 40c200       stru_46F200
 40c270       stru_46F270
 40c2b0       stru_46F2B0
 40c2d8       stru_46F2D8
 40c308       stru_46F308
 40c338       stru_46F338
 40c368       stru_46F368
 40c398       stru_46F398
 40c3e0       stru_46F3E0
 40c410       stru_46F410
 40c438       stru_46F438
 40c460       stru_46F460
 40c4a8       stru_46F4A8
 40c4d8       stru_46F4D8
 40c500       stru_46F500
 40c540       stru_46F540
 40c578       stru_46F578
 40c5a0       stru_46F5A0
 40c5c8       stru_46F5C8
 40c5f0       stru_46F5F0
 40c628       stru_46F628
 40c640       stru_46F640
 40c670       stru_46F670
 40c6b0       stru_46F6B0
 40c6c8       stru_46F6C8
 40c6e8       stru_46F6E8
 40c710       stru_46F710
 40c748       stru_46F748
 40c760       stru_46F760
 40c780       stru_46F780
 40c7b8       stru_46F7B8
 40c7d0       stru_46F7D0
 40c7f0       stru_46F7F0
 40c830       stru_46F830
 40c848       stru_46F848
 40c868       stru_46F868
 40c8a0       stru_46F8A0
 40c8b8       stru_46F8B8
 40c8d8       stru_46F8D8
 40c928       stru_46F928
 40c950       stru_46F950
 40c970       stru_46F970
 40c990       stru_46F990
 40c9b8       stru_46F9B8
 40c9e0       stru_46F9E0
 40ca08       stru_46FA08
 40ca30       stru_46FA30
 40ca58       stru_46FA58
 40ca88       stru_46FA88
 40cab0       stru_46FAB0
 40cae0       stru_46FAE0
 40cb08       stru_46FB08
 40cb38       stru_46FB38
 40cb68       stru_46FB68
 40cba8       stru_46FBA8
 40cbe0       stru_46FBE0
 40cc10       stru_46FC10
 40cc38       stru_46FC38
 40cc60       stru_46FC60
 40cca0       stru_46FCA0
 40ccc8       stru_46FCC8
 40ccf0       stru_46FCF0
 40cd18       stru_46FD18
 40cd50       stru_46FD50
 40cd78       stru_46FD78
 40cda0       stru_46FDA0
 40ce10       stru_46FE10
 40ce28       stru_46FE28
 40ce38       stru_46FE38
 40ce60       stru_46FE60
 40ce98       stru_46FE98
 40ceb0       stru_46FEB0
 40cec0       stru_46FEC0
 40cf10       stru_46FF10
 40cf38       stru_46FF38
 40cf48       stru_46FF48
 40cf58       stru_46FF58
 40d040       stru_470040
 40d070       stru_470070
 40d0a8       stru_4700A8
 40d0d0       stru_4700D0
 40d0f8       stru_4700F8
 40d130       stru_470130
 40d168       stru_470168
 40d198       stru_470198
 40d1c0       stru_4701C0
 40d1e8       stru_4701E8
 40d230       stru_470230
 40d260       stru_470260
 40d290       stru_470290
 40d2c0       stru_4702C0
 40d2e8       stru_4702E8
 40d318       stru_470318
 40d368       stru_470368
 40d3b8       stru_4703B8
 40d418       stru_470418
 40d440       stru_470440
 40d468       stru_470468
 40d490       stru_470490
 40d4b8       stru_4704B8
 40d4e0       stru_4704E0
 40d530       stru_470530
 40d560       stru_470560
 40d588       stru_470588
 40d5b8       stru_4705B8
 40d5e8       stru_4705E8
 40d618       stru_470618
 40d648       stru_470648
 40d686       word_470686
 40d730       unk_470730
 40d778       unk_470778
 40d788       stru_470788
 40d7b0       stru_4707B0
 40d7e0       stru_4707E0
 40d808       stru_470808
 40d830       stru_470830
 40d858       stru_470858
 40d880       stru_470880
 40d8a8       stru_4708A8
 40d8d0       stru_4708D0
 40d8f8       stru_4708F8
 40d920       stru_470920
 40d948       stru_470948
 40d970       stru_470970
 40d998       stru_470998
 40d9c0       stru_4709C0
 40d9e8       stru_4709E8
 40da48       unk_470A48
 40da58       stru_470A58
 40da80       stru_470A80
 40dac0       stru_470AC0
 40dad8       stru_470AD8
 40dae8       stru_470AE8
 40db18       stru_470B18
 40db30       stru_470B30
 40db40       stru_470B40
 40db70       stru_470B70
 40db88       stru_470B88
 40db98       stru_470B98
 40dbc0       stru_470BC0
 40dbf0       stru_470BF0
 40dc08       stru_470C08
 40dc18       stru_470C18
 40dc40       stru_470C40
 40dc70       stru_470C70
 40dc88       stru_470C88
 40dc98       stru_470C98
 40dcc0       stru_470CC0
 40dcf8       stru_470CF8
 40dd20       stru_470D20
 40dd50       stru_470D50
 40dd68       stru_470D68
 40dd88       stru_470D88
 40ddb0       stru_470DB0
 40ddd8       stru_470DD8
 40de00       stru_470E00
 40de28       stru_470E28
 40de50       stru_470E50
 40de78       stru_470E78
 40dea0       stru_470EA0
 40dec8       stru_470EC8
 40df00       stru_470F00
 40df28       stru_470F28
 40df50       stru_470F50
 40df80       stru_470F80
 40dfa8       stru_470FA8
 40dfd0       stru_470FD0
 40e000       stru_471000
 40e028       stru_471028
 40e050       stru_471050
 40e080       stru_471080
 40e098       stru_471098
 40e0a8       stru_4710A8
 40e0d8       stru_4710D8
 40e108       stru_471108
 40e130       stru_471130
 40e158       stru_471158
 40e180       stru_471180
 40e1b0       stru_4711B0
 40e1d8       stru_4711D8
 40e200       stru_471200
 40e228       stru_471228
 40e250       stru_471250
 40e278       stru_471278
 40e2e0       unk_4712E0
 40e2f0       stru_4712F0
 40e328       stru_471328
 40e350       stru_471350
 40e378       stru_471378
 40e3a0       stru_4713A0
 40e3c8       stru_4713C8
 40e3f0       stru_4713F0
 40e418       stru_471418
 40e440       stru_471440
 40e468       stru_471468
 40e490       stru_471490
 40e4b8       stru_4714B8
 40e4e0       stru_4714E0
 40e548       unk_471548
 40e558       stru_471558
 40e590       stru_471590
 40e5b8       stru_4715B8
 40e5e0       stru_4715E0
 40e610       stru_471610
 40e638       stru_471638
 40e668       stru_471668
 40e680       stru_471680
 40e690       stru_471690
 40e6c0       stru_4716C0
 40e6d8       stru_4716D8
 40e6e8       stru_4716E8
 40e718       stru_471718
 40e748       stru_471748
 40e760       stru_471760
 40e770       stru_471770
 40e7a0       stru_4717A0
 40e7c8       stru_4717C8
 40e7f0       stru_4717F0
 40e818       __IMPORT_DESCRIPTOR_KERNEL32
 40e82c       __IMPORT_DESCRIPTOR_USER32
 40e840       __IMPORT_DESCRIPTOR_GDI32
 40e854       __IMPORT_DESCRIPTOR_WINMM
 40e868       __IMPORT_DESCRIPTOR_WINSPOOL_DRV
 40e87c       __IMPORT_DESCRIPTOR_ADVAPI32
 40e890       __IMPORT_DESCRIPTOR_SHELL32
 40e8a4       __IMPORT_DESCRIPTOR_ole32
 40e8b8       __IMPORT_DESCRIPTOR_OLEAUT32
 40e8cc       __IMPORT_DESCRIPTOR_COMCTL32
 40e8e0       __IMPORT_DESCRIPTOR_WS2_32
 40e8f4       __IMPORT_DESCRIPTOR_comdlg32
 40e91c       off_47191C
 40e934       off_471934
 40e940       off_471940
 40ea8c       off_471A8C
 40ec8c       dword_471C8C
 40ec9c       off_471C9C
 40eca8       off_471CA8
 40ef14       off_471F14
 40ef5c       off_471F5C
 40ef6c       dword_471F6C
 40ef94       off_471F94
 40efa8       off_471FA8
 40efb8       word_471FB8
 40efc6       word_471FC6
 40efdc       word_471FDC
 40efec       word_471FEC
 40effe       word_471FFE
 40f008       word_472008
 40f01a       word_47201A
 40f02e       word_47202E
 40f046       word_472046
 40f05e       word_47205E
 40f074       word_472074
 40f080       word_472080
 40f092       word_472092
 40f0a2       word_4720A2
 40f0b0       word_4720B0
 40f0be       word_4720BE
 40f0c6       word_4720C6
 40f0d6       word_4720D6
 40f0e6       word_4720E6
 40f104       word_472104
 40f114       word_472114
 40f120       word_472120
 40f130       word_472130
 40f13e       word_47213E
 40f152       word_472152
 40f15e       word_47215E
 40f170       word_472170
 40f17e       word_47217E
 40f18a       word_47218A
 40f19a       word_47219A
 40f1aa       word_4721AA
 40f1b6       word_4721B6
 40f1c0       word_4721C0
 40f1cc       word_4721CC
 40f1e8       word_4721E8
 40f200       word_472200
 40f20e       word_47220E
 40f21c       word_47221C
 40f22a       word_47222A
 40f240       word_472240
 40f256       word_472256
 40f266       word_472266
 40f276       word_472276
 40f286       word_472286
 40f292       word_472292
 40f2a0       word_4722A0
 40f2ba       word_4722BA
 40f2ca       word_4722CA
 40f2d6       word_4722D6
 40f2e2       word_4722E2
 40f2f6       word_4722F6
 40f30e       word_47230E
 40f326       word_472326
 40f33a       word_47233A
 40f34a       word_47234A
 40f35e       aKernel32_dll
 40f36c       word_47236C
 40f378       word_472378
 40f38a       word_47238A
 40f39e       word_47239E
 40f3ae       word_4723AE
 40f3c2       word_4723C2
 40f3d4       word_4723D4
 40f3e8       word_4723E8
 40f3f8       word_4723F8
 40f406       word_472406
 40f416       word_472416
 40f426       word_472426
 40f436       word_472436
 40f442       word_472442
 40f44e       word_47244E
 40f45e       word_47245E
 40f46e       word_47246E
 40f47a       word_47247A
 40f486       word_472486
 40f496       word_472496
 40f4a8       word_4724A8
 40f4b8       word_4724B8
 40f4c8       word_4724C8
 40f4d4       word_4724D4
 40f4e4       word_4724E4
 40f4fa       word_4724FA
 40f508       word_472508
 40f512       word_472512
 40f51e       word_47251E
 40f52c       word_47252C
 40f538       word_472538
 40f540       word_472540
 40f54c       word_47254C
 40f55a       word_47255A
 40f56a       word_47256A
 40f57c       word_47257C
 40f58a       word_47258A
 40f59c       word_47259C
 40f5ae       word_4725AE
 40f5be       word_4725BE
 40f5ce       word_4725CE
 40f5e0       word_4725E0
 40f5ee       word_4725EE
 40f5fa       word_4725FA
 40f608       word_472608
 40f618       word_472618
 40f622       word_472622
 40f630       word_472630
 40f640       word_472640
 40f652       word_472652
 40f664       word_472664
 40f672       word_472672
 40f680       word_472680
 40f692       word_472692
 40f69e       word_47269E
 40f6aa       word_4726AA
 40f6b6       word_4726B6
 40f6c4       word_4726C4
 40f6d0       word_4726D0
 40f6ea       word_4726EA
 40f6fc       word_4726FC
 40f70c       word_47270C
 40f71c       word_47271C
 40f736       word_472736
 40f742       word_472742
 40f754       word_472754
 40f760       word_472760
 40f76c       word_47276C
 40f77c       word_47277C
 40f786       word_472786
 40f790       word_472790
 40f7a2       word_4727A2
 40f7b2       word_4727B2
 40f7c0       word_4727C0
 40f7d0       word_4727D0
 40f7dc       word_4727DC
 40f7ee       word_4727EE
 40f806       word_472806
 40f814       word_472814
 40f82c       word_47282C
 40f83e       word_47283E
 40f84c       word_47284C
 40f85a       word_47285A
 40f872       word_472872
 40f884       word_472884
 40f896       word_472896
 40f8a4       word_4728A4
 40f8b4       word_4728B4
 40f8ce       word_4728CE
 40f8dc       word_4728DC
 40f8ea       word_4728EA
 40f8f8       word_4728F8
 40f90a       word_47290A
 40f918       word_472918
 40f932       word_472932
 40f94e       word_47294E
 40f96a       word_47296A
 40f97a       word_47297A
 40f98e       word_47298E
 40f99c       word_47299C
 40f9ae       word_4729AE
 40f9be       word_4729BE
 40f9ca       word_4729CA
 40f9de       word_4729DE
 40f9ea       word_4729EA
 40f9fe       word_4729FE
 40fa16       aUser32_dll
 40fa22       word_472A22
 40fa32       word_472A32
 40fa4a       word_472A4A
 40fa56       word_472A56
 40fa6a       word_472A6A
 40fa74       word_472A74
 40fa7e       word_472A7E
 40fa8a       word_472A8A
 40fa94       word_472A94
 40faaa       word_472AAA
 40fab4       word_472AB4
 40fac0       word_472AC0
 40facc       word_472ACC
 40fad8       word_472AD8
 40fae2       word_472AE2
 40faec       word_472AEC
 40fb02       word_472B02
 40fb14       word_472B14
 40fb28       word_472B28
 40fb36       word_472B36
 40fb46       word_472B46
 40fb50       word_472B50
 40fb5a       word_472B5A
 40fb66       word_472B66
 40fb74       word_472B74
 40fb84       word_472B84
 40fb94       word_472B94
 40fba0       word_472BA0
 40fbba       word_472BBA
 40fbcc       word_472BCC
 40fbe0       word_472BE0
 40fbea       word_472BEA
 40fbf8       word_472BF8
 40fc04       word_472C04
 40fc14       word_472C14
 40fc2a       word_472C2A
 40fc3e       word_472C3E
 40fc4e       word_472C4E
 40fc58       word_472C58
 40fc64       word_472C64
 40fc76       word_472C76
 40fc8a       word_472C8A
 40fc9c       word_472C9C
 40fca8       word_472CA8
 40fcba       word_472CBA
 40fcca       word_472CCA
 40fcd8       word_472CD8
 40fce8       word_472CE8
 40fd02       word_472D02
 40fd14       word_472D14
 40fd24       word_472D24
 40fd34       word_472D34
 40fd48       word_472D48
 40fd56       word_472D56
 40fd6a       word_472D6A
 40fd82       word_472D82
 40fd90       aGdi32_dll
 40fd9a       word_472D9A
 40fdae       word_472DAE
 40fdc0       word_472DC0
 40fdd0       word_472DD0
 40fde2       word_472DE2
 40fdf2       word_472DF2
 40fe0a       word_472E0A
 40fe20       word_472E20
 40fe32       word_472E32
 40fe4c       word_472E4C
 40fe5a       word_472E5A
 40fe6e       word_472E6E
 40fe7e       word_472E7E
 40fe8e       word_472E8E
 40fe9e       word_472E9E
 40feae       word_472EAE
 40fec6       word_472EC6
 40fee0       aWinmm_dll
 40feea       word_472EEA
 40fefa       word_472EFA
 40ff10       word_472F10
 40ff20       aWinspool_drv
 40ff2e       word_472F2E
 40ff3c       word_472F3C
 40ff4c       word_472F4C
 40ff5e       word_472F5E
 40ff70       aAdvapi32_dll
 40ff7e       word_472F7E
 40ff8e       word_472F8E
 40ffa2       aShell32_dll
 40ffae       word_472FAE
 40ffc0       word_472FC0
 40ffd2       word_472FD2
 40ffe2       aOle32_dll
 40ffec       aOleaut32_dll
 40fffa       word_472FFA
 41000e       aComctl32_dll
 41001c       aWs2_32_dll
 410028       word_473028
 410040       word_473040
 410058       word_473058
 41006e       word_47306E
 410084       word_473084
 410090       word_473090
 4100a8       word_4730A8
 4100c2       word_4730C2
 4100d2       word_4730D2
 4100de       word_4730DE
 4100f0       word_4730F0
 410104       word_473104
 410116       word_473116
 41012a       word_47312A
 410136       word_473136
 410144       word_473144
 410154       word_473154
 410160       word_473160
 410174       word_473174
 410186       word_473186
 410198       word_473198
 4101ae       word_4731AE
 4101bc       word_4731BC
 4101c8       word_4731C8
 4101d6       word_4731D6
 4101e2       word_4731E2
 4101f2       word_4731F2
 4101fc       word_4731FC
 41020a       word_47320A
 41021a       word_47321A
 410228       word_473228
 410236       word_473236
 410244       word_473244
 410258       word_473258
 410266       word_473266
 410276       word_473276
 41028a       word_47328A
 410296       word_473296
 4102a2       word_4732A2
 4102b4       word_4732B4
 4102c0       word_4732C0
 4102d2       word_4732D2
 4102ec       word_4732EC
 4102fc       word_4732FC
 41030c       word_47330C
 410320       word_473320
 41032c       word_47332C
 410336       word_473336
 410352       word_473352
 41036c       word_47336C
 410386       word_473386
 41039e       word_47339E
 4103b8       word_4733B8
 4103ca       word_4733CA
 4103da       word_4733DA
 4103e8       word_4733E8
 410402       word_473402
 410410       word_473410
 41041e       word_47341E
 41042c       word_47342C
 410446       word_473446
 410456       word_473456
 410466       word_473466
 410476       word_473476
 410486       word_473486
 410498       word_473498
 4104aa       word_4734AA
 4104c8       word_4734C8
 4104da       word_4734DA
 4104ec       word_4734EC
 4104fc       word_4734FC
 41050c       word_47350C
 41051c       word_47351C
 41052e       word_47352E
 410546       word_473546
 410554       word_473554
 410562       word_473562
 410570       word_473570
 41057c       word_47357C
 41058e       word_47358E
 41059a       word_47359A
 4105a8       word_4735A8
 4105b6       word_4735B6
 4105c6       word_4735C6
 4105e4       word_4735E4
 4105f0       word_4735F0
 410604       word_473604
 41061a       word_47361A
 410634       word_473634
 41064a       word_47364A
 410660       word_473660
 410672       word_473672
 410680       word_473680
 410692       word_473692
 41069e       word_47369E
 4106b4       word_4736B4
 4106c0       word_4736C0
 4106d0       word_4736D0
 4106e2       word_4736E2
 4106f6       word_4736F6
 410708       word_473708
 410718       word_473718
 41072c       word_47372C
 41073e       word_47373E
 41074e       word_47374E
 410764       word_473764
 410776       word_473776
 41078c       word_47378C
 41079e       word_47379E
 4107b2       word_4737B2
 4107c4       word_4737C4
 4107d2       word_4737D2
 4107e2       word_4737E2
 4107f8       word_4737F8
 410808       word_473808
 410826       word_473826
 410836       word_473836
 41084a       word_47384A
 410858       word_473858
 41086c       word_47386C
 410876       word_473876
 410882       word_473882
 41088e       word_47388E
 4108a0       word_4738A0
 4108aa       word_4738AA
 4108ba       word_4738BA
 4108c8       word_4738C8
 4108dc       word_4738DC
 4108f2       word_4738F2
 410906       word_473906
 41091c       word_47391C
 41092e       word_47392E
 410940       word_473940
 410954       word_473954
 410962       word_473962
 410974       word_473974
 410980       word_473980
 41098a       word_47398A
 41099e       word_47399E
 4109b2       word_4739B2
 4109be       word_4739BE
 4109cc       word_4739CC
 4109d8       word_4739D8
 4109e6       word_4739E6
 4109f0       word_4739F0
 410a02       word_473A02
 410a12       word_473A12
 410a26       word_473A26
 410a3a       word_473A3A
 410a4a       aComdlg32_dll
 410a58       word_473A58
 410a6a       word_473A6A
 401000       unk_474000
 4010a4       unk_4740A4
 4010a8       unk_4740A8
 4010bc       unk_4740BC
 4010c0       unk_4740C0
 4010cc       unk_4740CC
 4010d0       unk_4740D0
 4010d8       unk_4740D8
 401198       asc_474198
 40119c       aU
 4011a0       aDDD
 4011b0       aDDDI
 4011c0       asc_4741C0
 4011c8       stru_4741C8
 4011e8       stru_4741E8
 401210       stru_474210
 401230       aW
 401234       aSS
 401240       aPrn
 401244       unk_474244
 401274       asc_474274
 401278       asc_474278
 401290       dword_474290
 403b74       off_476B74
 403b78       off_476B78
 403cb4       dword_476CB4
 403cb8       word_476CB8
 403cba       word_476CBA
 403cbc       dword_476CBC
 403cc0       dword_476CC0
 403cc4       dword_476CC4
 403cc8       dword_476CC8
 403ccc       word_476CCC
 403cce       word_476CCE
 403cd0       dword_476CD0
 403cd4       dword_476CD4
 403cd8       dword_476CD8
 403cdc       dword_476CDC
 403ce0       word_476CE0
 403ce2       word_476CE2
 403ce4       dword_476CE4
 403ce8       dword_476CE8
 403cec       dword_476CEC
 403cf0       dword_476CF0
 403cf4       word_476CF4
 403cf6       word_476CF6
 403cf8       dword_476CF8
 403cfc       dword_476CFC
 403d00       dword_476D00
 403d04       dword_476D04
 403d08       word_476D08
 403d0a       word_476D0A
 403d0c       dword_476D0C
 403d10       dword_476D10
 403d14       dword_476D14
 403d18       dword_476D18
 403d1c       word_476D1C
 403d1e       word_476D1E
 403d20       dword_476D20
 403d24       dword_476D24
 403d28       dword_476D28
 403d2c       dword_476D2C
 403d30       word_476D30
 403d32       word_476D32
 403d34       dword_476D34
 403d38       dword_476D38
 403d3c       dword_476D3C
 403d40       dword_476D40
 403d44       word_476D44
 403d46       word_476D46
 403d48       dword_476D48
 403d4c       dword_476D4C
 403d50       dword_476D50
 403d54       dword_476D54
 403d58       word_476D58
 403d5a       word_476D5A
 403d5c       dword_476D5C
 403d60       dword_476D60
 403d64       dword_476D64
 403d68       dword_476D68
 403d6c       word_476D6C
 403d6e       word_476D6E
 403d70       dword_476D70
 403e48       dword_476E48
 403e4c       word_476E4C
 403e4e       word_476E4E
 403e50       dword_476E50
 403e54       dword_476E54
 403e58       dword_476E58
 403e5c       dword_476E5C
 403e60       word_476E60
 403e62       word_476E62
 403e64       dword_476E64
 403e68       dword_476E68
 403e6c       dword_476E6C
 403e70       dword_476E70
 403e74       word_476E74
 403e76       word_476E76
 403e78       dword_476E78
 403e7c       dword_476E7C
 403e80       dword_476E80
 403e84       dword_476E84
 403e88       word_476E88
 403e8a       word_476E8A
 403e8c       dword_476E8C
 403e90       dword_476E90
 403e94       dword_476E94
 403e98       dword_476E98
 403e9c       word_476E9C
 403e9e       word_476E9E
 403ea0       dword_476EA0
 403ea4       dword_476EA4
 403ea8       dword_476EA8
 403eac       dword_476EAC
 403eb0       word_476EB0
 403eb2       word_476EB2
 403eb4       dword_476EB4
 403eb8       dword_476EB8
 403ebc       dword_476EBC
 403ec0       dword_476EC0
 403ec4       word_476EC4
 403ec6       word_476EC6
 403ec8       dword_476EC8
 403ecc       dword_476ECC
 403ed0       dword_476ED0
 403ed4       dword_476ED4
 403ed8       word_476ED8
 403eda       word_476EDA
 403edc       dword_476EDC
 403ee0       dword_476EE0
 403ee4       dword_476EE4
 403ee8       dword_476EE8
 403eec       word_476EEC
 403eee       word_476EEE
 403ef0       dword_476EF0
 403ef4       dword_476EF4
 403ef8       dword_476EF8
 403efc       dword_476EFC
 403f00       word_476F00
 403f02       word_476F02
 403f04       dword_476F04
 403f08       dword_476F08
 403f0c       dword_476F0C
 403f10       dword_476F10
 403f14       word_476F14
 403f16       word_476F16
 403f18       dword_476F18
 403f1c       dword_476F1C
 403f20       dword_476F20
 403f24       dword_476F24
 403f28       word_476F28
 403f2a       word_476F2A
 403f2c       dword_476F2C
 403f30       dword_476F30
 403f34       dword_476F34
 403f38       dword_476F38
 403f3c       word_476F3C
 403f3e       word_476F3E
 403f40       dword_476F40
 403f44       dword_476F44
 403f48       dword_476F48
 403f4c       dword_476F4C
 403f50       word_476F50
 403f52       word_476F52
 403f54       dword_476F54
 403f58       dword_476F58
 403f5c       dword_476F5C
 403f60       dword_476F60
 403f64       word_476F64
 403f66       word_476F66
 403f68       dword_476F68
 403f6c       dword_476F6C
 403f70       dword_476F70
 403f74       dword_476F74
 403f78       word_476F78
 403f7a       word_476F7A
 403f7c       dword_476F7C
 403f80       dword_476F80
 403f84       dword_476F84
 403f88       dword_476F88
 403f8c       word_476F8C
 403f8e       word_476F8E
 403f90       dword_476F90
 403f94       dword_476F94
 403f98       dword_476F98
 403f9c       dword_476F9C
 403fa0       word_476FA0
 403fa2       word_476FA2
 403fa4       dword_476FA4
 403fa8       dword_476FA8
 403fac       dword_476FAC
 403fb0       dword_476FB0
 403fb4       word_476FB4
 403fb6       word_476FB6
 403fb8       dword_476FB8
 403fbc       dword_476FBC
 403fc0       dword_476FC0
 403fc4       dword_476FC4
 403fc8       word_476FC8
 403fca       word_476FCA
 403fcc       dword_476FCC
 403fd0       dword_476FD0
 403fd4       dword_476FD4
 403fd8       dword_476FD8
 403fdc       word_476FDC
 403fde       word_476FDE
 403fe0       dword_476FE0
 403fe4       dword_476FE4
 403fe8       dword_476FE8
 403fec       dword_476FEC
 403ff0       word_476FF0
 403ff2       word_476FF2
 403ff4       dword_476FF4
 403ff8       dword_476FF8
 403ffc       dword_476FFC
 404000       dword_477000
 404004       word_477004
 404006       word_477006
 404008       dword_477008
 40400c       dword_47700C
 404010       dword_477010
 404014       dword_477014
 404018       word_477018
 40401a       word_47701A
 40401c       dword_47701C
 404020       dword_477020
 404024       dword_477024
 404028       dword_477028
 40402c       word_47702C
 40402e       word_47702E
 404030       dword_477030
 404abc       dword_477ABC
 404ac0       off_477AC0
 404ad8       aShell32_dll_0
 404ae4       aMpr_dll
 404aec       aAdvapi32_dll_0
 404afc       aUser32_dll_0
 404b08       aGdi32_dll_0
 404b14       aKernel32_dll_0
 404b24       unk_477B24
 404b44       unk_477B44
 404b88       unk_477B88
 404bc4       unk_477BC4
 404bec       unk_477BEC
 404c28       unk_477C28
 404c44       unk_477C44
 404c5c       unk_477C5C
 404c7c       unk_477C7C
 404cb4       unk_477CB4
 404cd0       unk_477CD0
 404cf0       aEdit_0
 404cf8       aD
 404cfc       a0
 404d00       a__
 404d04       a_
 404d08       a__0
 404d0c       asc_477D0C
 404d14       asc_477D14
 404d18       a1_0
 404d1c       a1
 404d24       aShellOpenComma
 404d38       a_htm
 404d40       Operation
 404d48       aMailto
 404d50       aHlp
 404d54       String2
 404d5c       aM
 404d6c       aOpendatabase
 404d7c       aClosedatabase
 404d8c       aGetconnectstri
 404da0       aGettablist
 404dac       asc_477DAC
 404dcc       asc_477DCC
 404dd0       unk_477DD0
 404df4       unk_477DF4
 404e08       unk_477E08
 404e38       unk_477E38
 404e60       aFDCZ
 404e78       aA_0
 404e84       asc_477E84
 404e8c       aA
 404e98       asc_477E98
 404ea8       aDllunregisters
 404ebc       ProcName
 404ed0       name
 404ee0       aII
 404ef4       unk_477EF4
 404f14       asc_477F14
 404f1c       unk_477F1C
 404f34       unk_477F34
 404f50       unk_477F50
 404f68       unk_477F68
 404f80       aRemoveplayer
 405214       unk_478214
 4055e0       aCwinformunit
 4055f0       aWtwindow
 4055fc       off_4785FC
 405614       off_478614
 405648       dword_478648
 405684       dword_478684
 405688       a_6g
 405690       a_13g
 405698       aD_0
 4056a0       aDD_0
 4056ac       aC
 4056b0       Caption
 408de8       word_47BDE8
 4099c4       unk_47C9C4
 4099ec       unk_47C9EC
 409a10       aZheng
 409a18       aZeng
 409a20       aZen
 409a24       aZhen
 409a6c       a___
 409a70       aGCZ
 409a84       asc_47CA84
 409a88       a??D
 409a94       aDD
 409aa0       asc_47CAA0
 409aac       asc_47CAAC
 409ab4       aRN
 409abc       aS
 409ac4       aV
 409ad0       aP
 409adc       asc_47CADC
 409af0       Text
 409b04       unk_47CB04
 409b18       asc_47CB18
 409b30       asc_47CB30
 409b88       asc_47CB88
 409bb4       asc_47CBB4
 409bc4       off_47CBC4
 409cfc       byte_47CCFC
 409d24       aJKLMNOPQRSTUVW
 409d6a       aP_0
 409e34       unk_47CE34
 409e38       unk_47CE38
 409e3c       aCtrlShiftF12
 409e4c       aCtrlShiftF11
 409e5c       aCtrlShiftF10
 409e6c       aCtrlShiftF9
 409e7c       aCtrlShiftF8
 409e8c       aCtrlShiftF7
 409e9c       aCtrlShiftF6
 409eac       aCtrlShiftF5
 409ebc       aCtrlShiftF4
 409ecc       aCtrlShiftF3
 409edc       aCtrlShiftF2
 409eec       aCtrlShiftF1
 409efc       aShiftF12
 409f08       aShiftF11
 409f14       aShiftF10
 409f20       aShiftF9
 409f2c       aShiftF8
 409f38       aShiftF7
 409f44       aShiftF6
 409f50       aShiftF5
 409f5c       aShiftF4
 409f68       aShiftF3
 409f74       aShiftF2
 409f80       aShiftF1
 409f8c       aCtrlF12
 409f98       aCtrlF11
 409fa4       aCtrlF10
 409fb0       aCtrlF9
 409fb8       aCtrlF8
 409fc0       aCtrlF7
 409fc8       aCtrlF6
 409fd0       aCtrlF5
 409fd8       aCtrlF4
 409fe0       aCtrlF3
 409fe8       aCtrlF2
 409ff0       aCtrlF1
 409ff8       aF12
 409ffc       aF11
 40a000       aF10
 40a004       aF9
 40a008       aF8
 40a00c       aF7
 40a010       aF6
 40a014       aF5
 40a018       aF4
 40a01c       aF3
 40a020       aF2
 40a024       aF1
 40a028       aCtrlZ
 40a030       aCtrlY
 40a038       aCtrlX
 40a040       aCtrlW
 40a048       aCtrlV
 40a050       aCtrlU
 40a058       aCtrlT
 40a060       aCtrlS
 40a068       aCtrlR
 40a070       aCtrlQ
 40a078       aCtrlP
 40a080       aCtrlO
 40a088       aCtrlN
 40a090       aCtrlM
 40a098       aCtrlL
 40a0a0       aCtrlK
 40a0a8       aCtrlJ
 40a0b0       aCtrlI
 40a0b8       aCtrlH
 40a0c0       aCtrlG
 40a0c8       aCtrlF
 40a0d0       aCtrlE
 40a0d8       aCtrlD
 40a0e0       aCtrlC
 40a0e8       aCtrlB
 40a0f0       aCtrlA
 40a0f8       aGiGi
 40a100       byte_47D100
 40a104       unk_47D104
 40a1d0       aSD
 40a1d8       aNone
 40a1e0       aDevices
 40a1e8       AppName
 40a1f0       KeyName
 40a1f8       Default
 40a1fc       off_47D1FC
 40a220       aTrue
 40a228       a1_1
 40a22c       szFormat
 40a238       aD_1
 40a248       unk_47D248
 40a24c       off_47D24C
 40a4d0       aZI
 40aca8       unk_47DCA8
 40acb4       aCcolourpicker
 40acc4       asc_47DCC4
 40acd0       aData
 40acd8       aFmt
 40ace0       aWave
 40ace8       aRiff
 40acf0       unk_47DCF0
 40ad08       unk_47DD08
 40ad48       asc_47DD48
 40ad4c       a0X
 40ad50       a00
 40ad54       asc_47DD54
 40ad68       unk_47DD68
 40ad80       aOut_prn
 40ad88       asc_47DD88
 40adb8       unk_47DDB8
 40ade0       unk_47DDE0
 40adec       aS_0
 40adf8       unk_47DDF8
 40ae04       asc_47DE04
 40ae10       aD_D
 40aec0       aDD_1
 40aec8       asc_47DEC8
 40aed4       asc_47DED4
 40aef8       aI
 40af0c       aII_0
 40af20       asc_47DF20
 40af28       asc_47DF28
 40af30       unk_47DF30
 40af4c       aIA
 40af58       off_47DF58
 40af5c       wParam
 40b148       aR
 40b150       asc_47E150
 40b158       aBogusMessageCo
 40b170       aIFI
 40b18c       aLdC
 40b194       aJpegmem
 40b19c       off_47E19C
 40b1a0       off_47E1A0
 40b1a4       off_47E1A4
 40b1a8       unk_47E1A8
 40b1b4       dword_47E1B4
 40b1b8       dword_47E1B8
 40b458       stru_47E458
 40b740       off_47E740
 40b794       dword_47E794
 40b7a0       a_?av_afx_win_s
 40b7c0       a_?avcwinthread
 40b7e0       a_?avcwinapp@@
 40b7f8       a_?avcprogressc
 40b818       a_?avcimagelist
 40b838       a_?avctempimage
 40b858       a_pavcarchiveex
 40b878       a_?avcarchiveex
 40b898       a_?avcsharedfil
 40b908       off_47E908
 40b940       off_47E940
 40ba38       off_47EA38
 40ba3c       dword_47EA3C
 40ba48       off_47EA48
 40ba60       dbl_47EA60
 40ba68       unk_47EA68
 40ba6c       dword_47EA6C
 40ba70       unk_47EA70
 40bac0       dword_47EAC0
 40bac4       unk_47EAC4
 40bb00       off_47EB00
 40bb10       unk_47EB10
 40bb20       unk_47EB20
 40bb40       unk_47EB40
 40bb70       unk_47EB70
 40bd60       unk_47ED60
 40bd80       off_47ED80
 40bd84       dword_47ED84
 40bd90       off_47ED90
 40be40       unk_47EE40
 40be44       dword_47EE44
 40bfa8       byte_47EFA8
 40bfb0       unk_47EFB0
 40bfb4       aVyv
 40bfc0       aJ
 40bfc8       aBe
 40c0a0       unk_47F0A0
 40c118       dword_47F118
 40c11c       dword_47F11C
 40c124       dword_47F124
 40c128       unk_47F128
 40c14c       dwTlsIndex
 40c158       dword_47F158
 40c15c       off_47F15C
 40c1e8       off_47F1E8
 40c1ec       off_47F1EC
 40c1f0       off_47F1F0
 40c1f4       off_47F1F4
 40c1f8       off_47F1F8
 40c1fc       off_47F1FC
 40c200       tbyte_47F200
 40c20a       tbyte_47F20A
 40c21e       tbyte_47F21E
 40c232       dbl_47F232
 40c260       tbyte_47F260
 40c274       dbl_47F274
 40c27c       unk_47F27C
 40c290       unk_47F290
 40c294       off_47F294
 40c368       dbl_47F368
 40c370       dbl_47F370
 40c378       dbl_47F378
 40c388       dbl_47F388
 40c390       tbyte_47F390
 40c39c       tbyte_47F39C
 40c3b0       byte_47F3B0
 40c3c0       flt_47F3C0
 40c3c4       flt_47F3C4
 40c3c8       flt_47F3C8
 40c3cc       byte_47F3CC
 40c3e4       dbl_47F3E4
 40c3ec       dbl_47F3EC
 40c3fc       dbl_47F3FC
 40c404       tbyte_47F404
 40c510       dword_47F510
 40c514       off_47F514
 40c534       off_47F534
 40c544       off_47F544
 40c554       lpCriticalSection
 40c5e0       off_47F5E0
 40c5e4       off_47F5E4
 40c5ec       __ctype
 40c7f0       cbMultiByte
 40c7f4       byte_47F7F4
 40c800       off_47F800
 40c804       off_47F804
 40c810       dword_47F810
 40c818       unk_47F818
 40d008       unk_480008
 40e820       off_481820
 40e824       dword_481824
 40e828       off_481828
 40e82c       off_48182C
 40e940       asc_481940
 40e948       asc_481948
 40e950       dword_481950
 40e954       dword_481954
 40e958       dword_481958
 40e95c       unk_48195C
 40e99c       unk_48199C
 40e9dc       lpMultiByteStr
 40e9e0       off_4819E0
 40e9e8       dword_4819E8
 40e9ec       dword_4819EC
 40e9f0       dword_4819F0
 40e9f8       dword_4819F8
 40e9fc       dword_4819FC
 40ea00       dword_481A00
 40ea04       dword_481A04
 40ea34       dword_481A34
 40ea38       dword_481A38
 40ea70       unk_481A70
 40ea88       unk_481A88
 40eaa0       dword_481AA0
 40eaf0       unk_481AF0
 40ec50       unk_481C50
 40f0f4       dword_4820F4
 40f0f8       dword_4820F8
 40f13c       unk_48213C
 40f144       lpMainWindowName
 40f148       dword_482148
 40f150       dword_482150
 40f158       dword_482158
 40f15c       byte_48215C
 40f178       dword_482178
 40f17c       byte_48217C
 40f180       unk_482180
 41b1e4       hHeap
 41b1e8       dword_48E1E8
 41b1ec       dword_48E1EC
 41b1f0       dword_48E1F0
 41b1f4       dword_48E1F4
 41b1f8       lpLibToSysNotifyFunction
 41b218       dword_48E218
 41b220       byte_48E220
 41b2e4       dword_48E2E4
 41b408       dword_48E408
 41b4b4       hEvent
 41b5b0       unk_48E5B0
 41b610       dword_48E610
 41b634       dword_48E634
 41b638       dword_48E638
 41b63c       dword_48E63C
 41b680       dbl_48E680
 41b6d8       byte_48E6D8
 41b7d8       dword_48E7D8
 41b820       lpNewItem
 41bc28       dword_48EC28
 41bc48       dword_48EC48
 41bc4c       dword_48EC4C
 41bc50       unk_48EC50
 41bc88       dword_48EC88
 41bc90       byte_48EC90
 41bc98       unk_48EC98
 41bc9c       dword_48EC9C
 41bca0       dword_48ECA0
 41bcb0       CriticalSection
 41bcc8       byte_48ECC8
 41bccc       dword_48ECCC
 41bcd0       dword_48ECD0
 41bcd4       dword_48ECD4
 41bd08       dword_48ED08
 41bd10       unk_48ED10
 41bd38       unk_48ED38
 41bd60       unk_48ED60
 41bd88       unk_48ED88
 41bdb0       byte_48EDB0
 41bdb8       unk_48EDB8
 41be50       unk_48EE50
 41bee8       byte_48EEE8
 41bef0       unk_48EEF0
 41bf88       unk_48EF88
 41c020       unk_48F020
 41c048       unk_48F048
 41c070       byte_48F070
 41c074       dword_48F074
 41c078       dword_48F078
 41d008       unk_490008
 41d878       unk_490878
 41d8a0       unk_4908A0
 41d8e0       unk_4908E0
 41d920       unk_490920
 41d95c       byte_49095C
 41d960       unk_490960
 41d99c       dword_49099C
 41d9a0       dword_4909A0
 41d9a4       dword_4909A4
 41d9a8       dword_4909A8
 41d9ac       dword_4909AC
 41d9b0       dword_4909B0
 41d9b4       dword_4909B4
 41d9b8       dword_4909B8
 41d9bc       unk_4909BC
 41d9c0       unk_4909C0
 41d9c4       byte_4909C4
 41d9c8       unk_4909C8
 41d9cc       byte_4909CC
 41d9d4       dword_4909D4
 41d9d8       dword_4909D8
 41d9dc       unk_4909DC
 41da10       unk_490A10
 41da14       dword_490A14
 41da18       dword_490A18
 41da20       byte_490A20
 41da28       unk_490A28
 41da50       byte_490A50
 41da58       unk_490A58
 41da88       unk_490A88
 41da8c       unk_490A8C
 41da90       dword_490A90
 41da98       dword_490A98
 41da9c       dword_490A9C
 41dad4       hCursor
 41dad8       dword_490AD8
 41dae8       hBitmapChecked
 41daec       dword_490AEC
 41daf4       dword_490AF4
 41db00       dword_490B00
 41db04       dword_490B04
 41db08       dword_490B08
 41db50       stru_490B50
 41db68       stru_490B68
 41dd00       dword_490D00
 41dd04       dword_490D04
 41dd08       dword_490D08
 41dd0c       dword_490D0C
 41dd10       dword_490D10
 41dd14       dword_490D14
 41dd18       dword_490D18
 41dd1c       dword_490D1C
 41dd30       dword_490D30
 41dd38       dword_490D38
 41dd3c       dword_490D3C
 41dd40       dword_490D40
 41dd44       dword_490D44
 41dd48       dword_490D48
 41dd50       word_490D50
 41dd52       word_490D52
 41dd56       word_490D56
 41dd58       word_490D58
 41dd5a       word_490D5A
 41dd64       dword_490D64
 41dd68       dword_490D68
 41dd6c       dword_490D6C
 41dd70       dword_490D70
 41dd74       dword_490D74
 41dd78       dword_490D78
 41dd80       dword_490D80
 41dd84       dword_490D84
 41dd88       dword_490D88
 41dd90       dword_490D90
 41dd98       byte_490D98
 41dd9c       dword_490D9C
 41dda0       dword_490DA0
 41dda8       unk_490DA8
 41ddcc       dword_490DCC
 41ddd0       Filename
 41ded4       dword_490ED4
 41ded8       dword_490ED8
 41dee0       unk_490EE0
 41def8       unk_490EF8
 41df10       unk_490F10
 41df28       unk_490F28
 41df40       dword_490F40
 41df44       dword_490F44
 41df48       dword_490F48
 41df4c       dword_490F4C
 41df64       unk_490F64
 41df6c       dword_490F6C
 41df7c       dword_490F7C
 41df84       dword_490F84
 41df88       lpfn
 41df90       dword_490F90
 41df98       TimeZoneInformation
 41e044       dword_491044
 41e048       dword_491048
 41e04c       dword_49104C
 41e050       dword_491050
 41e054       dword_491054
 41e058       dword_491058
 41e0c0       dword_4910C0
 41e0c4       dword_4910C4
 41e0c8       dword_4910C8
 41e0cc       dword_4910CC
 41e0f4       byte_4910F4
 41e0f8       dword_4910F8
 41e0fc       Addend
 41e100       dword_491100
 41e104       dword_491104
 41e108       dword_491108
 41e10c       dword_49110C
 41e110       dword_491110
 41e114       lpMem
 41e118       dword_491118
 41e11c       dword_49111C
 41e120       dword_491120
 41e140       dword_491140
 41e144       unk_491144
 41e240       uNumber
 41e244       CodePage
 41e250       unk_491250
 41e25c       dword_49125C
 41e260       byte_491260
 41e360       unk_491360
 41e361       byte_491361
 41e464       Locale
 41e468       dword_491468
 41e46c       dword_49146C
 41e470       dword_491470
 41e474       dword_491474
 41e478       dword_491478
 41e480       unk_491480
 41f480       dword_492480
 41f484       dword_492484
Program entry point at 0001:000445D1
